ARM GAS  /var/folders/0z/tsy30v1j4xl4_7kw94k978ww0000gn/T//ccdBOSjy.s 			page 1


   1              		.cpu cortex-m4
   2              		.arch armv7e-m
   3              		.fpu fpv4-sp-d16
   4              		.eabi_attribute 27, 1
   5              		.eabi_attribute 28, 1
   6              		.eabi_attribute 20, 1
   7              		.eabi_attribute 21, 1
   8              		.eabi_attribute 23, 3
   9              		.eabi_attribute 24, 1
  10              		.eabi_attribute 25, 1
  11              		.eabi_attribute 26, 1
  12              		.eabi_attribute 30, 1
  13              		.eabi_attribute 34, 1
  14              		.eabi_attribute 18, 4
  15              		.file	"lv_theme_default.c"
  16              		.text
  17              	.Ltext0:
  18              		.cfi_sections	.debug_frame
  19              		.section	.text.theme_apply,"ax",%progbits
  20              		.align	1
  21              		.syntax unified
  22              		.thumb
  23              		.thumb_func
  25              	theme_apply:
  26              	.LVL0:
  27              	.LFB210:
  28              		.file 1 "Drivers/lvgl/src/extra/themes/default/lv_theme_default.c"
   1:Drivers/lvgl/src/extra/themes/default/lv_theme_default.c **** /**
   2:Drivers/lvgl/src/extra/themes/default/lv_theme_default.c ****  * @file lv_theme_default.c
   3:Drivers/lvgl/src/extra/themes/default/lv_theme_default.c ****  *
   4:Drivers/lvgl/src/extra/themes/default/lv_theme_default.c ****  */
   5:Drivers/lvgl/src/extra/themes/default/lv_theme_default.c **** 
   6:Drivers/lvgl/src/extra/themes/default/lv_theme_default.c **** /*********************
   7:Drivers/lvgl/src/extra/themes/default/lv_theme_default.c ****  *      INCLUDES
   8:Drivers/lvgl/src/extra/themes/default/lv_theme_default.c ****  *********************/
   9:Drivers/lvgl/src/extra/themes/default/lv_theme_default.c **** #include "../../../lvgl.h" /*To see all the widgets*/
  10:Drivers/lvgl/src/extra/themes/default/lv_theme_default.c **** 
  11:Drivers/lvgl/src/extra/themes/default/lv_theme_default.c **** #if LV_USE_THEME_DEFAULT
  12:Drivers/lvgl/src/extra/themes/default/lv_theme_default.c **** 
  13:Drivers/lvgl/src/extra/themes/default/lv_theme_default.c **** #include "lv_theme_default.h"
  14:Drivers/lvgl/src/extra/themes/default/lv_theme_default.c **** #include "../../../misc/lv_gc.h"
  15:Drivers/lvgl/src/extra/themes/default/lv_theme_default.c **** 
  16:Drivers/lvgl/src/extra/themes/default/lv_theme_default.c **** /*********************
  17:Drivers/lvgl/src/extra/themes/default/lv_theme_default.c ****  *      DEFINES
  18:Drivers/lvgl/src/extra/themes/default/lv_theme_default.c ****  *********************/
  19:Drivers/lvgl/src/extra/themes/default/lv_theme_default.c **** #define MODE_DARK 1
  20:Drivers/lvgl/src/extra/themes/default/lv_theme_default.c **** #define RADIUS_DEFAULT (disp_size == DISP_LARGE ? lv_disp_dpx(theme.disp, 12) : lv_disp_dpx(theme.d
  21:Drivers/lvgl/src/extra/themes/default/lv_theme_default.c **** 
  22:Drivers/lvgl/src/extra/themes/default/lv_theme_default.c **** /*SCREEN*/
  23:Drivers/lvgl/src/extra/themes/default/lv_theme_default.c **** #define LIGHT_COLOR_SCR        lv_palette_lighten(LV_PALETTE_GREY, 4)
  24:Drivers/lvgl/src/extra/themes/default/lv_theme_default.c **** #define LIGHT_COLOR_CARD       lv_color_white()
  25:Drivers/lvgl/src/extra/themes/default/lv_theme_default.c **** #define LIGHT_COLOR_TEXT       lv_palette_darken(LV_PALETTE_GREY, 4)
  26:Drivers/lvgl/src/extra/themes/default/lv_theme_default.c **** #define LIGHT_COLOR_GREY       lv_palette_lighten(LV_PALETTE_GREY, 2)
  27:Drivers/lvgl/src/extra/themes/default/lv_theme_default.c **** #define DARK_COLOR_SCR         lv_color_hex(0x15171A)
  28:Drivers/lvgl/src/extra/themes/default/lv_theme_default.c **** #define DARK_COLOR_CARD        lv_color_hex(0x282b30)
  29:Drivers/lvgl/src/extra/themes/default/lv_theme_default.c **** #define DARK_COLOR_TEXT        lv_palette_lighten(LV_PALETTE_GREY, 5)
  30:Drivers/lvgl/src/extra/themes/default/lv_theme_default.c **** #define DARK_COLOR_GREY        lv_color_hex(0x2f3237)
ARM GAS  /var/folders/0z/tsy30v1j4xl4_7kw94k978ww0000gn/T//ccdBOSjy.s 			page 2


  31:Drivers/lvgl/src/extra/themes/default/lv_theme_default.c **** 
  32:Drivers/lvgl/src/extra/themes/default/lv_theme_default.c **** #define TRANSITION_TIME         LV_THEME_DEFAULT_TRANSITION_TIME
  33:Drivers/lvgl/src/extra/themes/default/lv_theme_default.c **** #define BORDER_WIDTH            lv_disp_dpx(theme.disp, 2)
  34:Drivers/lvgl/src/extra/themes/default/lv_theme_default.c **** #define OUTLINE_WIDTH           lv_disp_dpx(theme.disp, 3)
  35:Drivers/lvgl/src/extra/themes/default/lv_theme_default.c **** 
  36:Drivers/lvgl/src/extra/themes/default/lv_theme_default.c **** #define PAD_DEF     (disp_size == DISP_LARGE ? lv_disp_dpx(theme.disp, 24) : disp_size == DISP_MEDI
  37:Drivers/lvgl/src/extra/themes/default/lv_theme_default.c **** #define PAD_SMALL   (disp_size == DISP_LARGE ? lv_disp_dpx(theme.disp, 14) : disp_size == DISP_MEDI
  38:Drivers/lvgl/src/extra/themes/default/lv_theme_default.c **** #define PAD_TINY   (disp_size == DISP_LARGE ? lv_disp_dpx(theme.disp, 8) : disp_size == DISP_MEDIUM
  39:Drivers/lvgl/src/extra/themes/default/lv_theme_default.c **** 
  40:Drivers/lvgl/src/extra/themes/default/lv_theme_default.c **** /**********************
  41:Drivers/lvgl/src/extra/themes/default/lv_theme_default.c ****  *      TYPEDEFS
  42:Drivers/lvgl/src/extra/themes/default/lv_theme_default.c ****  **********************/
  43:Drivers/lvgl/src/extra/themes/default/lv_theme_default.c **** typedef struct {
  44:Drivers/lvgl/src/extra/themes/default/lv_theme_default.c ****     lv_style_t scr;
  45:Drivers/lvgl/src/extra/themes/default/lv_theme_default.c ****     lv_style_t scrollbar;
  46:Drivers/lvgl/src/extra/themes/default/lv_theme_default.c ****     lv_style_t scrollbar_scrolled;
  47:Drivers/lvgl/src/extra/themes/default/lv_theme_default.c ****     lv_style_t card;
  48:Drivers/lvgl/src/extra/themes/default/lv_theme_default.c ****     lv_style_t btn;
  49:Drivers/lvgl/src/extra/themes/default/lv_theme_default.c **** 
  50:Drivers/lvgl/src/extra/themes/default/lv_theme_default.c ****     /*Utility*/
  51:Drivers/lvgl/src/extra/themes/default/lv_theme_default.c ****     lv_style_t bg_color_primary;
  52:Drivers/lvgl/src/extra/themes/default/lv_theme_default.c ****     lv_style_t bg_color_primary_muted;
  53:Drivers/lvgl/src/extra/themes/default/lv_theme_default.c ****     lv_style_t bg_color_secondary;
  54:Drivers/lvgl/src/extra/themes/default/lv_theme_default.c ****     lv_style_t bg_color_secondary_muted;
  55:Drivers/lvgl/src/extra/themes/default/lv_theme_default.c ****     lv_style_t bg_color_grey;
  56:Drivers/lvgl/src/extra/themes/default/lv_theme_default.c ****     lv_style_t bg_color_white;
  57:Drivers/lvgl/src/extra/themes/default/lv_theme_default.c ****     lv_style_t pressed;
  58:Drivers/lvgl/src/extra/themes/default/lv_theme_default.c ****     lv_style_t disabled;
  59:Drivers/lvgl/src/extra/themes/default/lv_theme_default.c ****     lv_style_t pad_zero;
  60:Drivers/lvgl/src/extra/themes/default/lv_theme_default.c ****     lv_style_t pad_tiny;
  61:Drivers/lvgl/src/extra/themes/default/lv_theme_default.c ****     lv_style_t pad_small;
  62:Drivers/lvgl/src/extra/themes/default/lv_theme_default.c ****     lv_style_t pad_normal;
  63:Drivers/lvgl/src/extra/themes/default/lv_theme_default.c ****     lv_style_t pad_gap;
  64:Drivers/lvgl/src/extra/themes/default/lv_theme_default.c ****     lv_style_t line_space_large;
  65:Drivers/lvgl/src/extra/themes/default/lv_theme_default.c ****     lv_style_t text_align_center;
  66:Drivers/lvgl/src/extra/themes/default/lv_theme_default.c ****     lv_style_t outline_primary;
  67:Drivers/lvgl/src/extra/themes/default/lv_theme_default.c ****     lv_style_t outline_secondary;
  68:Drivers/lvgl/src/extra/themes/default/lv_theme_default.c ****     lv_style_t circle;
  69:Drivers/lvgl/src/extra/themes/default/lv_theme_default.c ****     lv_style_t no_radius;
  70:Drivers/lvgl/src/extra/themes/default/lv_theme_default.c ****     lv_style_t clip_corner;
  71:Drivers/lvgl/src/extra/themes/default/lv_theme_default.c **** #if LV_THEME_DEFAULT_GROW
  72:Drivers/lvgl/src/extra/themes/default/lv_theme_default.c ****     lv_style_t grow;
  73:Drivers/lvgl/src/extra/themes/default/lv_theme_default.c **** #endif
  74:Drivers/lvgl/src/extra/themes/default/lv_theme_default.c ****     lv_style_t transition_delayed;
  75:Drivers/lvgl/src/extra/themes/default/lv_theme_default.c ****     lv_style_t transition_normal;
  76:Drivers/lvgl/src/extra/themes/default/lv_theme_default.c ****     lv_style_t anim;
  77:Drivers/lvgl/src/extra/themes/default/lv_theme_default.c ****     lv_style_t anim_fast;
  78:Drivers/lvgl/src/extra/themes/default/lv_theme_default.c **** 
  79:Drivers/lvgl/src/extra/themes/default/lv_theme_default.c ****     /*Parts*/
  80:Drivers/lvgl/src/extra/themes/default/lv_theme_default.c ****     lv_style_t knob;
  81:Drivers/lvgl/src/extra/themes/default/lv_theme_default.c ****     lv_style_t indic;
  82:Drivers/lvgl/src/extra/themes/default/lv_theme_default.c **** 
  83:Drivers/lvgl/src/extra/themes/default/lv_theme_default.c **** #if LV_USE_ARC
  84:Drivers/lvgl/src/extra/themes/default/lv_theme_default.c ****     lv_style_t arc_indic;
  85:Drivers/lvgl/src/extra/themes/default/lv_theme_default.c ****     lv_style_t arc_indic_primary;
  86:Drivers/lvgl/src/extra/themes/default/lv_theme_default.c **** #endif
  87:Drivers/lvgl/src/extra/themes/default/lv_theme_default.c **** 
ARM GAS  /var/folders/0z/tsy30v1j4xl4_7kw94k978ww0000gn/T//ccdBOSjy.s 			page 3


  88:Drivers/lvgl/src/extra/themes/default/lv_theme_default.c **** #if LV_USE_CHART
  89:Drivers/lvgl/src/extra/themes/default/lv_theme_default.c ****     lv_style_t chart_series, chart_indic, chart_ticks, chart_bg;
  90:Drivers/lvgl/src/extra/themes/default/lv_theme_default.c **** #endif
  91:Drivers/lvgl/src/extra/themes/default/lv_theme_default.c **** 
  92:Drivers/lvgl/src/extra/themes/default/lv_theme_default.c **** #if LV_USE_DROPDOWN
  93:Drivers/lvgl/src/extra/themes/default/lv_theme_default.c ****     lv_style_t dropdown_list;
  94:Drivers/lvgl/src/extra/themes/default/lv_theme_default.c **** #endif
  95:Drivers/lvgl/src/extra/themes/default/lv_theme_default.c **** 
  96:Drivers/lvgl/src/extra/themes/default/lv_theme_default.c **** #if LV_USE_CHECKBOX
  97:Drivers/lvgl/src/extra/themes/default/lv_theme_default.c ****     lv_style_t cb_marker, cb_marker_checked;
  98:Drivers/lvgl/src/extra/themes/default/lv_theme_default.c **** #endif
  99:Drivers/lvgl/src/extra/themes/default/lv_theme_default.c **** 
 100:Drivers/lvgl/src/extra/themes/default/lv_theme_default.c **** #if LV_USE_SWITCH
 101:Drivers/lvgl/src/extra/themes/default/lv_theme_default.c ****     lv_style_t switch_knob;
 102:Drivers/lvgl/src/extra/themes/default/lv_theme_default.c **** #endif
 103:Drivers/lvgl/src/extra/themes/default/lv_theme_default.c **** 
 104:Drivers/lvgl/src/extra/themes/default/lv_theme_default.c **** #if LV_USE_LINE
 105:Drivers/lvgl/src/extra/themes/default/lv_theme_default.c ****     lv_style_t line;
 106:Drivers/lvgl/src/extra/themes/default/lv_theme_default.c **** #endif
 107:Drivers/lvgl/src/extra/themes/default/lv_theme_default.c **** 
 108:Drivers/lvgl/src/extra/themes/default/lv_theme_default.c **** #if LV_USE_TABLE
 109:Drivers/lvgl/src/extra/themes/default/lv_theme_default.c ****     lv_style_t table_cell;
 110:Drivers/lvgl/src/extra/themes/default/lv_theme_default.c **** #endif
 111:Drivers/lvgl/src/extra/themes/default/lv_theme_default.c **** 
 112:Drivers/lvgl/src/extra/themes/default/lv_theme_default.c **** #if LV_USE_METER
 113:Drivers/lvgl/src/extra/themes/default/lv_theme_default.c ****     lv_style_t meter_marker, meter_indic;
 114:Drivers/lvgl/src/extra/themes/default/lv_theme_default.c **** #endif
 115:Drivers/lvgl/src/extra/themes/default/lv_theme_default.c **** 
 116:Drivers/lvgl/src/extra/themes/default/lv_theme_default.c **** #if LV_USE_TEXTAREA
 117:Drivers/lvgl/src/extra/themes/default/lv_theme_default.c ****     lv_style_t ta_cursor, ta_placeholder;
 118:Drivers/lvgl/src/extra/themes/default/lv_theme_default.c **** #endif
 119:Drivers/lvgl/src/extra/themes/default/lv_theme_default.c **** 
 120:Drivers/lvgl/src/extra/themes/default/lv_theme_default.c **** #if LV_USE_CALENDAR
 121:Drivers/lvgl/src/extra/themes/default/lv_theme_default.c ****     lv_style_t calendar_btnm_bg, calendar_btnm_day, calendar_header;
 122:Drivers/lvgl/src/extra/themes/default/lv_theme_default.c **** #endif
 123:Drivers/lvgl/src/extra/themes/default/lv_theme_default.c **** 
 124:Drivers/lvgl/src/extra/themes/default/lv_theme_default.c **** #if LV_USE_COLORWHEEL
 125:Drivers/lvgl/src/extra/themes/default/lv_theme_default.c ****     lv_style_t colorwheel_main;
 126:Drivers/lvgl/src/extra/themes/default/lv_theme_default.c **** #endif
 127:Drivers/lvgl/src/extra/themes/default/lv_theme_default.c **** 
 128:Drivers/lvgl/src/extra/themes/default/lv_theme_default.c **** #if LV_USE_MENU
 129:Drivers/lvgl/src/extra/themes/default/lv_theme_default.c ****     lv_style_t menu_bg, menu_cont, menu_sidebar_cont, menu_main_cont, menu_page, menu_header_cont, 
 130:Drivers/lvgl/src/extra/themes/default/lv_theme_default.c ****                menu_section, menu_pressed, menu_separator;
 131:Drivers/lvgl/src/extra/themes/default/lv_theme_default.c **** #endif
 132:Drivers/lvgl/src/extra/themes/default/lv_theme_default.c **** 
 133:Drivers/lvgl/src/extra/themes/default/lv_theme_default.c **** #if LV_USE_MSGBOX
 134:Drivers/lvgl/src/extra/themes/default/lv_theme_default.c ****     lv_style_t msgbox_bg, msgbox_btn_bg, msgbox_backdrop_bg;
 135:Drivers/lvgl/src/extra/themes/default/lv_theme_default.c **** #endif
 136:Drivers/lvgl/src/extra/themes/default/lv_theme_default.c **** 
 137:Drivers/lvgl/src/extra/themes/default/lv_theme_default.c **** #if LV_USE_KEYBOARD
 138:Drivers/lvgl/src/extra/themes/default/lv_theme_default.c ****     lv_style_t keyboard_btn_bg;
 139:Drivers/lvgl/src/extra/themes/default/lv_theme_default.c **** #endif
 140:Drivers/lvgl/src/extra/themes/default/lv_theme_default.c **** 
 141:Drivers/lvgl/src/extra/themes/default/lv_theme_default.c **** #if LV_USE_LIST
 142:Drivers/lvgl/src/extra/themes/default/lv_theme_default.c ****     lv_style_t list_bg, list_btn, list_item_grow, list_label;
 143:Drivers/lvgl/src/extra/themes/default/lv_theme_default.c **** #endif
 144:Drivers/lvgl/src/extra/themes/default/lv_theme_default.c **** 
ARM GAS  /var/folders/0z/tsy30v1j4xl4_7kw94k978ww0000gn/T//ccdBOSjy.s 			page 4


 145:Drivers/lvgl/src/extra/themes/default/lv_theme_default.c **** #if LV_USE_TABVIEW
 146:Drivers/lvgl/src/extra/themes/default/lv_theme_default.c ****     lv_style_t tab_bg_focus, tab_btn;
 147:Drivers/lvgl/src/extra/themes/default/lv_theme_default.c **** #endif
 148:Drivers/lvgl/src/extra/themes/default/lv_theme_default.c **** #if LV_USE_LED
 149:Drivers/lvgl/src/extra/themes/default/lv_theme_default.c ****     lv_style_t led;
 150:Drivers/lvgl/src/extra/themes/default/lv_theme_default.c **** #endif
 151:Drivers/lvgl/src/extra/themes/default/lv_theme_default.c **** } my_theme_styles_t;
 152:Drivers/lvgl/src/extra/themes/default/lv_theme_default.c **** 
 153:Drivers/lvgl/src/extra/themes/default/lv_theme_default.c **** typedef struct {
 154:Drivers/lvgl/src/extra/themes/default/lv_theme_default.c ****     lv_theme_t base;
 155:Drivers/lvgl/src/extra/themes/default/lv_theme_default.c ****     uint8_t light : 1;
 156:Drivers/lvgl/src/extra/themes/default/lv_theme_default.c **** } my_theme_t;
 157:Drivers/lvgl/src/extra/themes/default/lv_theme_default.c **** 
 158:Drivers/lvgl/src/extra/themes/default/lv_theme_default.c **** typedef enum {
 159:Drivers/lvgl/src/extra/themes/default/lv_theme_default.c ****     DISP_SMALL = 3,
 160:Drivers/lvgl/src/extra/themes/default/lv_theme_default.c ****     DISP_MEDIUM = 2,
 161:Drivers/lvgl/src/extra/themes/default/lv_theme_default.c ****     DISP_LARGE = 1,
 162:Drivers/lvgl/src/extra/themes/default/lv_theme_default.c **** } disp_size_t;
 163:Drivers/lvgl/src/extra/themes/default/lv_theme_default.c **** 
 164:Drivers/lvgl/src/extra/themes/default/lv_theme_default.c **** /**********************
 165:Drivers/lvgl/src/extra/themes/default/lv_theme_default.c ****  *  STATIC PROTOTYPES
 166:Drivers/lvgl/src/extra/themes/default/lv_theme_default.c ****  **********************/
 167:Drivers/lvgl/src/extra/themes/default/lv_theme_default.c **** static void theme_apply(lv_theme_t * th, lv_obj_t * obj);
 168:Drivers/lvgl/src/extra/themes/default/lv_theme_default.c **** static void style_init_reset(lv_style_t * style);
 169:Drivers/lvgl/src/extra/themes/default/lv_theme_default.c **** 
 170:Drivers/lvgl/src/extra/themes/default/lv_theme_default.c **** /**********************
 171:Drivers/lvgl/src/extra/themes/default/lv_theme_default.c ****  *  STATIC VARIABLES
 172:Drivers/lvgl/src/extra/themes/default/lv_theme_default.c ****  **********************/
 173:Drivers/lvgl/src/extra/themes/default/lv_theme_default.c **** static my_theme_styles_t * styles;
 174:Drivers/lvgl/src/extra/themes/default/lv_theme_default.c **** static lv_theme_t theme;
 175:Drivers/lvgl/src/extra/themes/default/lv_theme_default.c **** static disp_size_t disp_size;
 176:Drivers/lvgl/src/extra/themes/default/lv_theme_default.c **** static lv_color_t color_scr;
 177:Drivers/lvgl/src/extra/themes/default/lv_theme_default.c **** static lv_color_t color_text;
 178:Drivers/lvgl/src/extra/themes/default/lv_theme_default.c **** static lv_color_t color_card;
 179:Drivers/lvgl/src/extra/themes/default/lv_theme_default.c **** static lv_color_t color_grey;
 180:Drivers/lvgl/src/extra/themes/default/lv_theme_default.c **** static bool inited = false;
 181:Drivers/lvgl/src/extra/themes/default/lv_theme_default.c **** 
 182:Drivers/lvgl/src/extra/themes/default/lv_theme_default.c **** 
 183:Drivers/lvgl/src/extra/themes/default/lv_theme_default.c **** /**********************
 184:Drivers/lvgl/src/extra/themes/default/lv_theme_default.c ****  *      MACROS
 185:Drivers/lvgl/src/extra/themes/default/lv_theme_default.c ****  **********************/
 186:Drivers/lvgl/src/extra/themes/default/lv_theme_default.c **** 
 187:Drivers/lvgl/src/extra/themes/default/lv_theme_default.c **** /**********************
 188:Drivers/lvgl/src/extra/themes/default/lv_theme_default.c ****  *   STATIC FUNCTIONS
 189:Drivers/lvgl/src/extra/themes/default/lv_theme_default.c ****  **********************/
 190:Drivers/lvgl/src/extra/themes/default/lv_theme_default.c **** 
 191:Drivers/lvgl/src/extra/themes/default/lv_theme_default.c **** 
 192:Drivers/lvgl/src/extra/themes/default/lv_theme_default.c **** static lv_color_t dark_color_filter_cb(const lv_color_filter_dsc_t * f, lv_color_t c, lv_opa_t opa)
 193:Drivers/lvgl/src/extra/themes/default/lv_theme_default.c **** {
 194:Drivers/lvgl/src/extra/themes/default/lv_theme_default.c ****     LV_UNUSED(f);
 195:Drivers/lvgl/src/extra/themes/default/lv_theme_default.c ****     return lv_color_darken(c, opa);
 196:Drivers/lvgl/src/extra/themes/default/lv_theme_default.c **** }
 197:Drivers/lvgl/src/extra/themes/default/lv_theme_default.c **** 
 198:Drivers/lvgl/src/extra/themes/default/lv_theme_default.c **** static lv_color_t grey_filter_cb(const lv_color_filter_dsc_t * f, lv_color_t color, lv_opa_t opa)
 199:Drivers/lvgl/src/extra/themes/default/lv_theme_default.c **** {
 200:Drivers/lvgl/src/extra/themes/default/lv_theme_default.c ****     LV_UNUSED(f);
 201:Drivers/lvgl/src/extra/themes/default/lv_theme_default.c ****     if(theme.flags & MODE_DARK) return lv_color_mix(lv_palette_darken(LV_PALETTE_GREY, 2), color, o
ARM GAS  /var/folders/0z/tsy30v1j4xl4_7kw94k978ww0000gn/T//ccdBOSjy.s 			page 5


 202:Drivers/lvgl/src/extra/themes/default/lv_theme_default.c ****     else return lv_color_mix(lv_palette_lighten(LV_PALETTE_GREY, 2), color, opa);
 203:Drivers/lvgl/src/extra/themes/default/lv_theme_default.c **** }
 204:Drivers/lvgl/src/extra/themes/default/lv_theme_default.c **** 
 205:Drivers/lvgl/src/extra/themes/default/lv_theme_default.c **** static void style_init(void)
 206:Drivers/lvgl/src/extra/themes/default/lv_theme_default.c **** {
 207:Drivers/lvgl/src/extra/themes/default/lv_theme_default.c ****     static const lv_style_prop_t trans_props[] = {
 208:Drivers/lvgl/src/extra/themes/default/lv_theme_default.c ****         LV_STYLE_BG_OPA, LV_STYLE_BG_COLOR,
 209:Drivers/lvgl/src/extra/themes/default/lv_theme_default.c ****         LV_STYLE_TRANSFORM_WIDTH, LV_STYLE_TRANSFORM_HEIGHT,
 210:Drivers/lvgl/src/extra/themes/default/lv_theme_default.c ****         LV_STYLE_TRANSLATE_Y, LV_STYLE_TRANSLATE_X,
 211:Drivers/lvgl/src/extra/themes/default/lv_theme_default.c ****         LV_STYLE_TRANSFORM_ZOOM, LV_STYLE_TRANSFORM_ANGLE,
 212:Drivers/lvgl/src/extra/themes/default/lv_theme_default.c ****         LV_STYLE_COLOR_FILTER_OPA, LV_STYLE_COLOR_FILTER_DSC,
 213:Drivers/lvgl/src/extra/themes/default/lv_theme_default.c ****         0
 214:Drivers/lvgl/src/extra/themes/default/lv_theme_default.c ****     };
 215:Drivers/lvgl/src/extra/themes/default/lv_theme_default.c **** 
 216:Drivers/lvgl/src/extra/themes/default/lv_theme_default.c ****     color_scr = theme.flags & MODE_DARK ? DARK_COLOR_SCR : LIGHT_COLOR_SCR;
 217:Drivers/lvgl/src/extra/themes/default/lv_theme_default.c ****     color_text = theme.flags & MODE_DARK ? DARK_COLOR_TEXT : LIGHT_COLOR_TEXT;
 218:Drivers/lvgl/src/extra/themes/default/lv_theme_default.c ****     color_card = theme.flags & MODE_DARK ? DARK_COLOR_CARD : LIGHT_COLOR_CARD;
 219:Drivers/lvgl/src/extra/themes/default/lv_theme_default.c ****     color_grey = theme.flags & MODE_DARK ? DARK_COLOR_GREY : LIGHT_COLOR_GREY;
 220:Drivers/lvgl/src/extra/themes/default/lv_theme_default.c **** 
 221:Drivers/lvgl/src/extra/themes/default/lv_theme_default.c ****     style_init_reset(&styles->transition_delayed);
 222:Drivers/lvgl/src/extra/themes/default/lv_theme_default.c ****     style_init_reset(&styles->transition_normal);
 223:Drivers/lvgl/src/extra/themes/default/lv_theme_default.c **** #if TRANSITION_TIME
 224:Drivers/lvgl/src/extra/themes/default/lv_theme_default.c ****     static lv_style_transition_dsc_t trans_delayed;
 225:Drivers/lvgl/src/extra/themes/default/lv_theme_default.c ****     lv_style_transition_dsc_init(&trans_delayed, trans_props, lv_anim_path_linear, TRANSITION_TIME,
 226:Drivers/lvgl/src/extra/themes/default/lv_theme_default.c **** 
 227:Drivers/lvgl/src/extra/themes/default/lv_theme_default.c ****     static lv_style_transition_dsc_t trans_normal;
 228:Drivers/lvgl/src/extra/themes/default/lv_theme_default.c ****     lv_style_transition_dsc_init(&trans_normal, trans_props, lv_anim_path_linear, TRANSITION_TIME, 
 229:Drivers/lvgl/src/extra/themes/default/lv_theme_default.c **** 
 230:Drivers/lvgl/src/extra/themes/default/lv_theme_default.c ****     lv_style_set_transition(&styles->transition_delayed, &trans_delayed); /*Go back to default stat
 231:Drivers/lvgl/src/extra/themes/default/lv_theme_default.c **** 
 232:Drivers/lvgl/src/extra/themes/default/lv_theme_default.c ****     lv_style_set_transition(&styles->transition_normal, &trans_normal); /*Go back to default state 
 233:Drivers/lvgl/src/extra/themes/default/lv_theme_default.c **** #endif
 234:Drivers/lvgl/src/extra/themes/default/lv_theme_default.c **** 
 235:Drivers/lvgl/src/extra/themes/default/lv_theme_default.c ****     style_init_reset(&styles->scrollbar);
 236:Drivers/lvgl/src/extra/themes/default/lv_theme_default.c ****     lv_color_t sb_color = (theme.flags & MODE_DARK) ? lv_palette_darken(LV_PALETTE_GREY,
 237:Drivers/lvgl/src/extra/themes/default/lv_theme_default.c ****                                                                         2) : lv_palette_main(LV_PAL
 238:Drivers/lvgl/src/extra/themes/default/lv_theme_default.c ****     lv_style_set_bg_color(&styles->scrollbar, sb_color);
 239:Drivers/lvgl/src/extra/themes/default/lv_theme_default.c **** 
 240:Drivers/lvgl/src/extra/themes/default/lv_theme_default.c ****     lv_style_set_radius(&styles->scrollbar, LV_RADIUS_CIRCLE);
 241:Drivers/lvgl/src/extra/themes/default/lv_theme_default.c ****     lv_style_set_pad_all(&styles->scrollbar, lv_disp_dpx(theme.disp, 7));
 242:Drivers/lvgl/src/extra/themes/default/lv_theme_default.c ****     lv_style_set_width(&styles->scrollbar,  lv_disp_dpx(theme.disp, 5));
 243:Drivers/lvgl/src/extra/themes/default/lv_theme_default.c ****     lv_style_set_bg_opa(&styles->scrollbar,  LV_OPA_40);
 244:Drivers/lvgl/src/extra/themes/default/lv_theme_default.c **** #if TRANSITION_TIME
 245:Drivers/lvgl/src/extra/themes/default/lv_theme_default.c ****     lv_style_set_transition(&styles->scrollbar, &trans_normal);
 246:Drivers/lvgl/src/extra/themes/default/lv_theme_default.c **** #endif
 247:Drivers/lvgl/src/extra/themes/default/lv_theme_default.c **** 
 248:Drivers/lvgl/src/extra/themes/default/lv_theme_default.c ****     style_init_reset(&styles->scrollbar_scrolled);
 249:Drivers/lvgl/src/extra/themes/default/lv_theme_default.c ****     lv_style_set_bg_opa(&styles->scrollbar_scrolled,  LV_OPA_COVER);
 250:Drivers/lvgl/src/extra/themes/default/lv_theme_default.c **** 
 251:Drivers/lvgl/src/extra/themes/default/lv_theme_default.c ****     style_init_reset(&styles->scr);
 252:Drivers/lvgl/src/extra/themes/default/lv_theme_default.c ****     lv_style_set_bg_opa(&styles->scr, LV_OPA_COVER);
 253:Drivers/lvgl/src/extra/themes/default/lv_theme_default.c ****     lv_style_set_bg_color(&styles->scr, color_scr);
 254:Drivers/lvgl/src/extra/themes/default/lv_theme_default.c ****     lv_style_set_text_color(&styles->scr, color_text);
 255:Drivers/lvgl/src/extra/themes/default/lv_theme_default.c ****     lv_style_set_pad_row(&styles->scr, PAD_SMALL);
 256:Drivers/lvgl/src/extra/themes/default/lv_theme_default.c ****     lv_style_set_pad_column(&styles->scr, PAD_SMALL);
 257:Drivers/lvgl/src/extra/themes/default/lv_theme_default.c **** 
 258:Drivers/lvgl/src/extra/themes/default/lv_theme_default.c ****     style_init_reset(&styles->card);
ARM GAS  /var/folders/0z/tsy30v1j4xl4_7kw94k978ww0000gn/T//ccdBOSjy.s 			page 6


 259:Drivers/lvgl/src/extra/themes/default/lv_theme_default.c ****     lv_style_set_radius(&styles->card, RADIUS_DEFAULT);
 260:Drivers/lvgl/src/extra/themes/default/lv_theme_default.c ****     lv_style_set_bg_opa(&styles->card, LV_OPA_COVER);
 261:Drivers/lvgl/src/extra/themes/default/lv_theme_default.c ****     lv_style_set_bg_color(&styles->card, color_card);
 262:Drivers/lvgl/src/extra/themes/default/lv_theme_default.c ****     lv_style_set_border_color(&styles->card, color_grey);
 263:Drivers/lvgl/src/extra/themes/default/lv_theme_default.c ****     lv_style_set_border_width(&styles->card, BORDER_WIDTH);
 264:Drivers/lvgl/src/extra/themes/default/lv_theme_default.c ****     lv_style_set_border_post(&styles->card, true);
 265:Drivers/lvgl/src/extra/themes/default/lv_theme_default.c ****     lv_style_set_text_color(&styles->card, color_text);
 266:Drivers/lvgl/src/extra/themes/default/lv_theme_default.c ****     lv_style_set_pad_all(&styles->card, PAD_DEF);
 267:Drivers/lvgl/src/extra/themes/default/lv_theme_default.c ****     lv_style_set_pad_row(&styles->card, PAD_SMALL);
 268:Drivers/lvgl/src/extra/themes/default/lv_theme_default.c ****     lv_style_set_pad_column(&styles->card, PAD_SMALL);
 269:Drivers/lvgl/src/extra/themes/default/lv_theme_default.c ****     lv_style_set_line_color(&styles->card, lv_palette_main(LV_PALETTE_GREY));
 270:Drivers/lvgl/src/extra/themes/default/lv_theme_default.c ****     lv_style_set_line_width(&styles->card, lv_disp_dpx(theme.disp, 1));
 271:Drivers/lvgl/src/extra/themes/default/lv_theme_default.c **** 
 272:Drivers/lvgl/src/extra/themes/default/lv_theme_default.c ****     style_init_reset(&styles->outline_primary);
 273:Drivers/lvgl/src/extra/themes/default/lv_theme_default.c ****     lv_style_set_outline_color(&styles->outline_primary, theme.color_primary);
 274:Drivers/lvgl/src/extra/themes/default/lv_theme_default.c ****     lv_style_set_outline_width(&styles->outline_primary, OUTLINE_WIDTH);
 275:Drivers/lvgl/src/extra/themes/default/lv_theme_default.c ****     lv_style_set_outline_pad(&styles->outline_primary, OUTLINE_WIDTH);
 276:Drivers/lvgl/src/extra/themes/default/lv_theme_default.c ****     lv_style_set_outline_opa(&styles->outline_primary, LV_OPA_50);
 277:Drivers/lvgl/src/extra/themes/default/lv_theme_default.c **** 
 278:Drivers/lvgl/src/extra/themes/default/lv_theme_default.c ****     style_init_reset(&styles->outline_secondary);
 279:Drivers/lvgl/src/extra/themes/default/lv_theme_default.c ****     lv_style_set_outline_color(&styles->outline_secondary, theme.color_secondary);
 280:Drivers/lvgl/src/extra/themes/default/lv_theme_default.c ****     lv_style_set_outline_width(&styles->outline_secondary, OUTLINE_WIDTH);
 281:Drivers/lvgl/src/extra/themes/default/lv_theme_default.c ****     lv_style_set_outline_opa(&styles->outline_secondary, LV_OPA_50);
 282:Drivers/lvgl/src/extra/themes/default/lv_theme_default.c **** 
 283:Drivers/lvgl/src/extra/themes/default/lv_theme_default.c ****     style_init_reset(&styles->btn);
 284:Drivers/lvgl/src/extra/themes/default/lv_theme_default.c ****     lv_style_set_radius(&styles->btn, (disp_size == DISP_LARGE ? lv_disp_dpx(theme.disp,
 285:Drivers/lvgl/src/extra/themes/default/lv_theme_default.c ****                                                                              16) : disp_size == DIS
 286:Drivers/lvgl/src/extra/themes/default/lv_theme_default.c ****     lv_style_set_bg_opa(&styles->btn, LV_OPA_COVER);
 287:Drivers/lvgl/src/extra/themes/default/lv_theme_default.c ****     lv_style_set_bg_color(&styles->btn, color_grey);
 288:Drivers/lvgl/src/extra/themes/default/lv_theme_default.c ****     if(!(theme.flags & MODE_DARK)) {
 289:Drivers/lvgl/src/extra/themes/default/lv_theme_default.c ****         lv_style_set_shadow_color(&styles->btn, lv_palette_main(LV_PALETTE_GREY));
 290:Drivers/lvgl/src/extra/themes/default/lv_theme_default.c ****         lv_style_set_shadow_width(&styles->btn, LV_DPX(3));
 291:Drivers/lvgl/src/extra/themes/default/lv_theme_default.c ****         lv_style_set_shadow_opa(&styles->btn, LV_OPA_50);
 292:Drivers/lvgl/src/extra/themes/default/lv_theme_default.c ****         lv_style_set_shadow_ofs_y(&styles->btn, lv_disp_dpx(theme.disp, LV_DPX(4)));
 293:Drivers/lvgl/src/extra/themes/default/lv_theme_default.c ****     }
 294:Drivers/lvgl/src/extra/themes/default/lv_theme_default.c ****     lv_style_set_text_color(&styles->btn, color_text);
 295:Drivers/lvgl/src/extra/themes/default/lv_theme_default.c ****     lv_style_set_pad_hor(&styles->btn, PAD_DEF);
 296:Drivers/lvgl/src/extra/themes/default/lv_theme_default.c ****     lv_style_set_pad_ver(&styles->btn, PAD_SMALL);
 297:Drivers/lvgl/src/extra/themes/default/lv_theme_default.c ****     lv_style_set_pad_column(&styles->btn, lv_disp_dpx(theme.disp, 5));
 298:Drivers/lvgl/src/extra/themes/default/lv_theme_default.c ****     lv_style_set_pad_row(&styles->btn, lv_disp_dpx(theme.disp, 5));
 299:Drivers/lvgl/src/extra/themes/default/lv_theme_default.c **** 
 300:Drivers/lvgl/src/extra/themes/default/lv_theme_default.c ****     static lv_color_filter_dsc_t dark_filter;
 301:Drivers/lvgl/src/extra/themes/default/lv_theme_default.c ****     lv_color_filter_dsc_init(&dark_filter, dark_color_filter_cb);
 302:Drivers/lvgl/src/extra/themes/default/lv_theme_default.c **** 
 303:Drivers/lvgl/src/extra/themes/default/lv_theme_default.c ****     static lv_color_filter_dsc_t grey_filter;
 304:Drivers/lvgl/src/extra/themes/default/lv_theme_default.c ****     lv_color_filter_dsc_init(&grey_filter, grey_filter_cb);
 305:Drivers/lvgl/src/extra/themes/default/lv_theme_default.c **** 
 306:Drivers/lvgl/src/extra/themes/default/lv_theme_default.c ****     style_init_reset(&styles->pressed);
 307:Drivers/lvgl/src/extra/themes/default/lv_theme_default.c ****     lv_style_set_color_filter_dsc(&styles->pressed, &dark_filter);
 308:Drivers/lvgl/src/extra/themes/default/lv_theme_default.c ****     lv_style_set_color_filter_opa(&styles->pressed, 35);
 309:Drivers/lvgl/src/extra/themes/default/lv_theme_default.c **** 
 310:Drivers/lvgl/src/extra/themes/default/lv_theme_default.c ****     style_init_reset(&styles->disabled);
 311:Drivers/lvgl/src/extra/themes/default/lv_theme_default.c ****     lv_style_set_color_filter_dsc(&styles->disabled, &grey_filter);
 312:Drivers/lvgl/src/extra/themes/default/lv_theme_default.c ****     lv_style_set_color_filter_opa(&styles->disabled, LV_OPA_50);
 313:Drivers/lvgl/src/extra/themes/default/lv_theme_default.c **** 
 314:Drivers/lvgl/src/extra/themes/default/lv_theme_default.c ****     style_init_reset(&styles->clip_corner);
 315:Drivers/lvgl/src/extra/themes/default/lv_theme_default.c ****     lv_style_set_clip_corner(&styles->clip_corner, true);
ARM GAS  /var/folders/0z/tsy30v1j4xl4_7kw94k978ww0000gn/T//ccdBOSjy.s 			page 7


 316:Drivers/lvgl/src/extra/themes/default/lv_theme_default.c ****     lv_style_set_border_post(&styles->clip_corner, true);
 317:Drivers/lvgl/src/extra/themes/default/lv_theme_default.c **** 
 318:Drivers/lvgl/src/extra/themes/default/lv_theme_default.c ****     style_init_reset(&styles->pad_normal);
 319:Drivers/lvgl/src/extra/themes/default/lv_theme_default.c ****     lv_style_set_pad_all(&styles->pad_normal, PAD_DEF);
 320:Drivers/lvgl/src/extra/themes/default/lv_theme_default.c ****     lv_style_set_pad_row(&styles->pad_normal, PAD_DEF);
 321:Drivers/lvgl/src/extra/themes/default/lv_theme_default.c ****     lv_style_set_pad_column(&styles->pad_normal, PAD_DEF);
 322:Drivers/lvgl/src/extra/themes/default/lv_theme_default.c **** 
 323:Drivers/lvgl/src/extra/themes/default/lv_theme_default.c ****     style_init_reset(&styles->pad_small);
 324:Drivers/lvgl/src/extra/themes/default/lv_theme_default.c ****     lv_style_set_pad_all(&styles->pad_small, PAD_SMALL);
 325:Drivers/lvgl/src/extra/themes/default/lv_theme_default.c ****     lv_style_set_pad_gap(&styles->pad_small, PAD_SMALL);
 326:Drivers/lvgl/src/extra/themes/default/lv_theme_default.c **** 
 327:Drivers/lvgl/src/extra/themes/default/lv_theme_default.c ****     style_init_reset(&styles->pad_gap);
 328:Drivers/lvgl/src/extra/themes/default/lv_theme_default.c ****     lv_style_set_pad_row(&styles->pad_gap, lv_disp_dpx(theme.disp, 10));
 329:Drivers/lvgl/src/extra/themes/default/lv_theme_default.c ****     lv_style_set_pad_column(&styles->pad_gap, lv_disp_dpx(theme.disp, 10));
 330:Drivers/lvgl/src/extra/themes/default/lv_theme_default.c **** 
 331:Drivers/lvgl/src/extra/themes/default/lv_theme_default.c ****     style_init_reset(&styles->line_space_large);
 332:Drivers/lvgl/src/extra/themes/default/lv_theme_default.c ****     lv_style_set_text_line_space(&styles->line_space_large, lv_disp_dpx(theme.disp, 20));
 333:Drivers/lvgl/src/extra/themes/default/lv_theme_default.c **** 
 334:Drivers/lvgl/src/extra/themes/default/lv_theme_default.c ****     style_init_reset(&styles->text_align_center);
 335:Drivers/lvgl/src/extra/themes/default/lv_theme_default.c ****     lv_style_set_text_align(&styles->text_align_center, LV_TEXT_ALIGN_CENTER);
 336:Drivers/lvgl/src/extra/themes/default/lv_theme_default.c **** 
 337:Drivers/lvgl/src/extra/themes/default/lv_theme_default.c ****     style_init_reset(&styles->pad_zero);
 338:Drivers/lvgl/src/extra/themes/default/lv_theme_default.c ****     lv_style_set_pad_all(&styles->pad_zero, 0);
 339:Drivers/lvgl/src/extra/themes/default/lv_theme_default.c ****     lv_style_set_pad_row(&styles->pad_zero, 0);
 340:Drivers/lvgl/src/extra/themes/default/lv_theme_default.c ****     lv_style_set_pad_column(&styles->pad_zero, 0);
 341:Drivers/lvgl/src/extra/themes/default/lv_theme_default.c **** 
 342:Drivers/lvgl/src/extra/themes/default/lv_theme_default.c ****     style_init_reset(&styles->pad_tiny);
 343:Drivers/lvgl/src/extra/themes/default/lv_theme_default.c ****     lv_style_set_pad_all(&styles->pad_tiny, PAD_TINY);
 344:Drivers/lvgl/src/extra/themes/default/lv_theme_default.c ****     lv_style_set_pad_row(&styles->pad_tiny, PAD_TINY);
 345:Drivers/lvgl/src/extra/themes/default/lv_theme_default.c ****     lv_style_set_pad_column(&styles->pad_tiny, PAD_TINY);
 346:Drivers/lvgl/src/extra/themes/default/lv_theme_default.c **** 
 347:Drivers/lvgl/src/extra/themes/default/lv_theme_default.c ****     style_init_reset(&styles->bg_color_primary);
 348:Drivers/lvgl/src/extra/themes/default/lv_theme_default.c ****     lv_style_set_bg_color(&styles->bg_color_primary, theme.color_primary);
 349:Drivers/lvgl/src/extra/themes/default/lv_theme_default.c ****     lv_style_set_text_color(&styles->bg_color_primary, lv_color_white());
 350:Drivers/lvgl/src/extra/themes/default/lv_theme_default.c ****     lv_style_set_bg_opa(&styles->bg_color_primary, LV_OPA_COVER);
 351:Drivers/lvgl/src/extra/themes/default/lv_theme_default.c **** 
 352:Drivers/lvgl/src/extra/themes/default/lv_theme_default.c ****     style_init_reset(&styles->bg_color_primary_muted);
 353:Drivers/lvgl/src/extra/themes/default/lv_theme_default.c ****     lv_style_set_bg_color(&styles->bg_color_primary_muted, theme.color_primary);
 354:Drivers/lvgl/src/extra/themes/default/lv_theme_default.c ****     lv_style_set_text_color(&styles->bg_color_primary_muted, theme.color_primary);
 355:Drivers/lvgl/src/extra/themes/default/lv_theme_default.c ****     lv_style_set_bg_opa(&styles->bg_color_primary_muted, LV_OPA_20);
 356:Drivers/lvgl/src/extra/themes/default/lv_theme_default.c **** 
 357:Drivers/lvgl/src/extra/themes/default/lv_theme_default.c ****     style_init_reset(&styles->bg_color_secondary);
 358:Drivers/lvgl/src/extra/themes/default/lv_theme_default.c ****     lv_style_set_bg_color(&styles->bg_color_secondary, theme.color_secondary);
 359:Drivers/lvgl/src/extra/themes/default/lv_theme_default.c ****     lv_style_set_text_color(&styles->bg_color_secondary, lv_color_white());
 360:Drivers/lvgl/src/extra/themes/default/lv_theme_default.c ****     lv_style_set_bg_opa(&styles->bg_color_secondary, LV_OPA_COVER);
 361:Drivers/lvgl/src/extra/themes/default/lv_theme_default.c **** 
 362:Drivers/lvgl/src/extra/themes/default/lv_theme_default.c ****     style_init_reset(&styles->bg_color_secondary_muted);
 363:Drivers/lvgl/src/extra/themes/default/lv_theme_default.c ****     lv_style_set_bg_color(&styles->bg_color_secondary_muted, theme.color_secondary);
 364:Drivers/lvgl/src/extra/themes/default/lv_theme_default.c ****     lv_style_set_text_color(&styles->bg_color_secondary_muted, theme.color_secondary);
 365:Drivers/lvgl/src/extra/themes/default/lv_theme_default.c ****     lv_style_set_bg_opa(&styles->bg_color_secondary_muted, LV_OPA_20);
 366:Drivers/lvgl/src/extra/themes/default/lv_theme_default.c **** 
 367:Drivers/lvgl/src/extra/themes/default/lv_theme_default.c ****     style_init_reset(&styles->bg_color_grey);
 368:Drivers/lvgl/src/extra/themes/default/lv_theme_default.c ****     lv_style_set_bg_color(&styles->bg_color_grey, color_grey);
 369:Drivers/lvgl/src/extra/themes/default/lv_theme_default.c ****     lv_style_set_bg_opa(&styles->bg_color_grey, LV_OPA_COVER);
 370:Drivers/lvgl/src/extra/themes/default/lv_theme_default.c ****     lv_style_set_text_color(&styles->bg_color_grey, color_text);
 371:Drivers/lvgl/src/extra/themes/default/lv_theme_default.c **** 
 372:Drivers/lvgl/src/extra/themes/default/lv_theme_default.c ****     style_init_reset(&styles->bg_color_white);
ARM GAS  /var/folders/0z/tsy30v1j4xl4_7kw94k978ww0000gn/T//ccdBOSjy.s 			page 8


 373:Drivers/lvgl/src/extra/themes/default/lv_theme_default.c ****     lv_style_set_bg_color(&styles->bg_color_white, color_card);
 374:Drivers/lvgl/src/extra/themes/default/lv_theme_default.c ****     lv_style_set_bg_opa(&styles->bg_color_white, LV_OPA_COVER);
 375:Drivers/lvgl/src/extra/themes/default/lv_theme_default.c ****     lv_style_set_text_color(&styles->bg_color_white, color_text);
 376:Drivers/lvgl/src/extra/themes/default/lv_theme_default.c **** 
 377:Drivers/lvgl/src/extra/themes/default/lv_theme_default.c ****     style_init_reset(&styles->circle);
 378:Drivers/lvgl/src/extra/themes/default/lv_theme_default.c ****     lv_style_set_radius(&styles->circle, LV_RADIUS_CIRCLE);
 379:Drivers/lvgl/src/extra/themes/default/lv_theme_default.c **** 
 380:Drivers/lvgl/src/extra/themes/default/lv_theme_default.c ****     style_init_reset(&styles->no_radius);
 381:Drivers/lvgl/src/extra/themes/default/lv_theme_default.c ****     lv_style_set_radius(&styles->no_radius, 0);
 382:Drivers/lvgl/src/extra/themes/default/lv_theme_default.c **** 
 383:Drivers/lvgl/src/extra/themes/default/lv_theme_default.c **** #if LV_THEME_DEFAULT_GROW
 384:Drivers/lvgl/src/extra/themes/default/lv_theme_default.c ****     style_init_reset(&styles->grow);
 385:Drivers/lvgl/src/extra/themes/default/lv_theme_default.c ****     lv_style_set_transform_width(&styles->grow, lv_disp_dpx(theme.disp, 3));
 386:Drivers/lvgl/src/extra/themes/default/lv_theme_default.c ****     lv_style_set_transform_height(&styles->grow, lv_disp_dpx(theme.disp, 3));
 387:Drivers/lvgl/src/extra/themes/default/lv_theme_default.c **** #endif
 388:Drivers/lvgl/src/extra/themes/default/lv_theme_default.c **** 
 389:Drivers/lvgl/src/extra/themes/default/lv_theme_default.c ****     style_init_reset(&styles->knob);
 390:Drivers/lvgl/src/extra/themes/default/lv_theme_default.c ****     lv_style_set_bg_color(&styles->knob, theme.color_primary);
 391:Drivers/lvgl/src/extra/themes/default/lv_theme_default.c ****     lv_style_set_bg_opa(&styles->knob, LV_OPA_COVER);
 392:Drivers/lvgl/src/extra/themes/default/lv_theme_default.c ****     lv_style_set_pad_all(&styles->knob, lv_disp_dpx(theme.disp, 6));
 393:Drivers/lvgl/src/extra/themes/default/lv_theme_default.c ****     lv_style_set_radius(&styles->knob, LV_RADIUS_CIRCLE);
 394:Drivers/lvgl/src/extra/themes/default/lv_theme_default.c **** 
 395:Drivers/lvgl/src/extra/themes/default/lv_theme_default.c ****     style_init_reset(&styles->anim);
 396:Drivers/lvgl/src/extra/themes/default/lv_theme_default.c ****     lv_style_set_anim_time(&styles->anim, 200);
 397:Drivers/lvgl/src/extra/themes/default/lv_theme_default.c **** 
 398:Drivers/lvgl/src/extra/themes/default/lv_theme_default.c ****     style_init_reset(&styles->anim_fast);
 399:Drivers/lvgl/src/extra/themes/default/lv_theme_default.c ****     lv_style_set_anim_time(&styles->anim_fast, 120);
 400:Drivers/lvgl/src/extra/themes/default/lv_theme_default.c **** 
 401:Drivers/lvgl/src/extra/themes/default/lv_theme_default.c **** #if LV_USE_ARC
 402:Drivers/lvgl/src/extra/themes/default/lv_theme_default.c ****     style_init_reset(&styles->arc_indic);
 403:Drivers/lvgl/src/extra/themes/default/lv_theme_default.c ****     lv_style_set_arc_color(&styles->arc_indic, color_grey);
 404:Drivers/lvgl/src/extra/themes/default/lv_theme_default.c ****     lv_style_set_arc_width(&styles->arc_indic, lv_disp_dpx(theme.disp, 15));
 405:Drivers/lvgl/src/extra/themes/default/lv_theme_default.c ****     lv_style_set_arc_rounded(&styles->arc_indic, true);
 406:Drivers/lvgl/src/extra/themes/default/lv_theme_default.c **** 
 407:Drivers/lvgl/src/extra/themes/default/lv_theme_default.c ****     style_init_reset(&styles->arc_indic_primary);
 408:Drivers/lvgl/src/extra/themes/default/lv_theme_default.c ****     lv_style_set_arc_color(&styles->arc_indic_primary, theme.color_primary);
 409:Drivers/lvgl/src/extra/themes/default/lv_theme_default.c **** #endif
 410:Drivers/lvgl/src/extra/themes/default/lv_theme_default.c **** 
 411:Drivers/lvgl/src/extra/themes/default/lv_theme_default.c **** #if LV_USE_DROPDOWN
 412:Drivers/lvgl/src/extra/themes/default/lv_theme_default.c ****     style_init_reset(&styles->dropdown_list);
 413:Drivers/lvgl/src/extra/themes/default/lv_theme_default.c ****     lv_style_set_max_height(&styles->dropdown_list, LV_DPI_DEF * 2);
 414:Drivers/lvgl/src/extra/themes/default/lv_theme_default.c **** #endif
 415:Drivers/lvgl/src/extra/themes/default/lv_theme_default.c **** #if LV_USE_CHECKBOX
 416:Drivers/lvgl/src/extra/themes/default/lv_theme_default.c ****     style_init_reset(&styles->cb_marker);
 417:Drivers/lvgl/src/extra/themes/default/lv_theme_default.c ****     lv_style_set_pad_all(&styles->cb_marker, lv_disp_dpx(theme.disp, 3));
 418:Drivers/lvgl/src/extra/themes/default/lv_theme_default.c ****     lv_style_set_border_width(&styles->cb_marker, BORDER_WIDTH);
 419:Drivers/lvgl/src/extra/themes/default/lv_theme_default.c ****     lv_style_set_border_color(&styles->cb_marker, theme.color_primary);
 420:Drivers/lvgl/src/extra/themes/default/lv_theme_default.c ****     lv_style_set_bg_color(&styles->cb_marker, color_card);
 421:Drivers/lvgl/src/extra/themes/default/lv_theme_default.c ****     lv_style_set_bg_opa(&styles->cb_marker, LV_OPA_COVER);
 422:Drivers/lvgl/src/extra/themes/default/lv_theme_default.c ****     lv_style_set_radius(&styles->cb_marker, RADIUS_DEFAULT / 2);
 423:Drivers/lvgl/src/extra/themes/default/lv_theme_default.c **** 
 424:Drivers/lvgl/src/extra/themes/default/lv_theme_default.c ****     style_init_reset(&styles->cb_marker_checked);
 425:Drivers/lvgl/src/extra/themes/default/lv_theme_default.c ****     lv_style_set_bg_img_src(&styles->cb_marker_checked, LV_SYMBOL_OK);
 426:Drivers/lvgl/src/extra/themes/default/lv_theme_default.c ****     lv_style_set_text_color(&styles->cb_marker_checked, lv_color_white());
 427:Drivers/lvgl/src/extra/themes/default/lv_theme_default.c ****     lv_style_set_text_font(&styles->cb_marker_checked, theme.font_small);
 428:Drivers/lvgl/src/extra/themes/default/lv_theme_default.c **** #endif
 429:Drivers/lvgl/src/extra/themes/default/lv_theme_default.c **** 
ARM GAS  /var/folders/0z/tsy30v1j4xl4_7kw94k978ww0000gn/T//ccdBOSjy.s 			page 9


 430:Drivers/lvgl/src/extra/themes/default/lv_theme_default.c **** #if LV_USE_SWITCH
 431:Drivers/lvgl/src/extra/themes/default/lv_theme_default.c ****     style_init_reset(&styles->switch_knob);
 432:Drivers/lvgl/src/extra/themes/default/lv_theme_default.c ****     lv_style_set_pad_all(&styles->switch_knob, - lv_disp_dpx(theme.disp, 4));
 433:Drivers/lvgl/src/extra/themes/default/lv_theme_default.c ****     lv_style_set_bg_color(&styles->switch_knob, lv_color_white());
 434:Drivers/lvgl/src/extra/themes/default/lv_theme_default.c **** #endif
 435:Drivers/lvgl/src/extra/themes/default/lv_theme_default.c **** 
 436:Drivers/lvgl/src/extra/themes/default/lv_theme_default.c **** #if LV_USE_LINE
 437:Drivers/lvgl/src/extra/themes/default/lv_theme_default.c ****     style_init_reset(&styles->line);
 438:Drivers/lvgl/src/extra/themes/default/lv_theme_default.c ****     lv_style_set_line_width(&styles->line, 1);
 439:Drivers/lvgl/src/extra/themes/default/lv_theme_default.c ****     lv_style_set_line_color(&styles->line, color_text);
 440:Drivers/lvgl/src/extra/themes/default/lv_theme_default.c **** #endif
 441:Drivers/lvgl/src/extra/themes/default/lv_theme_default.c **** 
 442:Drivers/lvgl/src/extra/themes/default/lv_theme_default.c **** #if LV_USE_CHART
 443:Drivers/lvgl/src/extra/themes/default/lv_theme_default.c ****     style_init_reset(&styles->chart_bg);
 444:Drivers/lvgl/src/extra/themes/default/lv_theme_default.c ****     lv_style_set_border_post(&styles->chart_bg, false);
 445:Drivers/lvgl/src/extra/themes/default/lv_theme_default.c ****     lv_style_set_pad_column(&styles->chart_bg, lv_disp_dpx(theme.disp, 10));
 446:Drivers/lvgl/src/extra/themes/default/lv_theme_default.c ****     lv_style_set_line_color(&styles->chart_bg, color_grey);
 447:Drivers/lvgl/src/extra/themes/default/lv_theme_default.c **** 
 448:Drivers/lvgl/src/extra/themes/default/lv_theme_default.c ****     style_init_reset(&styles->chart_series);
 449:Drivers/lvgl/src/extra/themes/default/lv_theme_default.c ****     lv_style_set_line_width(&styles->chart_series, lv_disp_dpx(theme.disp, 3));
 450:Drivers/lvgl/src/extra/themes/default/lv_theme_default.c ****     lv_style_set_radius(&styles->chart_series, lv_disp_dpx(theme.disp, 3));
 451:Drivers/lvgl/src/extra/themes/default/lv_theme_default.c ****     lv_style_set_size(&styles->chart_series, lv_disp_dpx(theme.disp, 8));
 452:Drivers/lvgl/src/extra/themes/default/lv_theme_default.c ****     lv_style_set_pad_column(&styles->chart_series, lv_disp_dpx(theme.disp, 2));
 453:Drivers/lvgl/src/extra/themes/default/lv_theme_default.c **** 
 454:Drivers/lvgl/src/extra/themes/default/lv_theme_default.c ****     style_init_reset(&styles->chart_indic);
 455:Drivers/lvgl/src/extra/themes/default/lv_theme_default.c ****     lv_style_set_radius(&styles->chart_indic, LV_RADIUS_CIRCLE);
 456:Drivers/lvgl/src/extra/themes/default/lv_theme_default.c ****     lv_style_set_size(&styles->chart_indic, lv_disp_dpx(theme.disp, 8));
 457:Drivers/lvgl/src/extra/themes/default/lv_theme_default.c ****     lv_style_set_bg_color(&styles->chart_indic, theme.color_primary);
 458:Drivers/lvgl/src/extra/themes/default/lv_theme_default.c ****     lv_style_set_bg_opa(&styles->chart_indic, LV_OPA_COVER);
 459:Drivers/lvgl/src/extra/themes/default/lv_theme_default.c **** 
 460:Drivers/lvgl/src/extra/themes/default/lv_theme_default.c ****     style_init_reset(&styles->chart_ticks);
 461:Drivers/lvgl/src/extra/themes/default/lv_theme_default.c ****     lv_style_set_line_width(&styles->chart_ticks, lv_disp_dpx(theme.disp, 1));
 462:Drivers/lvgl/src/extra/themes/default/lv_theme_default.c ****     lv_style_set_line_color(&styles->chart_ticks, color_text);
 463:Drivers/lvgl/src/extra/themes/default/lv_theme_default.c ****     lv_style_set_pad_all(&styles->chart_ticks, lv_disp_dpx(theme.disp, 2));
 464:Drivers/lvgl/src/extra/themes/default/lv_theme_default.c ****     lv_style_set_text_color(&styles->chart_ticks, lv_palette_main(LV_PALETTE_GREY));
 465:Drivers/lvgl/src/extra/themes/default/lv_theme_default.c **** #endif
 466:Drivers/lvgl/src/extra/themes/default/lv_theme_default.c **** 
 467:Drivers/lvgl/src/extra/themes/default/lv_theme_default.c **** #if LV_USE_MENU
 468:Drivers/lvgl/src/extra/themes/default/lv_theme_default.c ****     style_init_reset(&styles->menu_bg);
 469:Drivers/lvgl/src/extra/themes/default/lv_theme_default.c ****     lv_style_set_pad_all(&styles->menu_bg, 0);
 470:Drivers/lvgl/src/extra/themes/default/lv_theme_default.c ****     lv_style_set_pad_gap(&styles->menu_bg, 0);
 471:Drivers/lvgl/src/extra/themes/default/lv_theme_default.c ****     lv_style_set_radius(&styles->menu_bg, 0);
 472:Drivers/lvgl/src/extra/themes/default/lv_theme_default.c ****     lv_style_set_clip_corner(&styles->menu_bg, true);
 473:Drivers/lvgl/src/extra/themes/default/lv_theme_default.c ****     lv_style_set_border_side(&styles->menu_bg, LV_BORDER_SIDE_NONE);
 474:Drivers/lvgl/src/extra/themes/default/lv_theme_default.c **** 
 475:Drivers/lvgl/src/extra/themes/default/lv_theme_default.c ****     style_init_reset(&styles->menu_section);
 476:Drivers/lvgl/src/extra/themes/default/lv_theme_default.c ****     lv_style_set_radius(&styles->menu_section, RADIUS_DEFAULT);
 477:Drivers/lvgl/src/extra/themes/default/lv_theme_default.c ****     lv_style_set_clip_corner(&styles->menu_section, true);
 478:Drivers/lvgl/src/extra/themes/default/lv_theme_default.c ****     lv_style_set_bg_opa(&styles->menu_section, LV_OPA_COVER);
 479:Drivers/lvgl/src/extra/themes/default/lv_theme_default.c ****     lv_style_set_bg_color(&styles->menu_section, color_card);
 480:Drivers/lvgl/src/extra/themes/default/lv_theme_default.c ****     lv_style_set_text_color(&styles->menu_section, color_text);
 481:Drivers/lvgl/src/extra/themes/default/lv_theme_default.c **** 
 482:Drivers/lvgl/src/extra/themes/default/lv_theme_default.c ****     style_init_reset(&styles->menu_cont);
 483:Drivers/lvgl/src/extra/themes/default/lv_theme_default.c ****     lv_style_set_pad_hor(&styles->menu_cont, PAD_SMALL);
 484:Drivers/lvgl/src/extra/themes/default/lv_theme_default.c ****     lv_style_set_pad_ver(&styles->menu_cont, PAD_SMALL);
 485:Drivers/lvgl/src/extra/themes/default/lv_theme_default.c ****     lv_style_set_pad_gap(&styles->menu_cont, PAD_SMALL);
 486:Drivers/lvgl/src/extra/themes/default/lv_theme_default.c ****     lv_style_set_border_width(&styles->menu_cont, lv_disp_dpx(theme.disp, 1));
ARM GAS  /var/folders/0z/tsy30v1j4xl4_7kw94k978ww0000gn/T//ccdBOSjy.s 			page 10


 487:Drivers/lvgl/src/extra/themes/default/lv_theme_default.c ****     lv_style_set_border_opa(&styles->menu_cont, LV_OPA_10);
 488:Drivers/lvgl/src/extra/themes/default/lv_theme_default.c ****     lv_style_set_border_color(&styles->menu_cont, color_text);
 489:Drivers/lvgl/src/extra/themes/default/lv_theme_default.c ****     lv_style_set_border_side(&styles->menu_cont, LV_BORDER_SIDE_NONE);
 490:Drivers/lvgl/src/extra/themes/default/lv_theme_default.c **** 
 491:Drivers/lvgl/src/extra/themes/default/lv_theme_default.c ****     style_init_reset(&styles->menu_sidebar_cont);
 492:Drivers/lvgl/src/extra/themes/default/lv_theme_default.c ****     lv_style_set_pad_all(&styles->menu_sidebar_cont, 0);
 493:Drivers/lvgl/src/extra/themes/default/lv_theme_default.c ****     lv_style_set_pad_gap(&styles->menu_sidebar_cont, 0);
 494:Drivers/lvgl/src/extra/themes/default/lv_theme_default.c ****     lv_style_set_border_width(&styles->menu_sidebar_cont, lv_disp_dpx(theme.disp, 1));
 495:Drivers/lvgl/src/extra/themes/default/lv_theme_default.c ****     lv_style_set_border_opa(&styles->menu_sidebar_cont, LV_OPA_10);
 496:Drivers/lvgl/src/extra/themes/default/lv_theme_default.c ****     lv_style_set_border_color(&styles->menu_sidebar_cont, color_text);
 497:Drivers/lvgl/src/extra/themes/default/lv_theme_default.c ****     lv_style_set_border_side(&styles->menu_sidebar_cont, LV_BORDER_SIDE_RIGHT);
 498:Drivers/lvgl/src/extra/themes/default/lv_theme_default.c **** 
 499:Drivers/lvgl/src/extra/themes/default/lv_theme_default.c ****     style_init_reset(&styles->menu_main_cont);
 500:Drivers/lvgl/src/extra/themes/default/lv_theme_default.c ****     lv_style_set_pad_all(&styles->menu_main_cont, 0);
 501:Drivers/lvgl/src/extra/themes/default/lv_theme_default.c ****     lv_style_set_pad_gap(&styles->menu_main_cont, 0);
 502:Drivers/lvgl/src/extra/themes/default/lv_theme_default.c **** 
 503:Drivers/lvgl/src/extra/themes/default/lv_theme_default.c ****     style_init_reset(&styles->menu_header_cont);
 504:Drivers/lvgl/src/extra/themes/default/lv_theme_default.c ****     lv_style_set_pad_hor(&styles->menu_header_cont, PAD_SMALL);
 505:Drivers/lvgl/src/extra/themes/default/lv_theme_default.c ****     lv_style_set_pad_ver(&styles->menu_header_cont, PAD_TINY);
 506:Drivers/lvgl/src/extra/themes/default/lv_theme_default.c ****     lv_style_set_pad_gap(&styles->menu_header_cont, PAD_SMALL);
 507:Drivers/lvgl/src/extra/themes/default/lv_theme_default.c **** 
 508:Drivers/lvgl/src/extra/themes/default/lv_theme_default.c ****     style_init_reset(&styles->menu_header_btn);
 509:Drivers/lvgl/src/extra/themes/default/lv_theme_default.c ****     lv_style_set_pad_hor(&styles->menu_header_btn, PAD_TINY);
 510:Drivers/lvgl/src/extra/themes/default/lv_theme_default.c ****     lv_style_set_pad_ver(&styles->menu_header_btn, PAD_TINY);
 511:Drivers/lvgl/src/extra/themes/default/lv_theme_default.c ****     lv_style_set_shadow_opa(&styles->menu_header_btn, LV_OPA_TRANSP);
 512:Drivers/lvgl/src/extra/themes/default/lv_theme_default.c ****     lv_style_set_bg_opa(&styles->menu_header_btn, LV_OPA_TRANSP);
 513:Drivers/lvgl/src/extra/themes/default/lv_theme_default.c ****     lv_style_set_text_color(&styles->menu_header_btn, color_text);
 514:Drivers/lvgl/src/extra/themes/default/lv_theme_default.c **** 
 515:Drivers/lvgl/src/extra/themes/default/lv_theme_default.c ****     style_init_reset(&styles->menu_page);
 516:Drivers/lvgl/src/extra/themes/default/lv_theme_default.c ****     lv_style_set_pad_hor(&styles->menu_page, 0);
 517:Drivers/lvgl/src/extra/themes/default/lv_theme_default.c ****     lv_style_set_pad_gap(&styles->menu_page, 0);
 518:Drivers/lvgl/src/extra/themes/default/lv_theme_default.c **** 
 519:Drivers/lvgl/src/extra/themes/default/lv_theme_default.c ****     style_init_reset(&styles->menu_pressed);
 520:Drivers/lvgl/src/extra/themes/default/lv_theme_default.c ****     lv_style_set_bg_opa(&styles->menu_pressed, LV_OPA_20);
 521:Drivers/lvgl/src/extra/themes/default/lv_theme_default.c ****     lv_style_set_bg_color(&styles->menu_pressed, lv_palette_main(LV_PALETTE_GREY));
 522:Drivers/lvgl/src/extra/themes/default/lv_theme_default.c **** 
 523:Drivers/lvgl/src/extra/themes/default/lv_theme_default.c ****     style_init_reset(&styles->menu_separator);
 524:Drivers/lvgl/src/extra/themes/default/lv_theme_default.c ****     lv_style_set_bg_opa(&styles->menu_separator, LV_OPA_TRANSP);
 525:Drivers/lvgl/src/extra/themes/default/lv_theme_default.c ****     lv_style_set_pad_ver(&styles->menu_separator, PAD_TINY);
 526:Drivers/lvgl/src/extra/themes/default/lv_theme_default.c **** #endif
 527:Drivers/lvgl/src/extra/themes/default/lv_theme_default.c **** 
 528:Drivers/lvgl/src/extra/themes/default/lv_theme_default.c **** #if LV_USE_METER
 529:Drivers/lvgl/src/extra/themes/default/lv_theme_default.c ****     style_init_reset(&styles->meter_marker);
 530:Drivers/lvgl/src/extra/themes/default/lv_theme_default.c ****     lv_style_set_line_width(&styles->meter_marker, lv_disp_dpx(theme.disp, 5));
 531:Drivers/lvgl/src/extra/themes/default/lv_theme_default.c ****     lv_style_set_line_color(&styles->meter_marker, color_text);
 532:Drivers/lvgl/src/extra/themes/default/lv_theme_default.c ****     lv_style_set_size(&styles->meter_marker, lv_disp_dpx(theme.disp, 20));
 533:Drivers/lvgl/src/extra/themes/default/lv_theme_default.c ****     lv_style_set_pad_left(&styles->meter_marker, lv_disp_dpx(theme.disp, 15));
 534:Drivers/lvgl/src/extra/themes/default/lv_theme_default.c **** 
 535:Drivers/lvgl/src/extra/themes/default/lv_theme_default.c ****     style_init_reset(&styles->meter_indic);
 536:Drivers/lvgl/src/extra/themes/default/lv_theme_default.c ****     lv_style_set_radius(&styles->meter_indic, LV_RADIUS_CIRCLE);
 537:Drivers/lvgl/src/extra/themes/default/lv_theme_default.c ****     lv_style_set_bg_color(&styles->meter_indic, color_text);
 538:Drivers/lvgl/src/extra/themes/default/lv_theme_default.c ****     lv_style_set_bg_opa(&styles->meter_indic, LV_OPA_COVER);
 539:Drivers/lvgl/src/extra/themes/default/lv_theme_default.c ****     lv_style_set_size(&styles->meter_indic, lv_disp_dpx(theme.disp, 15));
 540:Drivers/lvgl/src/extra/themes/default/lv_theme_default.c **** #endif
 541:Drivers/lvgl/src/extra/themes/default/lv_theme_default.c **** 
 542:Drivers/lvgl/src/extra/themes/default/lv_theme_default.c **** #if LV_USE_TABLE
 543:Drivers/lvgl/src/extra/themes/default/lv_theme_default.c ****     style_init_reset(&styles->table_cell);
ARM GAS  /var/folders/0z/tsy30v1j4xl4_7kw94k978ww0000gn/T//ccdBOSjy.s 			page 11


 544:Drivers/lvgl/src/extra/themes/default/lv_theme_default.c ****     lv_style_set_border_width(&styles->table_cell, lv_disp_dpx(theme.disp, 1));
 545:Drivers/lvgl/src/extra/themes/default/lv_theme_default.c ****     lv_style_set_border_color(&styles->table_cell, color_grey);
 546:Drivers/lvgl/src/extra/themes/default/lv_theme_default.c ****     lv_style_set_border_side(&styles->table_cell, LV_BORDER_SIDE_TOP | LV_BORDER_SIDE_BOTTOM);
 547:Drivers/lvgl/src/extra/themes/default/lv_theme_default.c **** #endif
 548:Drivers/lvgl/src/extra/themes/default/lv_theme_default.c **** 
 549:Drivers/lvgl/src/extra/themes/default/lv_theme_default.c **** #if LV_USE_TEXTAREA
 550:Drivers/lvgl/src/extra/themes/default/lv_theme_default.c ****     style_init_reset(&styles->ta_cursor);
 551:Drivers/lvgl/src/extra/themes/default/lv_theme_default.c ****     lv_style_set_border_color(&styles->ta_cursor, color_text);
 552:Drivers/lvgl/src/extra/themes/default/lv_theme_default.c ****     lv_style_set_border_width(&styles->ta_cursor, lv_disp_dpx(theme.disp, 2));
 553:Drivers/lvgl/src/extra/themes/default/lv_theme_default.c ****     lv_style_set_pad_left(&styles->ta_cursor, - lv_disp_dpx(theme.disp, 1));
 554:Drivers/lvgl/src/extra/themes/default/lv_theme_default.c ****     lv_style_set_border_side(&styles->ta_cursor, LV_BORDER_SIDE_LEFT);
 555:Drivers/lvgl/src/extra/themes/default/lv_theme_default.c ****     lv_style_set_anim_time(&styles->ta_cursor, 400);
 556:Drivers/lvgl/src/extra/themes/default/lv_theme_default.c **** 
 557:Drivers/lvgl/src/extra/themes/default/lv_theme_default.c ****     style_init_reset(&styles->ta_placeholder);
 558:Drivers/lvgl/src/extra/themes/default/lv_theme_default.c ****     lv_style_set_text_color(&styles->ta_placeholder, (theme.flags & MODE_DARK) ? lv_palette_darken(
 559:Drivers/lvgl/src/extra/themes/default/lv_theme_default.c ****                                                                                                    
 560:Drivers/lvgl/src/extra/themes/default/lv_theme_default.c **** #endif
 561:Drivers/lvgl/src/extra/themes/default/lv_theme_default.c **** 
 562:Drivers/lvgl/src/extra/themes/default/lv_theme_default.c **** #if LV_USE_CALENDAR
 563:Drivers/lvgl/src/extra/themes/default/lv_theme_default.c ****     style_init_reset(&styles->calendar_btnm_bg);
 564:Drivers/lvgl/src/extra/themes/default/lv_theme_default.c ****     lv_style_set_pad_all(&styles->calendar_btnm_bg, PAD_SMALL);
 565:Drivers/lvgl/src/extra/themes/default/lv_theme_default.c ****     lv_style_set_pad_gap(&styles->calendar_btnm_bg, PAD_SMALL / 2);
 566:Drivers/lvgl/src/extra/themes/default/lv_theme_default.c **** 
 567:Drivers/lvgl/src/extra/themes/default/lv_theme_default.c ****     style_init_reset(&styles->calendar_btnm_day);
 568:Drivers/lvgl/src/extra/themes/default/lv_theme_default.c ****     lv_style_set_border_width(&styles->calendar_btnm_day, lv_disp_dpx(theme.disp, 1));
 569:Drivers/lvgl/src/extra/themes/default/lv_theme_default.c ****     lv_style_set_border_color(&styles->calendar_btnm_day, color_grey);
 570:Drivers/lvgl/src/extra/themes/default/lv_theme_default.c ****     lv_style_set_bg_color(&styles->calendar_btnm_day, color_card);
 571:Drivers/lvgl/src/extra/themes/default/lv_theme_default.c ****     lv_style_set_bg_opa(&styles->calendar_btnm_day, LV_OPA_20);
 572:Drivers/lvgl/src/extra/themes/default/lv_theme_default.c **** 
 573:Drivers/lvgl/src/extra/themes/default/lv_theme_default.c ****     style_init_reset(&styles->calendar_header);
 574:Drivers/lvgl/src/extra/themes/default/lv_theme_default.c ****     lv_style_set_pad_hor(&styles->calendar_header, PAD_SMALL);
 575:Drivers/lvgl/src/extra/themes/default/lv_theme_default.c ****     lv_style_set_pad_top(&styles->calendar_header, PAD_SMALL);
 576:Drivers/lvgl/src/extra/themes/default/lv_theme_default.c ****     lv_style_set_pad_bottom(&styles->calendar_header, PAD_TINY);
 577:Drivers/lvgl/src/extra/themes/default/lv_theme_default.c ****     lv_style_set_pad_gap(&styles->calendar_header, PAD_SMALL);
 578:Drivers/lvgl/src/extra/themes/default/lv_theme_default.c **** #endif
 579:Drivers/lvgl/src/extra/themes/default/lv_theme_default.c **** 
 580:Drivers/lvgl/src/extra/themes/default/lv_theme_default.c **** #if LV_USE_COLORWHEEL
 581:Drivers/lvgl/src/extra/themes/default/lv_theme_default.c ****     style_init_reset(&styles->colorwheel_main);
 582:Drivers/lvgl/src/extra/themes/default/lv_theme_default.c ****     lv_style_set_arc_width(&styles->colorwheel_main, lv_disp_dpx(theme.disp, 10));
 583:Drivers/lvgl/src/extra/themes/default/lv_theme_default.c **** #endif
 584:Drivers/lvgl/src/extra/themes/default/lv_theme_default.c **** 
 585:Drivers/lvgl/src/extra/themes/default/lv_theme_default.c **** #if LV_USE_MSGBOX
 586:Drivers/lvgl/src/extra/themes/default/lv_theme_default.c ****     /*To add space for for the button shadow*/
 587:Drivers/lvgl/src/extra/themes/default/lv_theme_default.c ****     style_init_reset(&styles->msgbox_btn_bg);
 588:Drivers/lvgl/src/extra/themes/default/lv_theme_default.c ****     lv_style_set_pad_all(&styles->msgbox_btn_bg, lv_disp_dpx(theme.disp, 4));
 589:Drivers/lvgl/src/extra/themes/default/lv_theme_default.c **** 
 590:Drivers/lvgl/src/extra/themes/default/lv_theme_default.c ****     style_init_reset(&styles->msgbox_bg);
 591:Drivers/lvgl/src/extra/themes/default/lv_theme_default.c ****     lv_style_set_max_width(&styles->msgbox_bg, lv_pct(100));
 592:Drivers/lvgl/src/extra/themes/default/lv_theme_default.c **** 
 593:Drivers/lvgl/src/extra/themes/default/lv_theme_default.c ****     style_init_reset(&styles->msgbox_backdrop_bg);
 594:Drivers/lvgl/src/extra/themes/default/lv_theme_default.c ****     lv_style_set_bg_color(&styles->msgbox_backdrop_bg, lv_palette_main(LV_PALETTE_GREY));
 595:Drivers/lvgl/src/extra/themes/default/lv_theme_default.c ****     lv_style_set_bg_opa(&styles->msgbox_backdrop_bg, LV_OPA_50);
 596:Drivers/lvgl/src/extra/themes/default/lv_theme_default.c **** #endif
 597:Drivers/lvgl/src/extra/themes/default/lv_theme_default.c **** #if LV_USE_KEYBOARD
 598:Drivers/lvgl/src/extra/themes/default/lv_theme_default.c ****     style_init_reset(&styles->keyboard_btn_bg);
 599:Drivers/lvgl/src/extra/themes/default/lv_theme_default.c ****     lv_style_set_shadow_width(&styles->keyboard_btn_bg, 0);
 600:Drivers/lvgl/src/extra/themes/default/lv_theme_default.c ****     lv_style_set_radius(&styles->keyboard_btn_bg, disp_size == DISP_SMALL ? RADIUS_DEFAULT / 2 : RA
ARM GAS  /var/folders/0z/tsy30v1j4xl4_7kw94k978ww0000gn/T//ccdBOSjy.s 			page 12


 601:Drivers/lvgl/src/extra/themes/default/lv_theme_default.c **** #endif
 602:Drivers/lvgl/src/extra/themes/default/lv_theme_default.c **** 
 603:Drivers/lvgl/src/extra/themes/default/lv_theme_default.c **** #if LV_USE_TABVIEW
 604:Drivers/lvgl/src/extra/themes/default/lv_theme_default.c ****     style_init_reset(&styles->tab_btn);
 605:Drivers/lvgl/src/extra/themes/default/lv_theme_default.c ****     lv_style_set_border_color(&styles->tab_btn, theme.color_primary);
 606:Drivers/lvgl/src/extra/themes/default/lv_theme_default.c ****     lv_style_set_border_width(&styles->tab_btn, BORDER_WIDTH * 2);
 607:Drivers/lvgl/src/extra/themes/default/lv_theme_default.c ****     lv_style_set_border_side(&styles->tab_btn, LV_BORDER_SIDE_BOTTOM);
 608:Drivers/lvgl/src/extra/themes/default/lv_theme_default.c **** 
 609:Drivers/lvgl/src/extra/themes/default/lv_theme_default.c ****     style_init_reset(&styles->tab_bg_focus);
 610:Drivers/lvgl/src/extra/themes/default/lv_theme_default.c ****     lv_style_set_outline_pad(&styles->tab_bg_focus, -BORDER_WIDTH);
 611:Drivers/lvgl/src/extra/themes/default/lv_theme_default.c **** #endif
 612:Drivers/lvgl/src/extra/themes/default/lv_theme_default.c **** 
 613:Drivers/lvgl/src/extra/themes/default/lv_theme_default.c **** #if LV_USE_LIST
 614:Drivers/lvgl/src/extra/themes/default/lv_theme_default.c ****     style_init_reset(&styles->list_bg);
 615:Drivers/lvgl/src/extra/themes/default/lv_theme_default.c ****     lv_style_set_pad_hor(&styles->list_bg, PAD_DEF);
 616:Drivers/lvgl/src/extra/themes/default/lv_theme_default.c ****     lv_style_set_pad_ver(&styles->list_bg, 0);
 617:Drivers/lvgl/src/extra/themes/default/lv_theme_default.c ****     lv_style_set_pad_gap(&styles->list_bg, 0);
 618:Drivers/lvgl/src/extra/themes/default/lv_theme_default.c ****     lv_style_set_clip_corner(&styles->list_bg, true);
 619:Drivers/lvgl/src/extra/themes/default/lv_theme_default.c **** 
 620:Drivers/lvgl/src/extra/themes/default/lv_theme_default.c ****     style_init_reset(&styles->list_btn);
 621:Drivers/lvgl/src/extra/themes/default/lv_theme_default.c ****     lv_style_set_border_width(&styles->list_btn, lv_disp_dpx(theme.disp, 1));
 622:Drivers/lvgl/src/extra/themes/default/lv_theme_default.c ****     lv_style_set_border_color(&styles->list_btn, color_grey);
 623:Drivers/lvgl/src/extra/themes/default/lv_theme_default.c ****     lv_style_set_border_side(&styles->list_btn, LV_BORDER_SIDE_BOTTOM);
 624:Drivers/lvgl/src/extra/themes/default/lv_theme_default.c ****     lv_style_set_pad_all(&styles->list_btn, PAD_SMALL);
 625:Drivers/lvgl/src/extra/themes/default/lv_theme_default.c ****     lv_style_set_pad_column(&styles->list_btn, PAD_SMALL);
 626:Drivers/lvgl/src/extra/themes/default/lv_theme_default.c **** 
 627:Drivers/lvgl/src/extra/themes/default/lv_theme_default.c ****     style_init_reset(&styles->list_item_grow);
 628:Drivers/lvgl/src/extra/themes/default/lv_theme_default.c ****     lv_style_set_transform_width(&styles->list_item_grow, PAD_DEF);
 629:Drivers/lvgl/src/extra/themes/default/lv_theme_default.c **** #endif
 630:Drivers/lvgl/src/extra/themes/default/lv_theme_default.c **** 
 631:Drivers/lvgl/src/extra/themes/default/lv_theme_default.c **** 
 632:Drivers/lvgl/src/extra/themes/default/lv_theme_default.c **** #if LV_USE_LED
 633:Drivers/lvgl/src/extra/themes/default/lv_theme_default.c ****     style_init_reset(&styles->led);
 634:Drivers/lvgl/src/extra/themes/default/lv_theme_default.c ****     lv_style_set_bg_opa(&styles->led, LV_OPA_COVER);
 635:Drivers/lvgl/src/extra/themes/default/lv_theme_default.c ****     lv_style_set_bg_color(&styles->led, lv_color_white());
 636:Drivers/lvgl/src/extra/themes/default/lv_theme_default.c ****     lv_style_set_bg_grad_color(&styles->led, lv_palette_main(LV_PALETTE_GREY));
 637:Drivers/lvgl/src/extra/themes/default/lv_theme_default.c ****     lv_style_set_radius(&styles->led, LV_RADIUS_CIRCLE);
 638:Drivers/lvgl/src/extra/themes/default/lv_theme_default.c ****     lv_style_set_shadow_width(&styles->led, lv_disp_dpx(theme.disp, 15));
 639:Drivers/lvgl/src/extra/themes/default/lv_theme_default.c ****     lv_style_set_shadow_color(&styles->led, lv_color_white());
 640:Drivers/lvgl/src/extra/themes/default/lv_theme_default.c ****     lv_style_set_shadow_spread(&styles->led, lv_disp_dpx(theme.disp, 5));
 641:Drivers/lvgl/src/extra/themes/default/lv_theme_default.c **** #endif
 642:Drivers/lvgl/src/extra/themes/default/lv_theme_default.c **** }
 643:Drivers/lvgl/src/extra/themes/default/lv_theme_default.c **** 
 644:Drivers/lvgl/src/extra/themes/default/lv_theme_default.c **** /**********************
 645:Drivers/lvgl/src/extra/themes/default/lv_theme_default.c ****  *   GLOBAL FUNCTIONS
 646:Drivers/lvgl/src/extra/themes/default/lv_theme_default.c ****  **********************/
 647:Drivers/lvgl/src/extra/themes/default/lv_theme_default.c **** 
 648:Drivers/lvgl/src/extra/themes/default/lv_theme_default.c **** lv_theme_t * lv_theme_default_init(lv_disp_t * disp, lv_color_t color_primary, lv_color_t color_sec
 649:Drivers/lvgl/src/extra/themes/default/lv_theme_default.c ****                                    const lv_font_t * font)
 650:Drivers/lvgl/src/extra/themes/default/lv_theme_default.c **** {
 651:Drivers/lvgl/src/extra/themes/default/lv_theme_default.c **** 
 652:Drivers/lvgl/src/extra/themes/default/lv_theme_default.c ****     /*This trick is required only to avoid the garbage collection of
 653:Drivers/lvgl/src/extra/themes/default/lv_theme_default.c ****      *styles' data if LVGL is used in a binding (e.g. Micropython)
 654:Drivers/lvgl/src/extra/themes/default/lv_theme_default.c ****      *In a general case styles could be in simple `static lv_style_t my_style...` variables*/
 655:Drivers/lvgl/src/extra/themes/default/lv_theme_default.c ****     if(!lv_theme_default_is_inited()) {
 656:Drivers/lvgl/src/extra/themes/default/lv_theme_default.c ****         inited = false;
 657:Drivers/lvgl/src/extra/themes/default/lv_theme_default.c ****         LV_GC_ROOT(_lv_theme_default_styles) = lv_mem_alloc(sizeof(my_theme_styles_t));
ARM GAS  /var/folders/0z/tsy30v1j4xl4_7kw94k978ww0000gn/T//ccdBOSjy.s 			page 13


 658:Drivers/lvgl/src/extra/themes/default/lv_theme_default.c ****         styles = (my_theme_styles_t *)LV_GC_ROOT(_lv_theme_default_styles);
 659:Drivers/lvgl/src/extra/themes/default/lv_theme_default.c ****     }
 660:Drivers/lvgl/src/extra/themes/default/lv_theme_default.c **** 
 661:Drivers/lvgl/src/extra/themes/default/lv_theme_default.c ****     if(LV_HOR_RES <= 320) disp_size = DISP_SMALL;
 662:Drivers/lvgl/src/extra/themes/default/lv_theme_default.c ****     else if(LV_HOR_RES < 720) disp_size = DISP_MEDIUM;
 663:Drivers/lvgl/src/extra/themes/default/lv_theme_default.c ****     else disp_size = DISP_LARGE;
 664:Drivers/lvgl/src/extra/themes/default/lv_theme_default.c **** 
 665:Drivers/lvgl/src/extra/themes/default/lv_theme_default.c ****     theme.disp = disp;
 666:Drivers/lvgl/src/extra/themes/default/lv_theme_default.c ****     theme.color_primary = color_primary;
 667:Drivers/lvgl/src/extra/themes/default/lv_theme_default.c ****     theme.color_secondary = color_secondary;
 668:Drivers/lvgl/src/extra/themes/default/lv_theme_default.c ****     theme.font_small = font;
 669:Drivers/lvgl/src/extra/themes/default/lv_theme_default.c ****     theme.font_normal = font;
 670:Drivers/lvgl/src/extra/themes/default/lv_theme_default.c ****     theme.font_large = font;
 671:Drivers/lvgl/src/extra/themes/default/lv_theme_default.c ****     theme.apply_cb = theme_apply;
 672:Drivers/lvgl/src/extra/themes/default/lv_theme_default.c ****     theme.flags = dark ? MODE_DARK : 0;
 673:Drivers/lvgl/src/extra/themes/default/lv_theme_default.c **** 
 674:Drivers/lvgl/src/extra/themes/default/lv_theme_default.c ****     style_init();
 675:Drivers/lvgl/src/extra/themes/default/lv_theme_default.c **** 
 676:Drivers/lvgl/src/extra/themes/default/lv_theme_default.c ****     if(disp == NULL || lv_disp_get_theme(disp) == &theme) lv_obj_report_style_change(NULL);
 677:Drivers/lvgl/src/extra/themes/default/lv_theme_default.c **** 
 678:Drivers/lvgl/src/extra/themes/default/lv_theme_default.c ****     inited = true;
 679:Drivers/lvgl/src/extra/themes/default/lv_theme_default.c **** 
 680:Drivers/lvgl/src/extra/themes/default/lv_theme_default.c ****     return (lv_theme_t *)&theme;
 681:Drivers/lvgl/src/extra/themes/default/lv_theme_default.c **** }
 682:Drivers/lvgl/src/extra/themes/default/lv_theme_default.c **** 
 683:Drivers/lvgl/src/extra/themes/default/lv_theme_default.c **** lv_theme_t * lv_theme_default_get(void)
 684:Drivers/lvgl/src/extra/themes/default/lv_theme_default.c **** {
 685:Drivers/lvgl/src/extra/themes/default/lv_theme_default.c ****     if(!lv_theme_default_is_inited()) {
 686:Drivers/lvgl/src/extra/themes/default/lv_theme_default.c ****         return NULL;
 687:Drivers/lvgl/src/extra/themes/default/lv_theme_default.c ****     }
 688:Drivers/lvgl/src/extra/themes/default/lv_theme_default.c **** 
 689:Drivers/lvgl/src/extra/themes/default/lv_theme_default.c ****     return (lv_theme_t *)&theme;
 690:Drivers/lvgl/src/extra/themes/default/lv_theme_default.c **** }
 691:Drivers/lvgl/src/extra/themes/default/lv_theme_default.c **** 
 692:Drivers/lvgl/src/extra/themes/default/lv_theme_default.c **** bool lv_theme_default_is_inited(void)
 693:Drivers/lvgl/src/extra/themes/default/lv_theme_default.c **** {
 694:Drivers/lvgl/src/extra/themes/default/lv_theme_default.c ****     return  LV_GC_ROOT(_lv_theme_default_styles) == NULL ? false : true;
 695:Drivers/lvgl/src/extra/themes/default/lv_theme_default.c **** }
 696:Drivers/lvgl/src/extra/themes/default/lv_theme_default.c **** 
 697:Drivers/lvgl/src/extra/themes/default/lv_theme_default.c **** 
 698:Drivers/lvgl/src/extra/themes/default/lv_theme_default.c **** static void theme_apply(lv_theme_t * th, lv_obj_t * obj)
 699:Drivers/lvgl/src/extra/themes/default/lv_theme_default.c **** {
  29              		.loc 1 699 1 view -0
  30              		.cfi_startproc
  31              		@ args = 0, pretend = 0, frame = 0
  32              		@ frame_needed = 0, uses_anonymous_args = 0
  33              		.loc 1 699 1 is_stmt 0 view .LVU1
  34 0000 70B5     		push	{r4, r5, r6, lr}
  35              		.cfi_def_cfa_offset 16
  36              		.cfi_offset 4, -16
  37              		.cfi_offset 5, -12
  38              		.cfi_offset 6, -8
  39              		.cfi_offset 14, -4
  40 0002 0C46     		mov	r4, r1
 700:Drivers/lvgl/src/extra/themes/default/lv_theme_default.c ****     LV_UNUSED(th);
  41              		.loc 1 700 5 is_stmt 1 view .LVU2
 701:Drivers/lvgl/src/extra/themes/default/lv_theme_default.c **** 
ARM GAS  /var/folders/0z/tsy30v1j4xl4_7kw94k978ww0000gn/T//ccdBOSjy.s 			page 14


 702:Drivers/lvgl/src/extra/themes/default/lv_theme_default.c ****     if(lv_obj_get_parent(obj) == NULL) {
  42              		.loc 1 702 5 view .LVU3
  43              		.loc 1 702 8 is_stmt 0 view .LVU4
  44 0004 0846     		mov	r0, r1
  45              	.LVL1:
  46              		.loc 1 702 8 view .LVU5
  47 0006 FFF7FEFF 		bl	lv_obj_get_parent
  48              	.LVL2:
  49              		.loc 1 702 7 view .LVU6
  50 000a 78B1     		cbz	r0, .L55
 703:Drivers/lvgl/src/extra/themes/default/lv_theme_default.c ****         lv_obj_add_style(obj, &styles->scr, 0);
 704:Drivers/lvgl/src/extra/themes/default/lv_theme_default.c ****         lv_obj_add_style(obj, &styles->scrollbar, LV_PART_SCROLLBAR);
 705:Drivers/lvgl/src/extra/themes/default/lv_theme_default.c ****         lv_obj_add_style(obj, &styles->scrollbar_scrolled, LV_PART_SCROLLBAR | LV_STATE_SCROLLED);
 706:Drivers/lvgl/src/extra/themes/default/lv_theme_default.c ****         return;
 707:Drivers/lvgl/src/extra/themes/default/lv_theme_default.c ****     }
 708:Drivers/lvgl/src/extra/themes/default/lv_theme_default.c **** 
 709:Drivers/lvgl/src/extra/themes/default/lv_theme_default.c ****     if(lv_obj_check_type(obj, &lv_obj_class)) {
  51              		.loc 1 709 5 is_stmt 1 view .LVU7
  52              		.loc 1 709 8 is_stmt 0 view .LVU8
  53 000c B149     		ldr	r1, .L65
  54 000e 2046     		mov	r0, r4
  55 0010 FFF7FEFF 		bl	lv_obj_check_type
  56              	.LVL3:
  57              		.loc 1 709 7 view .LVU9
  58 0014 0028     		cmp	r0, #0
  59 0016 00F09780 		beq	.L4
  60              	.LBB44:
 710:Drivers/lvgl/src/extra/themes/default/lv_theme_default.c **** #if LV_USE_TABVIEW
 711:Drivers/lvgl/src/extra/themes/default/lv_theme_default.c ****         lv_obj_t * parent = lv_obj_get_parent(obj);
  61              		.loc 1 711 9 is_stmt 1 view .LVU10
  62              		.loc 1 711 29 is_stmt 0 view .LVU11
  63 001a 2046     		mov	r0, r4
  64 001c FFF7FEFF 		bl	lv_obj_get_parent
  65              	.LVL4:
  66 0020 0546     		mov	r5, r0
  67              	.LVL5:
 712:Drivers/lvgl/src/extra/themes/default/lv_theme_default.c ****         /*Tabview content area*/
 713:Drivers/lvgl/src/extra/themes/default/lv_theme_default.c ****         if(lv_obj_check_type(parent, &lv_tabview_class)) {
  68              		.loc 1 713 9 is_stmt 1 view .LVU12
  69              		.loc 1 713 12 is_stmt 0 view .LVU13
  70 0022 AD49     		ldr	r1, .L65+4
  71 0024 FFF7FEFF 		bl	lv_obj_check_type
  72              	.LVL6:
  73              		.loc 1 713 11 view .LVU14
  74 0028 A0B1     		cbz	r0, .L56
  75              	.LVL7:
  76              	.L1:
  77              		.loc 1 713 11 view .LVU15
  78              	.LBE44:
 714:Drivers/lvgl/src/extra/themes/default/lv_theme_default.c ****             return;
 715:Drivers/lvgl/src/extra/themes/default/lv_theme_default.c ****         }
 716:Drivers/lvgl/src/extra/themes/default/lv_theme_default.c ****         /*Tabview pages*/
 717:Drivers/lvgl/src/extra/themes/default/lv_theme_default.c ****         else if(lv_obj_check_type(lv_obj_get_parent(parent), &lv_tabview_class)) {
 718:Drivers/lvgl/src/extra/themes/default/lv_theme_default.c ****             lv_obj_add_style(obj, &styles->pad_normal, 0);
 719:Drivers/lvgl/src/extra/themes/default/lv_theme_default.c ****             lv_obj_add_style(obj, &styles->scrollbar, LV_PART_SCROLLBAR);
 720:Drivers/lvgl/src/extra/themes/default/lv_theme_default.c ****             lv_obj_add_style(obj, &styles->scrollbar_scrolled, LV_PART_SCROLLBAR | LV_STATE_SCROLLE
 721:Drivers/lvgl/src/extra/themes/default/lv_theme_default.c ****             return;
ARM GAS  /var/folders/0z/tsy30v1j4xl4_7kw94k978ww0000gn/T//ccdBOSjy.s 			page 15


 722:Drivers/lvgl/src/extra/themes/default/lv_theme_default.c ****         }
 723:Drivers/lvgl/src/extra/themes/default/lv_theme_default.c **** #endif
 724:Drivers/lvgl/src/extra/themes/default/lv_theme_default.c **** 
 725:Drivers/lvgl/src/extra/themes/default/lv_theme_default.c **** #if LV_USE_WIN
 726:Drivers/lvgl/src/extra/themes/default/lv_theme_default.c ****         /*Header*/
 727:Drivers/lvgl/src/extra/themes/default/lv_theme_default.c ****         if(lv_obj_get_index(obj) == 0 && lv_obj_check_type(lv_obj_get_parent(obj), &lv_win_class)) 
 728:Drivers/lvgl/src/extra/themes/default/lv_theme_default.c ****             lv_obj_add_style(obj, &styles->bg_color_grey, 0);
 729:Drivers/lvgl/src/extra/themes/default/lv_theme_default.c ****             lv_obj_add_style(obj, &styles->pad_tiny, 0);
 730:Drivers/lvgl/src/extra/themes/default/lv_theme_default.c ****             return;
 731:Drivers/lvgl/src/extra/themes/default/lv_theme_default.c ****         }
 732:Drivers/lvgl/src/extra/themes/default/lv_theme_default.c ****         /*Content*/
 733:Drivers/lvgl/src/extra/themes/default/lv_theme_default.c ****         else if(lv_obj_get_index(obj) == 1 && lv_obj_check_type(lv_obj_get_parent(obj), &lv_win_cla
 734:Drivers/lvgl/src/extra/themes/default/lv_theme_default.c ****             lv_obj_add_style(obj, &styles->scr, 0);
 735:Drivers/lvgl/src/extra/themes/default/lv_theme_default.c ****             lv_obj_add_style(obj, &styles->pad_normal, 0);
 736:Drivers/lvgl/src/extra/themes/default/lv_theme_default.c ****             lv_obj_add_style(obj, &styles->scrollbar, LV_PART_SCROLLBAR);
 737:Drivers/lvgl/src/extra/themes/default/lv_theme_default.c ****             lv_obj_add_style(obj, &styles->scrollbar_scrolled, LV_PART_SCROLLBAR | LV_STATE_SCROLLE
 738:Drivers/lvgl/src/extra/themes/default/lv_theme_default.c ****             return;
 739:Drivers/lvgl/src/extra/themes/default/lv_theme_default.c ****         }
 740:Drivers/lvgl/src/extra/themes/default/lv_theme_default.c **** #endif
 741:Drivers/lvgl/src/extra/themes/default/lv_theme_default.c **** 
 742:Drivers/lvgl/src/extra/themes/default/lv_theme_default.c **** 
 743:Drivers/lvgl/src/extra/themes/default/lv_theme_default.c **** #if LV_USE_CALENDAR
 744:Drivers/lvgl/src/extra/themes/default/lv_theme_default.c ****         if(lv_obj_check_type(lv_obj_get_parent(obj), &lv_calendar_class)) {
 745:Drivers/lvgl/src/extra/themes/default/lv_theme_default.c ****             /*No style*/
 746:Drivers/lvgl/src/extra/themes/default/lv_theme_default.c ****             return;
 747:Drivers/lvgl/src/extra/themes/default/lv_theme_default.c ****         }
 748:Drivers/lvgl/src/extra/themes/default/lv_theme_default.c **** #endif
 749:Drivers/lvgl/src/extra/themes/default/lv_theme_default.c **** 
 750:Drivers/lvgl/src/extra/themes/default/lv_theme_default.c ****         lv_obj_add_style(obj, &styles->card, 0);
 751:Drivers/lvgl/src/extra/themes/default/lv_theme_default.c ****         lv_obj_add_style(obj, &styles->scrollbar, LV_PART_SCROLLBAR);
 752:Drivers/lvgl/src/extra/themes/default/lv_theme_default.c ****         lv_obj_add_style(obj, &styles->scrollbar_scrolled, LV_PART_SCROLLBAR | LV_STATE_SCROLLED);
 753:Drivers/lvgl/src/extra/themes/default/lv_theme_default.c ****     }
 754:Drivers/lvgl/src/extra/themes/default/lv_theme_default.c **** #if LV_USE_BTN
 755:Drivers/lvgl/src/extra/themes/default/lv_theme_default.c ****     else if(lv_obj_check_type(obj, &lv_btn_class)) {
 756:Drivers/lvgl/src/extra/themes/default/lv_theme_default.c ****         lv_obj_add_style(obj, &styles->btn, 0);
 757:Drivers/lvgl/src/extra/themes/default/lv_theme_default.c ****         lv_obj_add_style(obj, &styles->bg_color_primary, 0);
 758:Drivers/lvgl/src/extra/themes/default/lv_theme_default.c ****         lv_obj_add_style(obj, &styles->transition_delayed, 0);
 759:Drivers/lvgl/src/extra/themes/default/lv_theme_default.c ****         lv_obj_add_style(obj, &styles->pressed, LV_STATE_PRESSED);
 760:Drivers/lvgl/src/extra/themes/default/lv_theme_default.c ****         lv_obj_add_style(obj, &styles->transition_normal, LV_STATE_PRESSED);
 761:Drivers/lvgl/src/extra/themes/default/lv_theme_default.c ****         lv_obj_add_style(obj, &styles->outline_primary, LV_STATE_FOCUS_KEY);
 762:Drivers/lvgl/src/extra/themes/default/lv_theme_default.c **** #if LV_THEME_DEFAULT_GROW
 763:Drivers/lvgl/src/extra/themes/default/lv_theme_default.c ****         lv_obj_add_style(obj, &styles->grow, LV_STATE_PRESSED);
 764:Drivers/lvgl/src/extra/themes/default/lv_theme_default.c **** #endif
 765:Drivers/lvgl/src/extra/themes/default/lv_theme_default.c ****         lv_obj_add_style(obj, &styles->bg_color_secondary, LV_STATE_CHECKED);
 766:Drivers/lvgl/src/extra/themes/default/lv_theme_default.c ****         lv_obj_add_style(obj, &styles->disabled, LV_STATE_DISABLED);
 767:Drivers/lvgl/src/extra/themes/default/lv_theme_default.c **** 
 768:Drivers/lvgl/src/extra/themes/default/lv_theme_default.c **** #if LV_USE_MENU
 769:Drivers/lvgl/src/extra/themes/default/lv_theme_default.c ****         if(lv_obj_check_type(lv_obj_get_parent(obj), &lv_menu_sidebar_header_cont_class) ||
 770:Drivers/lvgl/src/extra/themes/default/lv_theme_default.c ****            lv_obj_check_type(lv_obj_get_parent(obj), &lv_menu_main_header_cont_class)) {
 771:Drivers/lvgl/src/extra/themes/default/lv_theme_default.c ****             lv_obj_add_style(obj, &styles->menu_header_btn, 0);
 772:Drivers/lvgl/src/extra/themes/default/lv_theme_default.c ****             lv_obj_add_style(obj, &styles->menu_pressed, LV_STATE_PRESSED);
 773:Drivers/lvgl/src/extra/themes/default/lv_theme_default.c ****         }
 774:Drivers/lvgl/src/extra/themes/default/lv_theme_default.c **** #endif
 775:Drivers/lvgl/src/extra/themes/default/lv_theme_default.c ****     }
 776:Drivers/lvgl/src/extra/themes/default/lv_theme_default.c **** #endif
 777:Drivers/lvgl/src/extra/themes/default/lv_theme_default.c **** 
 778:Drivers/lvgl/src/extra/themes/default/lv_theme_default.c **** #if LV_USE_LINE
ARM GAS  /var/folders/0z/tsy30v1j4xl4_7kw94k978ww0000gn/T//ccdBOSjy.s 			page 16


 779:Drivers/lvgl/src/extra/themes/default/lv_theme_default.c ****     else if(lv_obj_check_type(obj, &lv_line_class)) {
 780:Drivers/lvgl/src/extra/themes/default/lv_theme_default.c ****         lv_obj_add_style(obj, &styles->line, 0);
 781:Drivers/lvgl/src/extra/themes/default/lv_theme_default.c ****     }
 782:Drivers/lvgl/src/extra/themes/default/lv_theme_default.c **** #endif
 783:Drivers/lvgl/src/extra/themes/default/lv_theme_default.c **** 
 784:Drivers/lvgl/src/extra/themes/default/lv_theme_default.c **** #if LV_USE_BTNMATRIX
 785:Drivers/lvgl/src/extra/themes/default/lv_theme_default.c ****     else if(lv_obj_check_type(obj, &lv_btnmatrix_class)) {
 786:Drivers/lvgl/src/extra/themes/default/lv_theme_default.c **** #if LV_USE_MSGBOX
 787:Drivers/lvgl/src/extra/themes/default/lv_theme_default.c ****         if(lv_obj_check_type(lv_obj_get_parent(obj), &lv_msgbox_class)) {
 788:Drivers/lvgl/src/extra/themes/default/lv_theme_default.c ****             lv_obj_add_style(obj, &styles->msgbox_btn_bg, 0);
 789:Drivers/lvgl/src/extra/themes/default/lv_theme_default.c ****             lv_obj_add_style(obj, &styles->pad_gap, 0);
 790:Drivers/lvgl/src/extra/themes/default/lv_theme_default.c ****             lv_obj_add_style(obj, &styles->btn, LV_PART_ITEMS);
 791:Drivers/lvgl/src/extra/themes/default/lv_theme_default.c ****             lv_obj_add_style(obj, &styles->pressed, LV_PART_ITEMS | LV_STATE_PRESSED);
 792:Drivers/lvgl/src/extra/themes/default/lv_theme_default.c ****             lv_obj_add_style(obj, &styles->disabled, LV_PART_ITEMS | LV_STATE_DISABLED);
 793:Drivers/lvgl/src/extra/themes/default/lv_theme_default.c ****             lv_obj_add_style(obj, &styles->bg_color_primary, LV_PART_ITEMS | LV_STATE_CHECKED);
 794:Drivers/lvgl/src/extra/themes/default/lv_theme_default.c ****             lv_obj_add_style(obj, &styles->bg_color_primary_muted, LV_PART_ITEMS | LV_STATE_FOCUS_K
 795:Drivers/lvgl/src/extra/themes/default/lv_theme_default.c ****             lv_obj_add_style(obj, &styles->bg_color_secondary_muted, LV_PART_ITEMS | LV_STATE_EDITE
 796:Drivers/lvgl/src/extra/themes/default/lv_theme_default.c ****             return;
 797:Drivers/lvgl/src/extra/themes/default/lv_theme_default.c ****         }
 798:Drivers/lvgl/src/extra/themes/default/lv_theme_default.c **** #endif
 799:Drivers/lvgl/src/extra/themes/default/lv_theme_default.c **** #if LV_USE_TABVIEW
 800:Drivers/lvgl/src/extra/themes/default/lv_theme_default.c ****         if(lv_obj_check_type(lv_obj_get_parent(obj), &lv_tabview_class)) {
 801:Drivers/lvgl/src/extra/themes/default/lv_theme_default.c ****             lv_obj_add_style(obj, &styles->bg_color_white, 0);
 802:Drivers/lvgl/src/extra/themes/default/lv_theme_default.c ****             lv_obj_add_style(obj, &styles->outline_primary, LV_STATE_FOCUS_KEY);
 803:Drivers/lvgl/src/extra/themes/default/lv_theme_default.c ****             lv_obj_add_style(obj, &styles->tab_bg_focus, LV_STATE_FOCUS_KEY);
 804:Drivers/lvgl/src/extra/themes/default/lv_theme_default.c ****             lv_obj_add_style(obj, &styles->pressed, LV_PART_ITEMS | LV_STATE_PRESSED);
 805:Drivers/lvgl/src/extra/themes/default/lv_theme_default.c ****             lv_obj_add_style(obj, &styles->bg_color_primary_muted, LV_PART_ITEMS | LV_STATE_CHECKED
 806:Drivers/lvgl/src/extra/themes/default/lv_theme_default.c ****             lv_obj_add_style(obj, &styles->tab_btn, LV_PART_ITEMS | LV_STATE_CHECKED);
 807:Drivers/lvgl/src/extra/themes/default/lv_theme_default.c ****             lv_obj_add_style(obj, &styles->outline_primary, LV_PART_ITEMS | LV_STATE_FOCUS_KEY);
 808:Drivers/lvgl/src/extra/themes/default/lv_theme_default.c ****             lv_obj_add_style(obj, &styles->outline_secondary, LV_PART_ITEMS | LV_STATE_EDITED);
 809:Drivers/lvgl/src/extra/themes/default/lv_theme_default.c ****             lv_obj_add_style(obj, &styles->tab_bg_focus, LV_PART_ITEMS | LV_STATE_FOCUS_KEY);
 810:Drivers/lvgl/src/extra/themes/default/lv_theme_default.c ****             return;
 811:Drivers/lvgl/src/extra/themes/default/lv_theme_default.c ****         }
 812:Drivers/lvgl/src/extra/themes/default/lv_theme_default.c **** #endif
 813:Drivers/lvgl/src/extra/themes/default/lv_theme_default.c **** 
 814:Drivers/lvgl/src/extra/themes/default/lv_theme_default.c **** #if LV_USE_CALENDAR
 815:Drivers/lvgl/src/extra/themes/default/lv_theme_default.c ****         if(lv_obj_check_type(lv_obj_get_parent(obj), &lv_calendar_class)) {
 816:Drivers/lvgl/src/extra/themes/default/lv_theme_default.c ****             lv_obj_add_style(obj, &styles->calendar_btnm_bg, 0);
 817:Drivers/lvgl/src/extra/themes/default/lv_theme_default.c ****             lv_obj_add_style(obj, &styles->outline_primary, LV_STATE_FOCUS_KEY);
 818:Drivers/lvgl/src/extra/themes/default/lv_theme_default.c ****             lv_obj_add_style(obj, &styles->outline_secondary, LV_STATE_EDITED);
 819:Drivers/lvgl/src/extra/themes/default/lv_theme_default.c ****             lv_obj_add_style(obj, &styles->calendar_btnm_day, LV_PART_ITEMS);
 820:Drivers/lvgl/src/extra/themes/default/lv_theme_default.c ****             lv_obj_add_style(obj, &styles->pressed, LV_PART_ITEMS | LV_STATE_PRESSED);
 821:Drivers/lvgl/src/extra/themes/default/lv_theme_default.c ****             lv_obj_add_style(obj, &styles->disabled, LV_PART_ITEMS | LV_STATE_DISABLED);
 822:Drivers/lvgl/src/extra/themes/default/lv_theme_default.c ****             lv_obj_add_style(obj, &styles->outline_primary, LV_PART_ITEMS | LV_STATE_FOCUS_KEY);
 823:Drivers/lvgl/src/extra/themes/default/lv_theme_default.c ****             lv_obj_add_style(obj, &styles->outline_secondary, LV_PART_ITEMS | LV_STATE_EDITED);
 824:Drivers/lvgl/src/extra/themes/default/lv_theme_default.c ****             return;
 825:Drivers/lvgl/src/extra/themes/default/lv_theme_default.c ****         }
 826:Drivers/lvgl/src/extra/themes/default/lv_theme_default.c **** #endif
 827:Drivers/lvgl/src/extra/themes/default/lv_theme_default.c ****         lv_obj_add_style(obj, &styles->card, 0);
 828:Drivers/lvgl/src/extra/themes/default/lv_theme_default.c ****         lv_obj_add_style(obj, &styles->outline_primary, LV_STATE_FOCUS_KEY);
 829:Drivers/lvgl/src/extra/themes/default/lv_theme_default.c ****         lv_obj_add_style(obj, &styles->outline_secondary, LV_STATE_EDITED);
 830:Drivers/lvgl/src/extra/themes/default/lv_theme_default.c ****         lv_obj_add_style(obj, &styles->btn, LV_PART_ITEMS);
 831:Drivers/lvgl/src/extra/themes/default/lv_theme_default.c ****         lv_obj_add_style(obj, &styles->disabled, LV_PART_ITEMS | LV_STATE_DISABLED);
 832:Drivers/lvgl/src/extra/themes/default/lv_theme_default.c ****         lv_obj_add_style(obj, &styles->pressed, LV_PART_ITEMS | LV_STATE_PRESSED);
 833:Drivers/lvgl/src/extra/themes/default/lv_theme_default.c ****         lv_obj_add_style(obj, &styles->bg_color_primary, LV_PART_ITEMS | LV_STATE_CHECKED);
 834:Drivers/lvgl/src/extra/themes/default/lv_theme_default.c ****         lv_obj_add_style(obj, &styles->outline_primary, LV_PART_ITEMS | LV_STATE_FOCUS_KEY);
 835:Drivers/lvgl/src/extra/themes/default/lv_theme_default.c ****         lv_obj_add_style(obj, &styles->outline_secondary, LV_PART_ITEMS | LV_STATE_EDITED);
ARM GAS  /var/folders/0z/tsy30v1j4xl4_7kw94k978ww0000gn/T//ccdBOSjy.s 			page 17


 836:Drivers/lvgl/src/extra/themes/default/lv_theme_default.c ****     }
 837:Drivers/lvgl/src/extra/themes/default/lv_theme_default.c **** #endif
 838:Drivers/lvgl/src/extra/themes/default/lv_theme_default.c **** 
 839:Drivers/lvgl/src/extra/themes/default/lv_theme_default.c **** #if LV_USE_BAR
 840:Drivers/lvgl/src/extra/themes/default/lv_theme_default.c ****     else if(lv_obj_check_type(obj, &lv_bar_class)) {
 841:Drivers/lvgl/src/extra/themes/default/lv_theme_default.c ****         lv_obj_add_style(obj, &styles->bg_color_primary_muted, 0);
 842:Drivers/lvgl/src/extra/themes/default/lv_theme_default.c ****         lv_obj_add_style(obj, &styles->circle, 0);
 843:Drivers/lvgl/src/extra/themes/default/lv_theme_default.c ****         lv_obj_add_style(obj, &styles->outline_primary, LV_STATE_FOCUS_KEY);
 844:Drivers/lvgl/src/extra/themes/default/lv_theme_default.c ****         lv_obj_add_style(obj, &styles->outline_secondary, LV_STATE_EDITED);
 845:Drivers/lvgl/src/extra/themes/default/lv_theme_default.c ****         lv_obj_add_style(obj, &styles->bg_color_primary, LV_PART_INDICATOR);
 846:Drivers/lvgl/src/extra/themes/default/lv_theme_default.c ****         lv_obj_add_style(obj, &styles->circle, LV_PART_INDICATOR);
 847:Drivers/lvgl/src/extra/themes/default/lv_theme_default.c ****     }
 848:Drivers/lvgl/src/extra/themes/default/lv_theme_default.c **** #endif
 849:Drivers/lvgl/src/extra/themes/default/lv_theme_default.c **** 
 850:Drivers/lvgl/src/extra/themes/default/lv_theme_default.c **** #if LV_USE_SLIDER
 851:Drivers/lvgl/src/extra/themes/default/lv_theme_default.c ****     else if(lv_obj_check_type(obj, &lv_slider_class)) {
 852:Drivers/lvgl/src/extra/themes/default/lv_theme_default.c ****         lv_obj_add_style(obj, &styles->bg_color_primary_muted, 0);
 853:Drivers/lvgl/src/extra/themes/default/lv_theme_default.c ****         lv_obj_add_style(obj, &styles->circle, 0);
 854:Drivers/lvgl/src/extra/themes/default/lv_theme_default.c ****         lv_obj_add_style(obj, &styles->outline_primary, LV_STATE_FOCUS_KEY);
 855:Drivers/lvgl/src/extra/themes/default/lv_theme_default.c ****         lv_obj_add_style(obj, &styles->outline_secondary, LV_STATE_EDITED);
 856:Drivers/lvgl/src/extra/themes/default/lv_theme_default.c ****         lv_obj_add_style(obj, &styles->bg_color_primary, LV_PART_INDICATOR);
 857:Drivers/lvgl/src/extra/themes/default/lv_theme_default.c ****         lv_obj_add_style(obj, &styles->circle, LV_PART_INDICATOR);
 858:Drivers/lvgl/src/extra/themes/default/lv_theme_default.c ****         lv_obj_add_style(obj, &styles->knob, LV_PART_KNOB);
 859:Drivers/lvgl/src/extra/themes/default/lv_theme_default.c **** #if LV_THEME_DEFAULT_GROW
 860:Drivers/lvgl/src/extra/themes/default/lv_theme_default.c ****         lv_obj_add_style(obj, &styles->grow, LV_PART_KNOB | LV_STATE_PRESSED);
 861:Drivers/lvgl/src/extra/themes/default/lv_theme_default.c **** #endif
 862:Drivers/lvgl/src/extra/themes/default/lv_theme_default.c ****         lv_obj_add_style(obj, &styles->transition_delayed, LV_PART_KNOB);
 863:Drivers/lvgl/src/extra/themes/default/lv_theme_default.c ****         lv_obj_add_style(obj, &styles->transition_normal, LV_PART_KNOB | LV_STATE_PRESSED);
 864:Drivers/lvgl/src/extra/themes/default/lv_theme_default.c ****     }
 865:Drivers/lvgl/src/extra/themes/default/lv_theme_default.c **** #endif
 866:Drivers/lvgl/src/extra/themes/default/lv_theme_default.c **** 
 867:Drivers/lvgl/src/extra/themes/default/lv_theme_default.c **** #if LV_USE_TABLE
 868:Drivers/lvgl/src/extra/themes/default/lv_theme_default.c ****     else if(lv_obj_check_type(obj, &lv_table_class)) {
 869:Drivers/lvgl/src/extra/themes/default/lv_theme_default.c ****         lv_obj_add_style(obj, &styles->card, 0);
 870:Drivers/lvgl/src/extra/themes/default/lv_theme_default.c ****         lv_obj_add_style(obj, &styles->pad_zero, 0);
 871:Drivers/lvgl/src/extra/themes/default/lv_theme_default.c ****         lv_obj_add_style(obj, &styles->no_radius, 0);
 872:Drivers/lvgl/src/extra/themes/default/lv_theme_default.c ****         lv_obj_add_style(obj, &styles->outline_primary, LV_STATE_FOCUS_KEY);
 873:Drivers/lvgl/src/extra/themes/default/lv_theme_default.c ****         lv_obj_add_style(obj, &styles->outline_secondary, LV_STATE_EDITED);
 874:Drivers/lvgl/src/extra/themes/default/lv_theme_default.c ****         lv_obj_add_style(obj, &styles->scrollbar, LV_PART_SCROLLBAR);
 875:Drivers/lvgl/src/extra/themes/default/lv_theme_default.c ****         lv_obj_add_style(obj, &styles->scrollbar_scrolled, LV_PART_SCROLLBAR | LV_STATE_SCROLLED);
 876:Drivers/lvgl/src/extra/themes/default/lv_theme_default.c ****         lv_obj_add_style(obj, &styles->bg_color_white, LV_PART_ITEMS);
 877:Drivers/lvgl/src/extra/themes/default/lv_theme_default.c ****         lv_obj_add_style(obj, &styles->table_cell, LV_PART_ITEMS);
 878:Drivers/lvgl/src/extra/themes/default/lv_theme_default.c ****         lv_obj_add_style(obj, &styles->pad_normal, LV_PART_ITEMS);
 879:Drivers/lvgl/src/extra/themes/default/lv_theme_default.c ****         lv_obj_add_style(obj, &styles->pressed, LV_PART_ITEMS | LV_STATE_PRESSED);
 880:Drivers/lvgl/src/extra/themes/default/lv_theme_default.c ****         lv_obj_add_style(obj, &styles->bg_color_primary, LV_PART_ITEMS | LV_STATE_FOCUS_KEY);
 881:Drivers/lvgl/src/extra/themes/default/lv_theme_default.c ****         lv_obj_add_style(obj, &styles->bg_color_secondary, LV_PART_ITEMS | LV_STATE_EDITED);
 882:Drivers/lvgl/src/extra/themes/default/lv_theme_default.c ****     }
 883:Drivers/lvgl/src/extra/themes/default/lv_theme_default.c **** #endif
 884:Drivers/lvgl/src/extra/themes/default/lv_theme_default.c **** 
 885:Drivers/lvgl/src/extra/themes/default/lv_theme_default.c **** #if LV_USE_CHECKBOX
 886:Drivers/lvgl/src/extra/themes/default/lv_theme_default.c ****     else if(lv_obj_check_type(obj, &lv_checkbox_class)) {
 887:Drivers/lvgl/src/extra/themes/default/lv_theme_default.c ****         lv_obj_add_style(obj, &styles->pad_gap, 0);
 888:Drivers/lvgl/src/extra/themes/default/lv_theme_default.c ****         lv_obj_add_style(obj, &styles->outline_primary, LV_STATE_FOCUS_KEY);
 889:Drivers/lvgl/src/extra/themes/default/lv_theme_default.c ****         lv_obj_add_style(obj, &styles->disabled, LV_PART_INDICATOR | LV_STATE_DISABLED);
 890:Drivers/lvgl/src/extra/themes/default/lv_theme_default.c ****         lv_obj_add_style(obj, &styles->cb_marker, LV_PART_INDICATOR);
 891:Drivers/lvgl/src/extra/themes/default/lv_theme_default.c ****         lv_obj_add_style(obj, &styles->bg_color_primary, LV_PART_INDICATOR | LV_STATE_CHECKED);
 892:Drivers/lvgl/src/extra/themes/default/lv_theme_default.c ****         lv_obj_add_style(obj, &styles->cb_marker_checked, LV_PART_INDICATOR | LV_STATE_CHECKED);
ARM GAS  /var/folders/0z/tsy30v1j4xl4_7kw94k978ww0000gn/T//ccdBOSjy.s 			page 18


 893:Drivers/lvgl/src/extra/themes/default/lv_theme_default.c ****         lv_obj_add_style(obj, &styles->pressed, LV_PART_INDICATOR | LV_STATE_PRESSED);
 894:Drivers/lvgl/src/extra/themes/default/lv_theme_default.c **** #if LV_THEME_DEFAULT_GROW
 895:Drivers/lvgl/src/extra/themes/default/lv_theme_default.c ****         lv_obj_add_style(obj, &styles->grow, LV_PART_INDICATOR | LV_STATE_PRESSED);
 896:Drivers/lvgl/src/extra/themes/default/lv_theme_default.c **** #endif
 897:Drivers/lvgl/src/extra/themes/default/lv_theme_default.c ****         lv_obj_add_style(obj, &styles->transition_normal, LV_PART_INDICATOR | LV_STATE_PRESSED);
 898:Drivers/lvgl/src/extra/themes/default/lv_theme_default.c ****         lv_obj_add_style(obj, &styles->transition_delayed, LV_PART_INDICATOR);
 899:Drivers/lvgl/src/extra/themes/default/lv_theme_default.c ****     }
 900:Drivers/lvgl/src/extra/themes/default/lv_theme_default.c **** #endif
 901:Drivers/lvgl/src/extra/themes/default/lv_theme_default.c **** 
 902:Drivers/lvgl/src/extra/themes/default/lv_theme_default.c **** #if LV_USE_SWITCH
 903:Drivers/lvgl/src/extra/themes/default/lv_theme_default.c ****     else if(lv_obj_check_type(obj, &lv_switch_class)) {
 904:Drivers/lvgl/src/extra/themes/default/lv_theme_default.c ****         lv_obj_add_style(obj, &styles->bg_color_grey, 0);
 905:Drivers/lvgl/src/extra/themes/default/lv_theme_default.c ****         lv_obj_add_style(obj, &styles->circle, 0);
 906:Drivers/lvgl/src/extra/themes/default/lv_theme_default.c ****         lv_obj_add_style(obj, &styles->anim_fast, 0);
 907:Drivers/lvgl/src/extra/themes/default/lv_theme_default.c ****         lv_obj_add_style(obj, &styles->disabled, LV_STATE_DISABLED);
 908:Drivers/lvgl/src/extra/themes/default/lv_theme_default.c ****         lv_obj_add_style(obj, &styles->outline_primary, LV_STATE_FOCUS_KEY);
 909:Drivers/lvgl/src/extra/themes/default/lv_theme_default.c ****         lv_obj_add_style(obj, &styles->bg_color_primary, LV_PART_INDICATOR | LV_STATE_CHECKED);
 910:Drivers/lvgl/src/extra/themes/default/lv_theme_default.c ****         lv_obj_add_style(obj, &styles->circle, LV_PART_INDICATOR);
 911:Drivers/lvgl/src/extra/themes/default/lv_theme_default.c ****         lv_obj_add_style(obj, &styles->disabled, LV_PART_INDICATOR | LV_STATE_DISABLED);
 912:Drivers/lvgl/src/extra/themes/default/lv_theme_default.c ****         lv_obj_add_style(obj, &styles->knob, LV_PART_KNOB);
 913:Drivers/lvgl/src/extra/themes/default/lv_theme_default.c ****         lv_obj_add_style(obj, &styles->bg_color_white, LV_PART_KNOB);
 914:Drivers/lvgl/src/extra/themes/default/lv_theme_default.c ****         lv_obj_add_style(obj, &styles->switch_knob, LV_PART_KNOB);
 915:Drivers/lvgl/src/extra/themes/default/lv_theme_default.c ****         lv_obj_add_style(obj, &styles->disabled, LV_PART_KNOB | LV_STATE_DISABLED);
 916:Drivers/lvgl/src/extra/themes/default/lv_theme_default.c **** 
 917:Drivers/lvgl/src/extra/themes/default/lv_theme_default.c ****         lv_obj_add_style(obj, &styles->transition_normal, LV_PART_INDICATOR | LV_STATE_CHECKED);
 918:Drivers/lvgl/src/extra/themes/default/lv_theme_default.c ****         lv_obj_add_style(obj, &styles->transition_normal, LV_PART_INDICATOR);
 919:Drivers/lvgl/src/extra/themes/default/lv_theme_default.c ****     }
 920:Drivers/lvgl/src/extra/themes/default/lv_theme_default.c **** #endif
 921:Drivers/lvgl/src/extra/themes/default/lv_theme_default.c **** 
 922:Drivers/lvgl/src/extra/themes/default/lv_theme_default.c **** #if LV_USE_CHART
 923:Drivers/lvgl/src/extra/themes/default/lv_theme_default.c ****     else if(lv_obj_check_type(obj, &lv_chart_class)) {
 924:Drivers/lvgl/src/extra/themes/default/lv_theme_default.c ****         lv_obj_add_style(obj, &styles->card, 0);
 925:Drivers/lvgl/src/extra/themes/default/lv_theme_default.c ****         lv_obj_add_style(obj, &styles->pad_small, 0);
 926:Drivers/lvgl/src/extra/themes/default/lv_theme_default.c ****         lv_obj_add_style(obj, &styles->chart_bg, 0);
 927:Drivers/lvgl/src/extra/themes/default/lv_theme_default.c ****         lv_obj_add_style(obj, &styles->scrollbar, LV_PART_SCROLLBAR);
 928:Drivers/lvgl/src/extra/themes/default/lv_theme_default.c ****         lv_obj_add_style(obj, &styles->scrollbar_scrolled, LV_PART_SCROLLBAR | LV_STATE_SCROLLED);
 929:Drivers/lvgl/src/extra/themes/default/lv_theme_default.c ****         lv_obj_add_style(obj, &styles->chart_series, LV_PART_ITEMS);
 930:Drivers/lvgl/src/extra/themes/default/lv_theme_default.c ****         lv_obj_add_style(obj, &styles->chart_indic, LV_PART_INDICATOR);
 931:Drivers/lvgl/src/extra/themes/default/lv_theme_default.c ****         lv_obj_add_style(obj, &styles->chart_ticks, LV_PART_TICKS);
 932:Drivers/lvgl/src/extra/themes/default/lv_theme_default.c ****         lv_obj_add_style(obj, &styles->chart_series, LV_PART_CURSOR);
 933:Drivers/lvgl/src/extra/themes/default/lv_theme_default.c ****     }
 934:Drivers/lvgl/src/extra/themes/default/lv_theme_default.c **** #endif
 935:Drivers/lvgl/src/extra/themes/default/lv_theme_default.c **** 
 936:Drivers/lvgl/src/extra/themes/default/lv_theme_default.c **** #if LV_USE_ROLLER
 937:Drivers/lvgl/src/extra/themes/default/lv_theme_default.c ****     else if(lv_obj_check_type(obj, &lv_roller_class)) {
 938:Drivers/lvgl/src/extra/themes/default/lv_theme_default.c ****         lv_obj_add_style(obj, &styles->card, 0);
 939:Drivers/lvgl/src/extra/themes/default/lv_theme_default.c ****         lv_obj_add_style(obj, &styles->anim, 0);
 940:Drivers/lvgl/src/extra/themes/default/lv_theme_default.c ****         lv_obj_add_style(obj, &styles->line_space_large, 0);
 941:Drivers/lvgl/src/extra/themes/default/lv_theme_default.c ****         lv_obj_add_style(obj, &styles->text_align_center, 0);
 942:Drivers/lvgl/src/extra/themes/default/lv_theme_default.c ****         lv_obj_add_style(obj, &styles->outline_primary, LV_STATE_FOCUS_KEY);
 943:Drivers/lvgl/src/extra/themes/default/lv_theme_default.c ****         lv_obj_add_style(obj, &styles->outline_secondary, LV_STATE_EDITED);
 944:Drivers/lvgl/src/extra/themes/default/lv_theme_default.c ****         lv_obj_add_style(obj, &styles->bg_color_primary, LV_PART_SELECTED);
 945:Drivers/lvgl/src/extra/themes/default/lv_theme_default.c ****     }
 946:Drivers/lvgl/src/extra/themes/default/lv_theme_default.c **** #endif
 947:Drivers/lvgl/src/extra/themes/default/lv_theme_default.c **** 
 948:Drivers/lvgl/src/extra/themes/default/lv_theme_default.c **** #if LV_USE_DROPDOWN
 949:Drivers/lvgl/src/extra/themes/default/lv_theme_default.c ****     else if(lv_obj_check_type(obj, &lv_dropdown_class)) {
ARM GAS  /var/folders/0z/tsy30v1j4xl4_7kw94k978ww0000gn/T//ccdBOSjy.s 			page 19


 950:Drivers/lvgl/src/extra/themes/default/lv_theme_default.c ****         lv_obj_add_style(obj, &styles->card, 0);
 951:Drivers/lvgl/src/extra/themes/default/lv_theme_default.c ****         lv_obj_add_style(obj, &styles->pad_small, 0);
 952:Drivers/lvgl/src/extra/themes/default/lv_theme_default.c ****         lv_obj_add_style(obj, &styles->transition_delayed, 0);
 953:Drivers/lvgl/src/extra/themes/default/lv_theme_default.c ****         lv_obj_add_style(obj, &styles->transition_normal, LV_STATE_PRESSED);
 954:Drivers/lvgl/src/extra/themes/default/lv_theme_default.c ****         lv_obj_add_style(obj, &styles->pressed, LV_STATE_PRESSED);
 955:Drivers/lvgl/src/extra/themes/default/lv_theme_default.c ****         lv_obj_add_style(obj, &styles->outline_primary, LV_STATE_FOCUS_KEY);
 956:Drivers/lvgl/src/extra/themes/default/lv_theme_default.c ****         lv_obj_add_style(obj, &styles->outline_secondary, LV_STATE_EDITED);
 957:Drivers/lvgl/src/extra/themes/default/lv_theme_default.c ****         lv_obj_add_style(obj, &styles->transition_normal, LV_PART_INDICATOR);
 958:Drivers/lvgl/src/extra/themes/default/lv_theme_default.c ****     }
 959:Drivers/lvgl/src/extra/themes/default/lv_theme_default.c ****     else if(lv_obj_check_type(obj, &lv_dropdownlist_class)) {
 960:Drivers/lvgl/src/extra/themes/default/lv_theme_default.c ****         lv_obj_add_style(obj, &styles->card, 0);
 961:Drivers/lvgl/src/extra/themes/default/lv_theme_default.c ****         lv_obj_add_style(obj, &styles->clip_corner, 0);
 962:Drivers/lvgl/src/extra/themes/default/lv_theme_default.c ****         lv_obj_add_style(obj, &styles->line_space_large, 0);
 963:Drivers/lvgl/src/extra/themes/default/lv_theme_default.c ****         lv_obj_add_style(obj, &styles->dropdown_list, 0);
 964:Drivers/lvgl/src/extra/themes/default/lv_theme_default.c ****         lv_obj_add_style(obj, &styles->scrollbar, LV_PART_SCROLLBAR);
 965:Drivers/lvgl/src/extra/themes/default/lv_theme_default.c ****         lv_obj_add_style(obj, &styles->scrollbar_scrolled, LV_PART_SCROLLBAR | LV_STATE_SCROLLED);
 966:Drivers/lvgl/src/extra/themes/default/lv_theme_default.c ****         lv_obj_add_style(obj, &styles->bg_color_white, LV_PART_SELECTED);
 967:Drivers/lvgl/src/extra/themes/default/lv_theme_default.c ****         lv_obj_add_style(obj, &styles->bg_color_primary, LV_PART_SELECTED | LV_STATE_CHECKED);
 968:Drivers/lvgl/src/extra/themes/default/lv_theme_default.c ****         lv_obj_add_style(obj, &styles->pressed, LV_PART_SELECTED | LV_STATE_PRESSED);
 969:Drivers/lvgl/src/extra/themes/default/lv_theme_default.c ****     }
 970:Drivers/lvgl/src/extra/themes/default/lv_theme_default.c **** #endif
 971:Drivers/lvgl/src/extra/themes/default/lv_theme_default.c **** 
 972:Drivers/lvgl/src/extra/themes/default/lv_theme_default.c **** #if LV_USE_ARC
 973:Drivers/lvgl/src/extra/themes/default/lv_theme_default.c ****     else if(lv_obj_check_type(obj, &lv_arc_class)) {
 974:Drivers/lvgl/src/extra/themes/default/lv_theme_default.c ****         lv_obj_add_style(obj, &styles->arc_indic, 0);
 975:Drivers/lvgl/src/extra/themes/default/lv_theme_default.c ****         lv_obj_add_style(obj, &styles->arc_indic, LV_PART_INDICATOR);
 976:Drivers/lvgl/src/extra/themes/default/lv_theme_default.c ****         lv_obj_add_style(obj, &styles->arc_indic_primary, LV_PART_INDICATOR);
 977:Drivers/lvgl/src/extra/themes/default/lv_theme_default.c ****         lv_obj_add_style(obj, &styles->knob, LV_PART_KNOB);
 978:Drivers/lvgl/src/extra/themes/default/lv_theme_default.c ****     }
 979:Drivers/lvgl/src/extra/themes/default/lv_theme_default.c **** #endif
 980:Drivers/lvgl/src/extra/themes/default/lv_theme_default.c **** 
 981:Drivers/lvgl/src/extra/themes/default/lv_theme_default.c **** 
 982:Drivers/lvgl/src/extra/themes/default/lv_theme_default.c **** #if LV_USE_SPINNER
 983:Drivers/lvgl/src/extra/themes/default/lv_theme_default.c ****     else if(lv_obj_check_type(obj, &lv_spinner_class)) {
 984:Drivers/lvgl/src/extra/themes/default/lv_theme_default.c ****         lv_obj_add_style(obj, &styles->arc_indic, 0);
 985:Drivers/lvgl/src/extra/themes/default/lv_theme_default.c ****         lv_obj_add_style(obj, &styles->arc_indic, LV_PART_INDICATOR);
 986:Drivers/lvgl/src/extra/themes/default/lv_theme_default.c ****         lv_obj_add_style(obj, &styles->arc_indic_primary, LV_PART_INDICATOR);
 987:Drivers/lvgl/src/extra/themes/default/lv_theme_default.c ****     }
 988:Drivers/lvgl/src/extra/themes/default/lv_theme_default.c **** #endif
 989:Drivers/lvgl/src/extra/themes/default/lv_theme_default.c **** 
 990:Drivers/lvgl/src/extra/themes/default/lv_theme_default.c **** #if LV_USE_METER
 991:Drivers/lvgl/src/extra/themes/default/lv_theme_default.c ****     else if(lv_obj_check_type(obj, &lv_meter_class)) {
 992:Drivers/lvgl/src/extra/themes/default/lv_theme_default.c ****         lv_obj_add_style(obj, &styles->card, 0);
 993:Drivers/lvgl/src/extra/themes/default/lv_theme_default.c ****         lv_obj_add_style(obj, &styles->circle, 0);
 994:Drivers/lvgl/src/extra/themes/default/lv_theme_default.c ****         lv_obj_add_style(obj, &styles->meter_indic, LV_PART_INDICATOR);
 995:Drivers/lvgl/src/extra/themes/default/lv_theme_default.c ****     }
 996:Drivers/lvgl/src/extra/themes/default/lv_theme_default.c **** #endif
 997:Drivers/lvgl/src/extra/themes/default/lv_theme_default.c **** 
 998:Drivers/lvgl/src/extra/themes/default/lv_theme_default.c **** #if LV_USE_TEXTAREA
 999:Drivers/lvgl/src/extra/themes/default/lv_theme_default.c ****     else if(lv_obj_check_type(obj, &lv_textarea_class)) {
1000:Drivers/lvgl/src/extra/themes/default/lv_theme_default.c ****         lv_obj_add_style(obj, &styles->card, 0);
1001:Drivers/lvgl/src/extra/themes/default/lv_theme_default.c ****         lv_obj_add_style(obj, &styles->pad_small, 0);
1002:Drivers/lvgl/src/extra/themes/default/lv_theme_default.c ****         lv_obj_add_style(obj, &styles->disabled, LV_STATE_DISABLED);
1003:Drivers/lvgl/src/extra/themes/default/lv_theme_default.c ****         lv_obj_add_style(obj, &styles->outline_primary, LV_STATE_FOCUS_KEY);
1004:Drivers/lvgl/src/extra/themes/default/lv_theme_default.c ****         lv_obj_add_style(obj, &styles->outline_secondary, LV_STATE_EDITED);
1005:Drivers/lvgl/src/extra/themes/default/lv_theme_default.c ****         lv_obj_add_style(obj, &styles->scrollbar, LV_PART_SCROLLBAR);
1006:Drivers/lvgl/src/extra/themes/default/lv_theme_default.c ****         lv_obj_add_style(obj, &styles->scrollbar_scrolled, LV_PART_SCROLLBAR | LV_STATE_SCROLLED);
ARM GAS  /var/folders/0z/tsy30v1j4xl4_7kw94k978ww0000gn/T//ccdBOSjy.s 			page 20


1007:Drivers/lvgl/src/extra/themes/default/lv_theme_default.c ****         lv_obj_add_style(obj, &styles->ta_cursor, LV_PART_CURSOR | LV_STATE_FOCUSED);
1008:Drivers/lvgl/src/extra/themes/default/lv_theme_default.c ****         lv_obj_add_style(obj, &styles->ta_placeholder, LV_PART_TEXTAREA_PLACEHOLDER);
1009:Drivers/lvgl/src/extra/themes/default/lv_theme_default.c ****     }
1010:Drivers/lvgl/src/extra/themes/default/lv_theme_default.c **** #endif
1011:Drivers/lvgl/src/extra/themes/default/lv_theme_default.c **** 
1012:Drivers/lvgl/src/extra/themes/default/lv_theme_default.c **** #if LV_USE_CALENDAR
1013:Drivers/lvgl/src/extra/themes/default/lv_theme_default.c ****     else if(lv_obj_check_type(obj, &lv_calendar_class)) {
1014:Drivers/lvgl/src/extra/themes/default/lv_theme_default.c ****         lv_obj_add_style(obj, &styles->card, 0);
1015:Drivers/lvgl/src/extra/themes/default/lv_theme_default.c ****         lv_obj_add_style(obj, &styles->pad_zero, 0);
1016:Drivers/lvgl/src/extra/themes/default/lv_theme_default.c ****     }
1017:Drivers/lvgl/src/extra/themes/default/lv_theme_default.c **** #endif
1018:Drivers/lvgl/src/extra/themes/default/lv_theme_default.c **** 
1019:Drivers/lvgl/src/extra/themes/default/lv_theme_default.c **** #if LV_USE_CALENDAR_HEADER_ARROW
1020:Drivers/lvgl/src/extra/themes/default/lv_theme_default.c ****     else if(lv_obj_check_type(obj, &lv_calendar_header_arrow_class)) {
1021:Drivers/lvgl/src/extra/themes/default/lv_theme_default.c ****         lv_obj_add_style(obj, &styles->calendar_header, 0);
1022:Drivers/lvgl/src/extra/themes/default/lv_theme_default.c ****     }
1023:Drivers/lvgl/src/extra/themes/default/lv_theme_default.c **** #endif
1024:Drivers/lvgl/src/extra/themes/default/lv_theme_default.c **** 
1025:Drivers/lvgl/src/extra/themes/default/lv_theme_default.c **** #if LV_USE_CALENDAR_HEADER_DROPDOWN
1026:Drivers/lvgl/src/extra/themes/default/lv_theme_default.c ****     else if(lv_obj_check_type(obj, &lv_calendar_header_dropdown_class)) {
1027:Drivers/lvgl/src/extra/themes/default/lv_theme_default.c ****         lv_obj_add_style(obj, &styles->calendar_header, 0);
1028:Drivers/lvgl/src/extra/themes/default/lv_theme_default.c ****     }
1029:Drivers/lvgl/src/extra/themes/default/lv_theme_default.c **** #endif
1030:Drivers/lvgl/src/extra/themes/default/lv_theme_default.c **** 
1031:Drivers/lvgl/src/extra/themes/default/lv_theme_default.c **** #if LV_USE_KEYBOARD
1032:Drivers/lvgl/src/extra/themes/default/lv_theme_default.c ****     else if(lv_obj_check_type(obj, &lv_keyboard_class)) {
1033:Drivers/lvgl/src/extra/themes/default/lv_theme_default.c ****         lv_obj_add_style(obj, &styles->scr, 0);
1034:Drivers/lvgl/src/extra/themes/default/lv_theme_default.c ****         lv_obj_add_style(obj, disp_size == DISP_LARGE ? &styles->pad_small : &styles->pad_tiny, 0);
1035:Drivers/lvgl/src/extra/themes/default/lv_theme_default.c ****         lv_obj_add_style(obj, &styles->outline_primary, LV_STATE_FOCUS_KEY);
1036:Drivers/lvgl/src/extra/themes/default/lv_theme_default.c ****         lv_obj_add_style(obj, &styles->outline_secondary, LV_STATE_EDITED);
1037:Drivers/lvgl/src/extra/themes/default/lv_theme_default.c ****         lv_obj_add_style(obj, &styles->btn, LV_PART_ITEMS);
1038:Drivers/lvgl/src/extra/themes/default/lv_theme_default.c ****         lv_obj_add_style(obj, &styles->disabled, LV_PART_ITEMS | LV_STATE_DISABLED);
1039:Drivers/lvgl/src/extra/themes/default/lv_theme_default.c ****         lv_obj_add_style(obj, &styles->bg_color_white, LV_PART_ITEMS);
1040:Drivers/lvgl/src/extra/themes/default/lv_theme_default.c ****         lv_obj_add_style(obj, &styles->keyboard_btn_bg, LV_PART_ITEMS);
1041:Drivers/lvgl/src/extra/themes/default/lv_theme_default.c ****         lv_obj_add_style(obj, &styles->pressed, LV_PART_ITEMS | LV_STATE_PRESSED);
1042:Drivers/lvgl/src/extra/themes/default/lv_theme_default.c ****         lv_obj_add_style(obj, &styles->bg_color_grey, LV_PART_ITEMS | LV_STATE_CHECKED);
1043:Drivers/lvgl/src/extra/themes/default/lv_theme_default.c ****         lv_obj_add_style(obj, &styles->bg_color_primary_muted, LV_PART_ITEMS | LV_STATE_FOCUS_KEY);
1044:Drivers/lvgl/src/extra/themes/default/lv_theme_default.c ****         lv_obj_add_style(obj, &styles->bg_color_secondary_muted, LV_PART_ITEMS | LV_STATE_EDITED);
1045:Drivers/lvgl/src/extra/themes/default/lv_theme_default.c ****     }
1046:Drivers/lvgl/src/extra/themes/default/lv_theme_default.c **** #endif
1047:Drivers/lvgl/src/extra/themes/default/lv_theme_default.c **** #if LV_USE_LIST
1048:Drivers/lvgl/src/extra/themes/default/lv_theme_default.c ****     else if(lv_obj_check_type(obj, &lv_list_class)) {
1049:Drivers/lvgl/src/extra/themes/default/lv_theme_default.c ****         lv_obj_add_style(obj, &styles->card, 0);
1050:Drivers/lvgl/src/extra/themes/default/lv_theme_default.c ****         lv_obj_add_style(obj, &styles->list_bg, 0);
1051:Drivers/lvgl/src/extra/themes/default/lv_theme_default.c ****         lv_obj_add_style(obj, &styles->scrollbar, LV_PART_SCROLLBAR);
1052:Drivers/lvgl/src/extra/themes/default/lv_theme_default.c ****         lv_obj_add_style(obj, &styles->scrollbar_scrolled, LV_PART_SCROLLBAR | LV_STATE_SCROLLED);
1053:Drivers/lvgl/src/extra/themes/default/lv_theme_default.c ****         return;
1054:Drivers/lvgl/src/extra/themes/default/lv_theme_default.c ****     }
1055:Drivers/lvgl/src/extra/themes/default/lv_theme_default.c ****     else if(lv_obj_check_type(obj, &lv_list_text_class)) {
1056:Drivers/lvgl/src/extra/themes/default/lv_theme_default.c ****         lv_obj_add_style(obj, &styles->bg_color_grey, 0);
1057:Drivers/lvgl/src/extra/themes/default/lv_theme_default.c ****         lv_obj_add_style(obj, &styles->list_item_grow, 0);
1058:Drivers/lvgl/src/extra/themes/default/lv_theme_default.c ****     }
1059:Drivers/lvgl/src/extra/themes/default/lv_theme_default.c ****     else if(lv_obj_check_type(obj, &lv_list_btn_class)) {
1060:Drivers/lvgl/src/extra/themes/default/lv_theme_default.c ****         lv_obj_add_style(obj, &styles->bg_color_white, 0);
1061:Drivers/lvgl/src/extra/themes/default/lv_theme_default.c ****         lv_obj_add_style(obj, &styles->list_btn, 0);
1062:Drivers/lvgl/src/extra/themes/default/lv_theme_default.c ****         lv_obj_add_style(obj, &styles->bg_color_primary, LV_STATE_FOCUS_KEY);
1063:Drivers/lvgl/src/extra/themes/default/lv_theme_default.c ****         lv_obj_add_style(obj, &styles->list_item_grow, LV_STATE_FOCUS_KEY);
ARM GAS  /var/folders/0z/tsy30v1j4xl4_7kw94k978ww0000gn/T//ccdBOSjy.s 			page 21


1064:Drivers/lvgl/src/extra/themes/default/lv_theme_default.c ****         lv_obj_add_style(obj, &styles->list_item_grow, LV_STATE_PRESSED);
1065:Drivers/lvgl/src/extra/themes/default/lv_theme_default.c ****         lv_obj_add_style(obj, &styles->pressed, LV_STATE_PRESSED);
1066:Drivers/lvgl/src/extra/themes/default/lv_theme_default.c **** 
1067:Drivers/lvgl/src/extra/themes/default/lv_theme_default.c ****     }
1068:Drivers/lvgl/src/extra/themes/default/lv_theme_default.c **** #endif
1069:Drivers/lvgl/src/extra/themes/default/lv_theme_default.c **** #if LV_USE_MENU
1070:Drivers/lvgl/src/extra/themes/default/lv_theme_default.c ****     else if(lv_obj_check_type(obj, &lv_menu_class)) {
1071:Drivers/lvgl/src/extra/themes/default/lv_theme_default.c ****         lv_obj_add_style(obj, &styles->card, 0);
1072:Drivers/lvgl/src/extra/themes/default/lv_theme_default.c ****         lv_obj_add_style(obj, &styles->menu_bg, 0);
1073:Drivers/lvgl/src/extra/themes/default/lv_theme_default.c ****     }
1074:Drivers/lvgl/src/extra/themes/default/lv_theme_default.c ****     else if(lv_obj_check_type(obj, &lv_menu_sidebar_cont_class)) {
1075:Drivers/lvgl/src/extra/themes/default/lv_theme_default.c ****         lv_obj_add_style(obj, &styles->menu_sidebar_cont, 0);
1076:Drivers/lvgl/src/extra/themes/default/lv_theme_default.c ****         lv_obj_add_style(obj, &styles->scrollbar, LV_PART_SCROLLBAR);
1077:Drivers/lvgl/src/extra/themes/default/lv_theme_default.c ****         lv_obj_add_style(obj, &styles->scrollbar_scrolled, LV_PART_SCROLLBAR | LV_STATE_SCROLLED);
1078:Drivers/lvgl/src/extra/themes/default/lv_theme_default.c ****     }
1079:Drivers/lvgl/src/extra/themes/default/lv_theme_default.c ****     else if(lv_obj_check_type(obj, &lv_menu_main_cont_class)) {
1080:Drivers/lvgl/src/extra/themes/default/lv_theme_default.c ****         lv_obj_add_style(obj, &styles->menu_main_cont, 0);
1081:Drivers/lvgl/src/extra/themes/default/lv_theme_default.c ****         lv_obj_add_style(obj, &styles->scrollbar, LV_PART_SCROLLBAR);
1082:Drivers/lvgl/src/extra/themes/default/lv_theme_default.c ****         lv_obj_add_style(obj, &styles->scrollbar_scrolled, LV_PART_SCROLLBAR | LV_STATE_SCROLLED);
1083:Drivers/lvgl/src/extra/themes/default/lv_theme_default.c ****     }
1084:Drivers/lvgl/src/extra/themes/default/lv_theme_default.c ****     else if(lv_obj_check_type(obj, &lv_menu_cont_class)) {
1085:Drivers/lvgl/src/extra/themes/default/lv_theme_default.c ****         lv_obj_add_style(obj, &styles->menu_cont, 0);
1086:Drivers/lvgl/src/extra/themes/default/lv_theme_default.c ****         lv_obj_add_style(obj, &styles->menu_pressed, LV_STATE_PRESSED);
1087:Drivers/lvgl/src/extra/themes/default/lv_theme_default.c ****         lv_obj_add_style(obj, &styles->bg_color_primary_muted, LV_STATE_PRESSED | LV_STATE_CHECKED)
1088:Drivers/lvgl/src/extra/themes/default/lv_theme_default.c ****         lv_obj_add_style(obj, &styles->bg_color_primary_muted, LV_STATE_CHECKED);
1089:Drivers/lvgl/src/extra/themes/default/lv_theme_default.c ****         lv_obj_add_style(obj, &styles->bg_color_primary, LV_STATE_FOCUS_KEY);
1090:Drivers/lvgl/src/extra/themes/default/lv_theme_default.c ****     }
1091:Drivers/lvgl/src/extra/themes/default/lv_theme_default.c ****     else if(lv_obj_check_type(obj, &lv_menu_sidebar_header_cont_class) ||
1092:Drivers/lvgl/src/extra/themes/default/lv_theme_default.c ****             lv_obj_check_type(obj, &lv_menu_main_header_cont_class)) {
1093:Drivers/lvgl/src/extra/themes/default/lv_theme_default.c ****         lv_obj_add_style(obj, &styles->menu_header_cont, 0);
1094:Drivers/lvgl/src/extra/themes/default/lv_theme_default.c ****     }
1095:Drivers/lvgl/src/extra/themes/default/lv_theme_default.c ****     else if(lv_obj_check_type(obj, &lv_menu_page_class)) {
1096:Drivers/lvgl/src/extra/themes/default/lv_theme_default.c ****         lv_obj_add_style(obj, &styles->menu_page, 0);
1097:Drivers/lvgl/src/extra/themes/default/lv_theme_default.c ****         lv_obj_add_style(obj, &styles->scrollbar, LV_PART_SCROLLBAR);
1098:Drivers/lvgl/src/extra/themes/default/lv_theme_default.c ****         lv_obj_add_style(obj, &styles->scrollbar_scrolled, LV_PART_SCROLLBAR | LV_STATE_SCROLLED);
1099:Drivers/lvgl/src/extra/themes/default/lv_theme_default.c ****     }
1100:Drivers/lvgl/src/extra/themes/default/lv_theme_default.c ****     else if(lv_obj_check_type(obj, &lv_menu_section_class)) {
1101:Drivers/lvgl/src/extra/themes/default/lv_theme_default.c ****         lv_obj_add_style(obj, &styles->menu_section, 0);
1102:Drivers/lvgl/src/extra/themes/default/lv_theme_default.c ****     }
1103:Drivers/lvgl/src/extra/themes/default/lv_theme_default.c ****     else if(lv_obj_check_type(obj, &lv_menu_separator_class)) {
1104:Drivers/lvgl/src/extra/themes/default/lv_theme_default.c ****         lv_obj_add_style(obj, &styles->menu_separator, 0);
1105:Drivers/lvgl/src/extra/themes/default/lv_theme_default.c ****     }
1106:Drivers/lvgl/src/extra/themes/default/lv_theme_default.c **** #endif
1107:Drivers/lvgl/src/extra/themes/default/lv_theme_default.c **** #if LV_USE_MSGBOX
1108:Drivers/lvgl/src/extra/themes/default/lv_theme_default.c ****     else if(lv_obj_check_type(obj, &lv_msgbox_class)) {
1109:Drivers/lvgl/src/extra/themes/default/lv_theme_default.c ****         lv_obj_add_style(obj, &styles->card, 0);
1110:Drivers/lvgl/src/extra/themes/default/lv_theme_default.c ****         lv_obj_add_style(obj, &styles->msgbox_bg, 0);
1111:Drivers/lvgl/src/extra/themes/default/lv_theme_default.c ****         return;
1112:Drivers/lvgl/src/extra/themes/default/lv_theme_default.c ****     }
1113:Drivers/lvgl/src/extra/themes/default/lv_theme_default.c ****     else if(lv_obj_check_type(obj, &lv_msgbox_backdrop_class)) {
1114:Drivers/lvgl/src/extra/themes/default/lv_theme_default.c ****         lv_obj_add_style(obj, &styles->msgbox_backdrop_bg, 0);
1115:Drivers/lvgl/src/extra/themes/default/lv_theme_default.c ****     }
1116:Drivers/lvgl/src/extra/themes/default/lv_theme_default.c **** #endif
1117:Drivers/lvgl/src/extra/themes/default/lv_theme_default.c **** #if LV_USE_SPINBOX
1118:Drivers/lvgl/src/extra/themes/default/lv_theme_default.c ****     else if(lv_obj_check_type(obj, &lv_spinbox_class)) {
1119:Drivers/lvgl/src/extra/themes/default/lv_theme_default.c ****         lv_obj_add_style(obj, &styles->card, 0);
1120:Drivers/lvgl/src/extra/themes/default/lv_theme_default.c ****         lv_obj_add_style(obj, &styles->pad_small, 0);
ARM GAS  /var/folders/0z/tsy30v1j4xl4_7kw94k978ww0000gn/T//ccdBOSjy.s 			page 22


1121:Drivers/lvgl/src/extra/themes/default/lv_theme_default.c ****         lv_obj_add_style(obj, &styles->outline_primary, LV_STATE_FOCUS_KEY);
1122:Drivers/lvgl/src/extra/themes/default/lv_theme_default.c ****         lv_obj_add_style(obj, &styles->outline_secondary, LV_STATE_EDITED);
1123:Drivers/lvgl/src/extra/themes/default/lv_theme_default.c ****         lv_obj_add_style(obj, &styles->bg_color_primary, LV_PART_CURSOR);
1124:Drivers/lvgl/src/extra/themes/default/lv_theme_default.c ****     }
1125:Drivers/lvgl/src/extra/themes/default/lv_theme_default.c **** #endif
1126:Drivers/lvgl/src/extra/themes/default/lv_theme_default.c **** #if LV_USE_TILEVIEW
1127:Drivers/lvgl/src/extra/themes/default/lv_theme_default.c ****     else if(lv_obj_check_type(obj, &lv_tileview_class)) {
1128:Drivers/lvgl/src/extra/themes/default/lv_theme_default.c ****         lv_obj_add_style(obj, &styles->scr, 0);
1129:Drivers/lvgl/src/extra/themes/default/lv_theme_default.c ****         lv_obj_add_style(obj, &styles->scrollbar, LV_PART_SCROLLBAR);
1130:Drivers/lvgl/src/extra/themes/default/lv_theme_default.c ****         lv_obj_add_style(obj, &styles->scrollbar_scrolled, LV_PART_SCROLLBAR | LV_STATE_SCROLLED);
1131:Drivers/lvgl/src/extra/themes/default/lv_theme_default.c ****     }
1132:Drivers/lvgl/src/extra/themes/default/lv_theme_default.c ****     else if(lv_obj_check_type(obj, &lv_tileview_tile_class)) {
1133:Drivers/lvgl/src/extra/themes/default/lv_theme_default.c ****         lv_obj_add_style(obj, &styles->scrollbar, LV_PART_SCROLLBAR);
1134:Drivers/lvgl/src/extra/themes/default/lv_theme_default.c ****         lv_obj_add_style(obj, &styles->scrollbar_scrolled, LV_PART_SCROLLBAR | LV_STATE_SCROLLED);
1135:Drivers/lvgl/src/extra/themes/default/lv_theme_default.c ****     }
1136:Drivers/lvgl/src/extra/themes/default/lv_theme_default.c **** #endif
1137:Drivers/lvgl/src/extra/themes/default/lv_theme_default.c **** 
1138:Drivers/lvgl/src/extra/themes/default/lv_theme_default.c **** #if LV_USE_TABVIEW
1139:Drivers/lvgl/src/extra/themes/default/lv_theme_default.c ****     else if(lv_obj_check_type(obj, &lv_tabview_class)) {
1140:Drivers/lvgl/src/extra/themes/default/lv_theme_default.c ****         lv_obj_add_style(obj, &styles->scr, 0);
1141:Drivers/lvgl/src/extra/themes/default/lv_theme_default.c ****         lv_obj_add_style(obj, &styles->pad_zero, 0);
1142:Drivers/lvgl/src/extra/themes/default/lv_theme_default.c ****     }
1143:Drivers/lvgl/src/extra/themes/default/lv_theme_default.c **** #endif
1144:Drivers/lvgl/src/extra/themes/default/lv_theme_default.c **** 
1145:Drivers/lvgl/src/extra/themes/default/lv_theme_default.c **** #if LV_USE_WIN
1146:Drivers/lvgl/src/extra/themes/default/lv_theme_default.c ****     else if(lv_obj_check_type(obj, &lv_win_class)) {
1147:Drivers/lvgl/src/extra/themes/default/lv_theme_default.c ****         lv_obj_add_style(obj, &styles->clip_corner, 0);
1148:Drivers/lvgl/src/extra/themes/default/lv_theme_default.c ****     }
1149:Drivers/lvgl/src/extra/themes/default/lv_theme_default.c **** #endif
1150:Drivers/lvgl/src/extra/themes/default/lv_theme_default.c **** 
1151:Drivers/lvgl/src/extra/themes/default/lv_theme_default.c **** #if LV_USE_COLORWHEEL
1152:Drivers/lvgl/src/extra/themes/default/lv_theme_default.c ****     else if(lv_obj_check_type(obj, &lv_colorwheel_class)) {
1153:Drivers/lvgl/src/extra/themes/default/lv_theme_default.c ****         lv_obj_add_style(obj, &styles->colorwheel_main, 0);
1154:Drivers/lvgl/src/extra/themes/default/lv_theme_default.c ****         lv_obj_add_style(obj, &styles->pad_normal, 0);
1155:Drivers/lvgl/src/extra/themes/default/lv_theme_default.c ****         lv_obj_add_style(obj, &styles->bg_color_white, LV_PART_KNOB);
1156:Drivers/lvgl/src/extra/themes/default/lv_theme_default.c ****         lv_obj_add_style(obj, &styles->pad_normal, LV_PART_KNOB);
1157:Drivers/lvgl/src/extra/themes/default/lv_theme_default.c ****     }
1158:Drivers/lvgl/src/extra/themes/default/lv_theme_default.c **** #endif
1159:Drivers/lvgl/src/extra/themes/default/lv_theme_default.c **** 
1160:Drivers/lvgl/src/extra/themes/default/lv_theme_default.c **** #if LV_USE_LED
1161:Drivers/lvgl/src/extra/themes/default/lv_theme_default.c ****     else if(lv_obj_check_type(obj, &lv_led_class)) {
1162:Drivers/lvgl/src/extra/themes/default/lv_theme_default.c ****         lv_obj_add_style(obj, &styles->led, 0);
1163:Drivers/lvgl/src/extra/themes/default/lv_theme_default.c ****     }
1164:Drivers/lvgl/src/extra/themes/default/lv_theme_default.c **** #endif
1165:Drivers/lvgl/src/extra/themes/default/lv_theme_default.c **** }
  79              		.loc 1 1165 1 view .LVU16
  80 002a 70BD     		pop	{r4, r5, r6, pc}
  81              	.LVL8:
  82              	.L55:
 703:Drivers/lvgl/src/extra/themes/default/lv_theme_default.c ****         lv_obj_add_style(obj, &styles->scrollbar, LV_PART_SCROLLBAR);
  83              		.loc 1 703 9 is_stmt 1 view .LVU17
 703:Drivers/lvgl/src/extra/themes/default/lv_theme_default.c ****         lv_obj_add_style(obj, &styles->scrollbar, LV_PART_SCROLLBAR);
  84              		.loc 1 703 38 is_stmt 0 view .LVU18
  85 002c AB4D     		ldr	r5, .L65+8
 703:Drivers/lvgl/src/extra/themes/default/lv_theme_default.c ****         lv_obj_add_style(obj, &styles->scrollbar, LV_PART_SCROLLBAR);
  86              		.loc 1 703 9 view .LVU19
  87 002e 0022     		movs	r2, #0
ARM GAS  /var/folders/0z/tsy30v1j4xl4_7kw94k978ww0000gn/T//ccdBOSjy.s 			page 23


  88 0030 2968     		ldr	r1, [r5]
  89 0032 2046     		mov	r0, r4
  90 0034 FFF7FEFF 		bl	lv_obj_add_style
  91              	.LVL9:
 704:Drivers/lvgl/src/extra/themes/default/lv_theme_default.c ****         lv_obj_add_style(obj, &styles->scrollbar_scrolled, LV_PART_SCROLLBAR | LV_STATE_SCROLLED);
  92              		.loc 1 704 9 is_stmt 1 view .LVU20
 704:Drivers/lvgl/src/extra/themes/default/lv_theme_default.c ****         lv_obj_add_style(obj, &styles->scrollbar_scrolled, LV_PART_SCROLLBAR | LV_STATE_SCROLLED);
  93              		.loc 1 704 38 is_stmt 0 view .LVU21
  94 0038 2968     		ldr	r1, [r5]
 704:Drivers/lvgl/src/extra/themes/default/lv_theme_default.c ****         lv_obj_add_style(obj, &styles->scrollbar_scrolled, LV_PART_SCROLLBAR | LV_STATE_SCROLLED);
  95              		.loc 1 704 9 view .LVU22
  96 003a 4FF48032 		mov	r2, #65536
  97 003e 0831     		adds	r1, r1, #8
  98 0040 2046     		mov	r0, r4
  99 0042 FFF7FEFF 		bl	lv_obj_add_style
 100              	.LVL10:
 705:Drivers/lvgl/src/extra/themes/default/lv_theme_default.c ****         return;
 101              		.loc 1 705 9 is_stmt 1 view .LVU23
 705:Drivers/lvgl/src/extra/themes/default/lv_theme_default.c ****         return;
 102              		.loc 1 705 38 is_stmt 0 view .LVU24
 103 0046 2968     		ldr	r1, [r5]
 705:Drivers/lvgl/src/extra/themes/default/lv_theme_default.c ****         return;
 104              		.loc 1 705 9 view .LVU25
 105 0048 A54A     		ldr	r2, .L65+12
 106 004a 1031     		adds	r1, r1, #16
 107 004c 2046     		mov	r0, r4
 108 004e FFF7FEFF 		bl	lv_obj_add_style
 109              	.LVL11:
 706:Drivers/lvgl/src/extra/themes/default/lv_theme_default.c ****     }
 110              		.loc 1 706 9 is_stmt 1 view .LVU26
 111 0052 EAE7     		b	.L1
 112              	.LVL12:
 113              	.L56:
 114              	.LBB45:
 717:Drivers/lvgl/src/extra/themes/default/lv_theme_default.c ****             lv_obj_add_style(obj, &styles->pad_normal, 0);
 115              		.loc 1 717 14 view .LVU27
 717:Drivers/lvgl/src/extra/themes/default/lv_theme_default.c ****             lv_obj_add_style(obj, &styles->pad_normal, 0);
 116              		.loc 1 717 35 is_stmt 0 view .LVU28
 117 0054 2846     		mov	r0, r5
 118 0056 FFF7FEFF 		bl	lv_obj_get_parent
 119              	.LVL13:
 717:Drivers/lvgl/src/extra/themes/default/lv_theme_default.c ****             lv_obj_add_style(obj, &styles->pad_normal, 0);
 120              		.loc 1 717 17 view .LVU29
 121 005a 9F49     		ldr	r1, .L65+4
 122 005c FFF7FEFF 		bl	lv_obj_check_type
 123              	.LVL14:
 717:Drivers/lvgl/src/extra/themes/default/lv_theme_default.c ****             lv_obj_add_style(obj, &styles->pad_normal, 0);
 124              		.loc 1 717 16 view .LVU30
 125 0060 68BB     		cbnz	r0, .L57
 727:Drivers/lvgl/src/extra/themes/default/lv_theme_default.c ****             lv_obj_add_style(obj, &styles->bg_color_grey, 0);
 126              		.loc 1 727 9 is_stmt 1 view .LVU31
 727:Drivers/lvgl/src/extra/themes/default/lv_theme_default.c ****             lv_obj_add_style(obj, &styles->bg_color_grey, 0);
 127              		.loc 1 727 12 is_stmt 0 view .LVU32
 128 0062 2046     		mov	r0, r4
 129 0064 FFF7FEFF 		bl	lv_obj_get_index
 130              	.LVL15:
 727:Drivers/lvgl/src/extra/themes/default/lv_theme_default.c ****             lv_obj_add_style(obj, &styles->bg_color_grey, 0);
ARM GAS  /var/folders/0z/tsy30v1j4xl4_7kw94k978ww0000gn/T//ccdBOSjy.s 			page 24


 131              		.loc 1 727 11 view .LVU33
 132 0068 38B9     		cbnz	r0, .L6
 727:Drivers/lvgl/src/extra/themes/default/lv_theme_default.c ****             lv_obj_add_style(obj, &styles->bg_color_grey, 0);
 133              		.loc 1 727 60 discriminator 1 view .LVU34
 134 006a 2046     		mov	r0, r4
 135 006c FFF7FEFF 		bl	lv_obj_get_parent
 136              	.LVL16:
 727:Drivers/lvgl/src/extra/themes/default/lv_theme_default.c ****             lv_obj_add_style(obj, &styles->bg_color_grey, 0);
 137              		.loc 1 727 42 discriminator 1 view .LVU35
 138 0070 9C49     		ldr	r1, .L65+16
 139 0072 FFF7FEFF 		bl	lv_obj_check_type
 140              	.LVL17:
 727:Drivers/lvgl/src/extra/themes/default/lv_theme_default.c ****             lv_obj_add_style(obj, &styles->bg_color_grey, 0);
 141              		.loc 1 727 39 discriminator 1 view .LVU36
 142 0076 0028     		cmp	r0, #0
 143 0078 36D1     		bne	.L58
 144              	.L6:
 733:Drivers/lvgl/src/extra/themes/default/lv_theme_default.c ****             lv_obj_add_style(obj, &styles->scr, 0);
 145              		.loc 1 733 14 is_stmt 1 view .LVU37
 733:Drivers/lvgl/src/extra/themes/default/lv_theme_default.c ****             lv_obj_add_style(obj, &styles->scr, 0);
 146              		.loc 1 733 17 is_stmt 0 view .LVU38
 147 007a 2046     		mov	r0, r4
 148 007c FFF7FEFF 		bl	lv_obj_get_index
 149              	.LVL18:
 733:Drivers/lvgl/src/extra/themes/default/lv_theme_default.c ****             lv_obj_add_style(obj, &styles->scr, 0);
 150              		.loc 1 733 16 view .LVU39
 151 0080 0128     		cmp	r0, #1
 152 0082 3FD0     		beq	.L59
 153              	.L7:
 744:Drivers/lvgl/src/extra/themes/default/lv_theme_default.c ****             /*No style*/
 154              		.loc 1 744 9 is_stmt 1 view .LVU40
 744:Drivers/lvgl/src/extra/themes/default/lv_theme_default.c ****             /*No style*/
 155              		.loc 1 744 30 is_stmt 0 view .LVU41
 156 0084 2046     		mov	r0, r4
 157 0086 FFF7FEFF 		bl	lv_obj_get_parent
 158              	.LVL19:
 744:Drivers/lvgl/src/extra/themes/default/lv_theme_default.c ****             /*No style*/
 159              		.loc 1 744 12 view .LVU42
 160 008a 9749     		ldr	r1, .L65+20
 161 008c FFF7FEFF 		bl	lv_obj_check_type
 162              	.LVL20:
 744:Drivers/lvgl/src/extra/themes/default/lv_theme_default.c ****             /*No style*/
 163              		.loc 1 744 11 view .LVU43
 164 0090 0028     		cmp	r0, #0
 165 0092 CAD1     		bne	.L1
 750:Drivers/lvgl/src/extra/themes/default/lv_theme_default.c ****         lv_obj_add_style(obj, &styles->scrollbar, LV_PART_SCROLLBAR);
 166              		.loc 1 750 9 is_stmt 1 view .LVU44
 750:Drivers/lvgl/src/extra/themes/default/lv_theme_default.c ****         lv_obj_add_style(obj, &styles->scrollbar, LV_PART_SCROLLBAR);
 167              		.loc 1 750 38 is_stmt 0 view .LVU45
 168 0094 914D     		ldr	r5, .L65+8
 169              	.LVL21:
 750:Drivers/lvgl/src/extra/themes/default/lv_theme_default.c ****         lv_obj_add_style(obj, &styles->scrollbar, LV_PART_SCROLLBAR);
 170              		.loc 1 750 38 view .LVU46
 171 0096 2968     		ldr	r1, [r5]
 750:Drivers/lvgl/src/extra/themes/default/lv_theme_default.c ****         lv_obj_add_style(obj, &styles->scrollbar, LV_PART_SCROLLBAR);
 172              		.loc 1 750 9 view .LVU47
 173 0098 0022     		movs	r2, #0
ARM GAS  /var/folders/0z/tsy30v1j4xl4_7kw94k978ww0000gn/T//ccdBOSjy.s 			page 25


 174 009a 1831     		adds	r1, r1, #24
 175 009c 2046     		mov	r0, r4
 176 009e FFF7FEFF 		bl	lv_obj_add_style
 177              	.LVL22:
 751:Drivers/lvgl/src/extra/themes/default/lv_theme_default.c ****         lv_obj_add_style(obj, &styles->scrollbar_scrolled, LV_PART_SCROLLBAR | LV_STATE_SCROLLED);
 178              		.loc 1 751 9 is_stmt 1 view .LVU48
 751:Drivers/lvgl/src/extra/themes/default/lv_theme_default.c ****         lv_obj_add_style(obj, &styles->scrollbar_scrolled, LV_PART_SCROLLBAR | LV_STATE_SCROLLED);
 179              		.loc 1 751 38 is_stmt 0 view .LVU49
 180 00a2 2968     		ldr	r1, [r5]
 751:Drivers/lvgl/src/extra/themes/default/lv_theme_default.c ****         lv_obj_add_style(obj, &styles->scrollbar_scrolled, LV_PART_SCROLLBAR | LV_STATE_SCROLLED);
 181              		.loc 1 751 9 view .LVU50
 182 00a4 4FF48032 		mov	r2, #65536
 183 00a8 0831     		adds	r1, r1, #8
 184 00aa 2046     		mov	r0, r4
 185 00ac FFF7FEFF 		bl	lv_obj_add_style
 186              	.LVL23:
 752:Drivers/lvgl/src/extra/themes/default/lv_theme_default.c ****     }
 187              		.loc 1 752 9 is_stmt 1 view .LVU51
 752:Drivers/lvgl/src/extra/themes/default/lv_theme_default.c ****     }
 188              		.loc 1 752 38 is_stmt 0 view .LVU52
 189 00b0 2968     		ldr	r1, [r5]
 752:Drivers/lvgl/src/extra/themes/default/lv_theme_default.c ****     }
 190              		.loc 1 752 9 view .LVU53
 191 00b2 8B4A     		ldr	r2, .L65+12
 192 00b4 1031     		adds	r1, r1, #16
 193 00b6 2046     		mov	r0, r4
 194 00b8 FFF7FEFF 		bl	lv_obj_add_style
 195              	.LVL24:
 196              	.LBE45:
 197 00bc B5E7     		b	.L1
 198              	.LVL25:
 199              	.L57:
 200              	.LBB46:
 718:Drivers/lvgl/src/extra/themes/default/lv_theme_default.c ****             lv_obj_add_style(obj, &styles->scrollbar, LV_PART_SCROLLBAR);
 201              		.loc 1 718 13 is_stmt 1 view .LVU54
 718:Drivers/lvgl/src/extra/themes/default/lv_theme_default.c ****             lv_obj_add_style(obj, &styles->scrollbar, LV_PART_SCROLLBAR);
 202              		.loc 1 718 42 is_stmt 0 view .LVU55
 203 00be 874D     		ldr	r5, .L65+8
 204              	.LVL26:
 718:Drivers/lvgl/src/extra/themes/default/lv_theme_default.c ****             lv_obj_add_style(obj, &styles->scrollbar, LV_PART_SCROLLBAR);
 205              		.loc 1 718 42 view .LVU56
 206 00c0 2968     		ldr	r1, [r5]
 718:Drivers/lvgl/src/extra/themes/default/lv_theme_default.c ****             lv_obj_add_style(obj, &styles->scrollbar, LV_PART_SCROLLBAR);
 207              		.loc 1 718 13 view .LVU57
 208 00c2 0022     		movs	r2, #0
 209 00c4 8031     		adds	r1, r1, #128
 210 00c6 2046     		mov	r0, r4
 211 00c8 FFF7FEFF 		bl	lv_obj_add_style
 212              	.LVL27:
 719:Drivers/lvgl/src/extra/themes/default/lv_theme_default.c ****             lv_obj_add_style(obj, &styles->scrollbar_scrolled, LV_PART_SCROLLBAR | LV_STATE_SCROLLE
 213              		.loc 1 719 13 is_stmt 1 view .LVU58
 719:Drivers/lvgl/src/extra/themes/default/lv_theme_default.c ****             lv_obj_add_style(obj, &styles->scrollbar_scrolled, LV_PART_SCROLLBAR | LV_STATE_SCROLLE
 214              		.loc 1 719 42 is_stmt 0 view .LVU59
 215 00cc 2968     		ldr	r1, [r5]
 719:Drivers/lvgl/src/extra/themes/default/lv_theme_default.c ****             lv_obj_add_style(obj, &styles->scrollbar_scrolled, LV_PART_SCROLLBAR | LV_STATE_SCROLLE
 216              		.loc 1 719 13 view .LVU60
 217 00ce 4FF48032 		mov	r2, #65536
ARM GAS  /var/folders/0z/tsy30v1j4xl4_7kw94k978ww0000gn/T//ccdBOSjy.s 			page 26


 218 00d2 0831     		adds	r1, r1, #8
 219 00d4 2046     		mov	r0, r4
 220 00d6 FFF7FEFF 		bl	lv_obj_add_style
 221              	.LVL28:
 720:Drivers/lvgl/src/extra/themes/default/lv_theme_default.c ****             return;
 222              		.loc 1 720 13 is_stmt 1 view .LVU61
 720:Drivers/lvgl/src/extra/themes/default/lv_theme_default.c ****             return;
 223              		.loc 1 720 42 is_stmt 0 view .LVU62
 224 00da 2968     		ldr	r1, [r5]
 720:Drivers/lvgl/src/extra/themes/default/lv_theme_default.c ****             return;
 225              		.loc 1 720 13 view .LVU63
 226 00dc 804A     		ldr	r2, .L65+12
 227 00de 1031     		adds	r1, r1, #16
 228 00e0 2046     		mov	r0, r4
 229 00e2 FFF7FEFF 		bl	lv_obj_add_style
 230              	.LVL29:
 721:Drivers/lvgl/src/extra/themes/default/lv_theme_default.c ****         }
 231              		.loc 1 721 13 is_stmt 1 view .LVU64
 232 00e6 A0E7     		b	.L1
 233              	.LVL30:
 234              	.L58:
 728:Drivers/lvgl/src/extra/themes/default/lv_theme_default.c ****             lv_obj_add_style(obj, &styles->pad_tiny, 0);
 235              		.loc 1 728 13 view .LVU65
 728:Drivers/lvgl/src/extra/themes/default/lv_theme_default.c ****             lv_obj_add_style(obj, &styles->pad_tiny, 0);
 236              		.loc 1 728 42 is_stmt 0 view .LVU66
 237 00e8 7C4D     		ldr	r5, .L65+8
 238              	.LVL31:
 728:Drivers/lvgl/src/extra/themes/default/lv_theme_default.c ****             lv_obj_add_style(obj, &styles->pad_tiny, 0);
 239              		.loc 1 728 42 view .LVU67
 240 00ea 2968     		ldr	r1, [r5]
 728:Drivers/lvgl/src/extra/themes/default/lv_theme_default.c ****             lv_obj_add_style(obj, &styles->pad_tiny, 0);
 241              		.loc 1 728 13 view .LVU68
 242 00ec 0022     		movs	r2, #0
 243 00ee 4831     		adds	r1, r1, #72
 244 00f0 2046     		mov	r0, r4
 245 00f2 FFF7FEFF 		bl	lv_obj_add_style
 246              	.LVL32:
 729:Drivers/lvgl/src/extra/themes/default/lv_theme_default.c ****             return;
 247              		.loc 1 729 13 is_stmt 1 view .LVU69
 729:Drivers/lvgl/src/extra/themes/default/lv_theme_default.c ****             return;
 248              		.loc 1 729 42 is_stmt 0 view .LVU70
 249 00f6 2968     		ldr	r1, [r5]
 729:Drivers/lvgl/src/extra/themes/default/lv_theme_default.c ****             return;
 250              		.loc 1 729 13 view .LVU71
 251 00f8 0022     		movs	r2, #0
 252 00fa 7031     		adds	r1, r1, #112
 253 00fc 2046     		mov	r0, r4
 254 00fe FFF7FEFF 		bl	lv_obj_add_style
 255              	.LVL33:
 730:Drivers/lvgl/src/extra/themes/default/lv_theme_default.c ****         }
 256              		.loc 1 730 13 is_stmt 1 view .LVU72
 257 0102 92E7     		b	.L1
 258              	.LVL34:
 259              	.L59:
 733:Drivers/lvgl/src/extra/themes/default/lv_theme_default.c ****             lv_obj_add_style(obj, &styles->scr, 0);
 260              		.loc 1 733 65 is_stmt 0 discriminator 1 view .LVU73
 261 0104 2046     		mov	r0, r4
ARM GAS  /var/folders/0z/tsy30v1j4xl4_7kw94k978ww0000gn/T//ccdBOSjy.s 			page 27


 262 0106 FFF7FEFF 		bl	lv_obj_get_parent
 263              	.LVL35:
 733:Drivers/lvgl/src/extra/themes/default/lv_theme_default.c ****             lv_obj_add_style(obj, &styles->scr, 0);
 264              		.loc 1 733 47 discriminator 1 view .LVU74
 265 010a 7649     		ldr	r1, .L65+16
 266 010c FFF7FEFF 		bl	lv_obj_check_type
 267              	.LVL36:
 733:Drivers/lvgl/src/extra/themes/default/lv_theme_default.c ****             lv_obj_add_style(obj, &styles->scr, 0);
 268              		.loc 1 733 44 discriminator 1 view .LVU75
 269 0110 0028     		cmp	r0, #0
 270 0112 B7D0     		beq	.L7
 734:Drivers/lvgl/src/extra/themes/default/lv_theme_default.c ****             lv_obj_add_style(obj, &styles->pad_normal, 0);
 271              		.loc 1 734 13 is_stmt 1 view .LVU76
 734:Drivers/lvgl/src/extra/themes/default/lv_theme_default.c ****             lv_obj_add_style(obj, &styles->pad_normal, 0);
 272              		.loc 1 734 42 is_stmt 0 view .LVU77
 273 0114 714D     		ldr	r5, .L65+8
 274              	.LVL37:
 734:Drivers/lvgl/src/extra/themes/default/lv_theme_default.c ****             lv_obj_add_style(obj, &styles->pad_normal, 0);
 275              		.loc 1 734 13 view .LVU78
 276 0116 0022     		movs	r2, #0
 277 0118 2968     		ldr	r1, [r5]
 278 011a 2046     		mov	r0, r4
 279 011c FFF7FEFF 		bl	lv_obj_add_style
 280              	.LVL38:
 735:Drivers/lvgl/src/extra/themes/default/lv_theme_default.c ****             lv_obj_add_style(obj, &styles->scrollbar, LV_PART_SCROLLBAR);
 281              		.loc 1 735 13 is_stmt 1 view .LVU79
 735:Drivers/lvgl/src/extra/themes/default/lv_theme_default.c ****             lv_obj_add_style(obj, &styles->scrollbar, LV_PART_SCROLLBAR);
 282              		.loc 1 735 42 is_stmt 0 view .LVU80
 283 0120 2968     		ldr	r1, [r5]
 735:Drivers/lvgl/src/extra/themes/default/lv_theme_default.c ****             lv_obj_add_style(obj, &styles->scrollbar, LV_PART_SCROLLBAR);
 284              		.loc 1 735 13 view .LVU81
 285 0122 0022     		movs	r2, #0
 286 0124 8031     		adds	r1, r1, #128
 287 0126 2046     		mov	r0, r4
 288 0128 FFF7FEFF 		bl	lv_obj_add_style
 289              	.LVL39:
 736:Drivers/lvgl/src/extra/themes/default/lv_theme_default.c ****             lv_obj_add_style(obj, &styles->scrollbar_scrolled, LV_PART_SCROLLBAR | LV_STATE_SCROLLE
 290              		.loc 1 736 13 is_stmt 1 view .LVU82
 736:Drivers/lvgl/src/extra/themes/default/lv_theme_default.c ****             lv_obj_add_style(obj, &styles->scrollbar_scrolled, LV_PART_SCROLLBAR | LV_STATE_SCROLLE
 291              		.loc 1 736 42 is_stmt 0 view .LVU83
 292 012c 2968     		ldr	r1, [r5]
 736:Drivers/lvgl/src/extra/themes/default/lv_theme_default.c ****             lv_obj_add_style(obj, &styles->scrollbar_scrolled, LV_PART_SCROLLBAR | LV_STATE_SCROLLE
 293              		.loc 1 736 13 view .LVU84
 294 012e 4FF48032 		mov	r2, #65536
 295 0132 0831     		adds	r1, r1, #8
 296 0134 2046     		mov	r0, r4
 297 0136 FFF7FEFF 		bl	lv_obj_add_style
 298              	.LVL40:
 737:Drivers/lvgl/src/extra/themes/default/lv_theme_default.c ****             return;
 299              		.loc 1 737 13 is_stmt 1 view .LVU85
 737:Drivers/lvgl/src/extra/themes/default/lv_theme_default.c ****             return;
 300              		.loc 1 737 42 is_stmt 0 view .LVU86
 301 013a 2968     		ldr	r1, [r5]
 737:Drivers/lvgl/src/extra/themes/default/lv_theme_default.c ****             return;
 302              		.loc 1 737 13 view .LVU87
 303 013c 684A     		ldr	r2, .L65+12
 304 013e 1031     		adds	r1, r1, #16
ARM GAS  /var/folders/0z/tsy30v1j4xl4_7kw94k978ww0000gn/T//ccdBOSjy.s 			page 28


 305 0140 2046     		mov	r0, r4
 306 0142 FFF7FEFF 		bl	lv_obj_add_style
 307              	.LVL41:
 738:Drivers/lvgl/src/extra/themes/default/lv_theme_default.c ****         }
 308              		.loc 1 738 13 is_stmt 1 view .LVU88
 309 0146 70E7     		b	.L1
 310              	.L4:
 738:Drivers/lvgl/src/extra/themes/default/lv_theme_default.c ****         }
 311              		.loc 1 738 13 is_stmt 0 view .LVU89
 312              	.LBE46:
 755:Drivers/lvgl/src/extra/themes/default/lv_theme_default.c ****         lv_obj_add_style(obj, &styles->btn, 0);
 313              		.loc 1 755 10 is_stmt 1 view .LVU90
 755:Drivers/lvgl/src/extra/themes/default/lv_theme_default.c ****         lv_obj_add_style(obj, &styles->btn, 0);
 314              		.loc 1 755 13 is_stmt 0 view .LVU91
 315 0148 6849     		ldr	r1, .L65+24
 316 014a 2046     		mov	r0, r4
 317 014c FFF7FEFF 		bl	lv_obj_check_type
 318              	.LVL42:
 755:Drivers/lvgl/src/extra/themes/default/lv_theme_default.c ****         lv_obj_add_style(obj, &styles->btn, 0);
 319              		.loc 1 755 12 view .LVU92
 320 0150 0028     		cmp	r0, #0
 321 0152 56D0     		beq	.L8
 756:Drivers/lvgl/src/extra/themes/default/lv_theme_default.c ****         lv_obj_add_style(obj, &styles->bg_color_primary, 0);
 322              		.loc 1 756 9 is_stmt 1 view .LVU93
 756:Drivers/lvgl/src/extra/themes/default/lv_theme_default.c ****         lv_obj_add_style(obj, &styles->bg_color_primary, 0);
 323              		.loc 1 756 38 is_stmt 0 view .LVU94
 324 0154 614D     		ldr	r5, .L65+8
 325 0156 2968     		ldr	r1, [r5]
 756:Drivers/lvgl/src/extra/themes/default/lv_theme_default.c ****         lv_obj_add_style(obj, &styles->bg_color_primary, 0);
 326              		.loc 1 756 9 view .LVU95
 327 0158 0022     		movs	r2, #0
 328 015a 2031     		adds	r1, r1, #32
 329 015c 2046     		mov	r0, r4
 330 015e FFF7FEFF 		bl	lv_obj_add_style
 331              	.LVL43:
 757:Drivers/lvgl/src/extra/themes/default/lv_theme_default.c ****         lv_obj_add_style(obj, &styles->transition_delayed, 0);
 332              		.loc 1 757 9 is_stmt 1 view .LVU96
 757:Drivers/lvgl/src/extra/themes/default/lv_theme_default.c ****         lv_obj_add_style(obj, &styles->transition_delayed, 0);
 333              		.loc 1 757 38 is_stmt 0 view .LVU97
 334 0162 2968     		ldr	r1, [r5]
 757:Drivers/lvgl/src/extra/themes/default/lv_theme_default.c ****         lv_obj_add_style(obj, &styles->transition_delayed, 0);
 335              		.loc 1 757 9 view .LVU98
 336 0164 0022     		movs	r2, #0
 337 0166 2831     		adds	r1, r1, #40
 338 0168 2046     		mov	r0, r4
 339 016a FFF7FEFF 		bl	lv_obj_add_style
 340              	.LVL44:
 758:Drivers/lvgl/src/extra/themes/default/lv_theme_default.c ****         lv_obj_add_style(obj, &styles->pressed, LV_STATE_PRESSED);
 341              		.loc 1 758 9 is_stmt 1 view .LVU99
 758:Drivers/lvgl/src/extra/themes/default/lv_theme_default.c ****         lv_obj_add_style(obj, &styles->pressed, LV_STATE_PRESSED);
 342              		.loc 1 758 38 is_stmt 0 view .LVU100
 343 016e 2968     		ldr	r1, [r5]
 758:Drivers/lvgl/src/extra/themes/default/lv_theme_default.c ****         lv_obj_add_style(obj, &styles->pressed, LV_STATE_PRESSED);
 344              		.loc 1 758 9 view .LVU101
 345 0170 0022     		movs	r2, #0
 346 0172 D031     		adds	r1, r1, #208
 347 0174 2046     		mov	r0, r4
ARM GAS  /var/folders/0z/tsy30v1j4xl4_7kw94k978ww0000gn/T//ccdBOSjy.s 			page 29


 348 0176 FFF7FEFF 		bl	lv_obj_add_style
 349              	.LVL45:
 759:Drivers/lvgl/src/extra/themes/default/lv_theme_default.c ****         lv_obj_add_style(obj, &styles->transition_normal, LV_STATE_PRESSED);
 350              		.loc 1 759 9 is_stmt 1 view .LVU102
 759:Drivers/lvgl/src/extra/themes/default/lv_theme_default.c ****         lv_obj_add_style(obj, &styles->transition_normal, LV_STATE_PRESSED);
 351              		.loc 1 759 38 is_stmt 0 view .LVU103
 352 017a 2968     		ldr	r1, [r5]
 759:Drivers/lvgl/src/extra/themes/default/lv_theme_default.c ****         lv_obj_add_style(obj, &styles->transition_normal, LV_STATE_PRESSED);
 353              		.loc 1 759 9 view .LVU104
 354 017c 2022     		movs	r2, #32
 355 017e 5831     		adds	r1, r1, #88
 356 0180 2046     		mov	r0, r4
 357 0182 FFF7FEFF 		bl	lv_obj_add_style
 358              	.LVL46:
 760:Drivers/lvgl/src/extra/themes/default/lv_theme_default.c ****         lv_obj_add_style(obj, &styles->outline_primary, LV_STATE_FOCUS_KEY);
 359              		.loc 1 760 9 is_stmt 1 view .LVU105
 760:Drivers/lvgl/src/extra/themes/default/lv_theme_default.c ****         lv_obj_add_style(obj, &styles->outline_primary, LV_STATE_FOCUS_KEY);
 360              		.loc 1 760 38 is_stmt 0 view .LVU106
 361 0186 2968     		ldr	r1, [r5]
 760:Drivers/lvgl/src/extra/themes/default/lv_theme_default.c ****         lv_obj_add_style(obj, &styles->outline_primary, LV_STATE_FOCUS_KEY);
 362              		.loc 1 760 9 view .LVU107
 363 0188 2022     		movs	r2, #32
 364 018a D831     		adds	r1, r1, #216
 365 018c 2046     		mov	r0, r4
 366 018e FFF7FEFF 		bl	lv_obj_add_style
 367              	.LVL47:
 761:Drivers/lvgl/src/extra/themes/default/lv_theme_default.c **** #if LV_THEME_DEFAULT_GROW
 368              		.loc 1 761 9 is_stmt 1 view .LVU108
 761:Drivers/lvgl/src/extra/themes/default/lv_theme_default.c **** #if LV_THEME_DEFAULT_GROW
 369              		.loc 1 761 38 is_stmt 0 view .LVU109
 370 0192 2968     		ldr	r1, [r5]
 761:Drivers/lvgl/src/extra/themes/default/lv_theme_default.c **** #if LV_THEME_DEFAULT_GROW
 371              		.loc 1 761 9 view .LVU110
 372 0194 0422     		movs	r2, #4
 373 0196 A031     		adds	r1, r1, #160
 374 0198 2046     		mov	r0, r4
 375 019a FFF7FEFF 		bl	lv_obj_add_style
 376              	.LVL48:
 763:Drivers/lvgl/src/extra/themes/default/lv_theme_default.c **** #endif
 377              		.loc 1 763 9 is_stmt 1 view .LVU111
 763:Drivers/lvgl/src/extra/themes/default/lv_theme_default.c **** #endif
 378              		.loc 1 763 38 is_stmt 0 view .LVU112
 379 019e 2968     		ldr	r1, [r5]
 763:Drivers/lvgl/src/extra/themes/default/lv_theme_default.c **** #endif
 380              		.loc 1 763 9 view .LVU113
 381 01a0 2022     		movs	r2, #32
 382 01a2 C831     		adds	r1, r1, #200
 383 01a4 2046     		mov	r0, r4
 384 01a6 FFF7FEFF 		bl	lv_obj_add_style
 385              	.LVL49:
 765:Drivers/lvgl/src/extra/themes/default/lv_theme_default.c ****         lv_obj_add_style(obj, &styles->disabled, LV_STATE_DISABLED);
 386              		.loc 1 765 9 is_stmt 1 view .LVU114
 765:Drivers/lvgl/src/extra/themes/default/lv_theme_default.c ****         lv_obj_add_style(obj, &styles->disabled, LV_STATE_DISABLED);
 387              		.loc 1 765 38 is_stmt 0 view .LVU115
 388 01aa 2968     		ldr	r1, [r5]
 765:Drivers/lvgl/src/extra/themes/default/lv_theme_default.c ****         lv_obj_add_style(obj, &styles->disabled, LV_STATE_DISABLED);
 389              		.loc 1 765 9 view .LVU116
ARM GAS  /var/folders/0z/tsy30v1j4xl4_7kw94k978ww0000gn/T//ccdBOSjy.s 			page 30


 390 01ac 0122     		movs	r2, #1
 391 01ae 3831     		adds	r1, r1, #56
 392 01b0 2046     		mov	r0, r4
 393 01b2 FFF7FEFF 		bl	lv_obj_add_style
 394              	.LVL50:
 766:Drivers/lvgl/src/extra/themes/default/lv_theme_default.c **** 
 395              		.loc 1 766 9 is_stmt 1 view .LVU117
 766:Drivers/lvgl/src/extra/themes/default/lv_theme_default.c **** 
 396              		.loc 1 766 38 is_stmt 0 view .LVU118
 397 01b6 2968     		ldr	r1, [r5]
 766:Drivers/lvgl/src/extra/themes/default/lv_theme_default.c **** 
 398              		.loc 1 766 9 view .LVU119
 399 01b8 8022     		movs	r2, #128
 400 01ba 6031     		adds	r1, r1, #96
 401 01bc 2046     		mov	r0, r4
 402 01be FFF7FEFF 		bl	lv_obj_add_style
 403              	.LVL51:
 769:Drivers/lvgl/src/extra/themes/default/lv_theme_default.c ****            lv_obj_check_type(lv_obj_get_parent(obj), &lv_menu_main_header_cont_class)) {
 404              		.loc 1 769 9 is_stmt 1 view .LVU120
 769:Drivers/lvgl/src/extra/themes/default/lv_theme_default.c ****            lv_obj_check_type(lv_obj_get_parent(obj), &lv_menu_main_header_cont_class)) {
 405              		.loc 1 769 30 is_stmt 0 view .LVU121
 406 01c2 2046     		mov	r0, r4
 407 01c4 FFF7FEFF 		bl	lv_obj_get_parent
 408              	.LVL52:
 769:Drivers/lvgl/src/extra/themes/default/lv_theme_default.c ****            lv_obj_check_type(lv_obj_get_parent(obj), &lv_menu_main_header_cont_class)) {
 409              		.loc 1 769 12 view .LVU122
 410 01c8 4949     		ldr	r1, .L65+28
 411 01ca FFF7FEFF 		bl	lv_obj_check_type
 412              	.LVL53:
 769:Drivers/lvgl/src/extra/themes/default/lv_theme_default.c ****            lv_obj_check_type(lv_obj_get_parent(obj), &lv_menu_main_header_cont_class)) {
 413              		.loc 1 769 11 view .LVU123
 414 01ce 40B9     		cbnz	r0, .L9
 770:Drivers/lvgl/src/extra/themes/default/lv_theme_default.c ****             lv_obj_add_style(obj, &styles->menu_header_btn, 0);
 415              		.loc 1 770 30 discriminator 1 view .LVU124
 416 01d0 2046     		mov	r0, r4
 417 01d2 FFF7FEFF 		bl	lv_obj_get_parent
 418              	.LVL54:
 770:Drivers/lvgl/src/extra/themes/default/lv_theme_default.c ****             lv_obj_add_style(obj, &styles->menu_header_btn, 0);
 419              		.loc 1 770 12 discriminator 1 view .LVU125
 420 01d6 4749     		ldr	r1, .L65+32
 421 01d8 FFF7FEFF 		bl	lv_obj_check_type
 422              	.LVL55:
 769:Drivers/lvgl/src/extra/themes/default/lv_theme_default.c ****            lv_obj_check_type(lv_obj_get_parent(obj), &lv_menu_main_header_cont_class)) {
 423              		.loc 1 769 90 discriminator 1 view .LVU126
 424 01dc 0028     		cmp	r0, #0
 425 01de 3FF424AF 		beq	.L1
 426              	.L9:
 771:Drivers/lvgl/src/extra/themes/default/lv_theme_default.c ****             lv_obj_add_style(obj, &styles->menu_pressed, LV_STATE_PRESSED);
 427              		.loc 1 771 13 is_stmt 1 view .LVU127
 771:Drivers/lvgl/src/extra/themes/default/lv_theme_default.c ****             lv_obj_add_style(obj, &styles->menu_pressed, LV_STATE_PRESSED);
 428              		.loc 1 771 42 is_stmt 0 view .LVU128
 429 01e2 3E4D     		ldr	r5, .L65+8
 430 01e4 2968     		ldr	r1, [r5]
 771:Drivers/lvgl/src/extra/themes/default/lv_theme_default.c ****             lv_obj_add_style(obj, &styles->menu_pressed, LV_STATE_PRESSED);
 431              		.loc 1 771 13 view .LVU129
 432 01e6 0022     		movs	r2, #0
 433 01e8 01F5E871 		add	r1, r1, #464
ARM GAS  /var/folders/0z/tsy30v1j4xl4_7kw94k978ww0000gn/T//ccdBOSjy.s 			page 31


 434 01ec 2046     		mov	r0, r4
 435 01ee FFF7FEFF 		bl	lv_obj_add_style
 436              	.LVL56:
 772:Drivers/lvgl/src/extra/themes/default/lv_theme_default.c ****         }
 437              		.loc 1 772 13 is_stmt 1 view .LVU130
 772:Drivers/lvgl/src/extra/themes/default/lv_theme_default.c ****         }
 438              		.loc 1 772 42 is_stmt 0 view .LVU131
 439 01f2 2968     		ldr	r1, [r5]
 772:Drivers/lvgl/src/extra/themes/default/lv_theme_default.c ****         }
 440              		.loc 1 772 13 view .LVU132
 441 01f4 2022     		movs	r2, #32
 442 01f6 01F5F071 		add	r1, r1, #480
 443 01fa 2046     		mov	r0, r4
 444 01fc FFF7FEFF 		bl	lv_obj_add_style
 445              	.LVL57:
 446 0200 13E7     		b	.L1
 447              	.L8:
 779:Drivers/lvgl/src/extra/themes/default/lv_theme_default.c ****         lv_obj_add_style(obj, &styles->line, 0);
 448              		.loc 1 779 10 is_stmt 1 view .LVU133
 779:Drivers/lvgl/src/extra/themes/default/lv_theme_default.c ****         lv_obj_add_style(obj, &styles->line, 0);
 449              		.loc 1 779 13 is_stmt 0 view .LVU134
 450 0202 3D49     		ldr	r1, .L65+36
 451 0204 2046     		mov	r0, r4
 452 0206 FFF7FEFF 		bl	lv_obj_check_type
 453              	.LVL58:
 779:Drivers/lvgl/src/extra/themes/default/lv_theme_default.c ****         lv_obj_add_style(obj, &styles->line, 0);
 454              		.loc 1 779 12 view .LVU135
 455 020a 40B1     		cbz	r0, .L10
 780:Drivers/lvgl/src/extra/themes/default/lv_theme_default.c ****     }
 456              		.loc 1 780 9 is_stmt 1 view .LVU136
 780:Drivers/lvgl/src/extra/themes/default/lv_theme_default.c ****     }
 457              		.loc 1 780 38 is_stmt 0 view .LVU137
 458 020c 334B     		ldr	r3, .L65+8
 459 020e 1968     		ldr	r1, [r3]
 780:Drivers/lvgl/src/extra/themes/default/lv_theme_default.c ****     }
 460              		.loc 1 780 9 view .LVU138
 461 0210 0022     		movs	r2, #0
 462 0212 01F5A871 		add	r1, r1, #336
 463 0216 2046     		mov	r0, r4
 464 0218 FFF7FEFF 		bl	lv_obj_add_style
 465              	.LVL59:
 466 021c 05E7     		b	.L1
 467              	.L10:
 785:Drivers/lvgl/src/extra/themes/default/lv_theme_default.c **** #if LV_USE_MSGBOX
 468              		.loc 1 785 10 is_stmt 1 view .LVU139
 785:Drivers/lvgl/src/extra/themes/default/lv_theme_default.c **** #if LV_USE_MSGBOX
 469              		.loc 1 785 13 is_stmt 0 view .LVU140
 470 021e 3749     		ldr	r1, .L65+40
 471 0220 2046     		mov	r0, r4
 472 0222 FFF7FEFF 		bl	lv_obj_check_type
 473              	.LVL60:
 785:Drivers/lvgl/src/extra/themes/default/lv_theme_default.c **** #if LV_USE_MSGBOX
 474              		.loc 1 785 12 view .LVU141
 475 0226 0028     		cmp	r0, #0
 476 0228 00F01C81 		beq	.L11
 787:Drivers/lvgl/src/extra/themes/default/lv_theme_default.c ****             lv_obj_add_style(obj, &styles->msgbox_btn_bg, 0);
 477              		.loc 1 787 9 is_stmt 1 view .LVU142
ARM GAS  /var/folders/0z/tsy30v1j4xl4_7kw94k978ww0000gn/T//ccdBOSjy.s 			page 32


 787:Drivers/lvgl/src/extra/themes/default/lv_theme_default.c ****             lv_obj_add_style(obj, &styles->msgbox_btn_bg, 0);
 478              		.loc 1 787 30 is_stmt 0 view .LVU143
 479 022c 2046     		mov	r0, r4
 480 022e FFF7FEFF 		bl	lv_obj_get_parent
 481              	.LVL61:
 787:Drivers/lvgl/src/extra/themes/default/lv_theme_default.c ****             lv_obj_add_style(obj, &styles->msgbox_btn_bg, 0);
 482              		.loc 1 787 12 view .LVU144
 483 0232 3349     		ldr	r1, .L65+44
 484 0234 FFF7FEFF 		bl	lv_obj_check_type
 485              	.LVL62:
 787:Drivers/lvgl/src/extra/themes/default/lv_theme_default.c ****             lv_obj_add_style(obj, &styles->msgbox_btn_bg, 0);
 486              		.loc 1 787 11 view .LVU145
 487 0238 0028     		cmp	r0, #0
 488 023a 6DD1     		bne	.L60
 800:Drivers/lvgl/src/extra/themes/default/lv_theme_default.c ****             lv_obj_add_style(obj, &styles->bg_color_white, 0);
 489              		.loc 1 800 9 is_stmt 1 view .LVU146
 800:Drivers/lvgl/src/extra/themes/default/lv_theme_default.c ****             lv_obj_add_style(obj, &styles->bg_color_white, 0);
 490              		.loc 1 800 30 is_stmt 0 view .LVU147
 491 023c 2046     		mov	r0, r4
 492 023e FFF7FEFF 		bl	lv_obj_get_parent
 493              	.LVL63:
 800:Drivers/lvgl/src/extra/themes/default/lv_theme_default.c ****             lv_obj_add_style(obj, &styles->bg_color_white, 0);
 494              		.loc 1 800 12 view .LVU148
 495 0242 2549     		ldr	r1, .L65+4
 496 0244 FFF7FEFF 		bl	lv_obj_check_type
 497              	.LVL64:
 800:Drivers/lvgl/src/extra/themes/default/lv_theme_default.c ****             lv_obj_add_style(obj, &styles->bg_color_white, 0);
 498              		.loc 1 800 11 view .LVU149
 499 0248 0028     		cmp	r0, #0
 500 024a 40F09980 		bne	.L61
 815:Drivers/lvgl/src/extra/themes/default/lv_theme_default.c ****             lv_obj_add_style(obj, &styles->calendar_btnm_bg, 0);
 501              		.loc 1 815 9 is_stmt 1 view .LVU150
 815:Drivers/lvgl/src/extra/themes/default/lv_theme_default.c ****             lv_obj_add_style(obj, &styles->calendar_btnm_bg, 0);
 502              		.loc 1 815 30 is_stmt 0 view .LVU151
 503 024e 2046     		mov	r0, r4
 504 0250 FFF7FEFF 		bl	lv_obj_get_parent
 505              	.LVL65:
 815:Drivers/lvgl/src/extra/themes/default/lv_theme_default.c ****             lv_obj_add_style(obj, &styles->calendar_btnm_bg, 0);
 506              		.loc 1 815 12 view .LVU152
 507 0254 2449     		ldr	r1, .L65+20
 508 0256 FFF7FEFF 		bl	lv_obj_check_type
 509              	.LVL66:
 815:Drivers/lvgl/src/extra/themes/default/lv_theme_default.c ****             lv_obj_add_style(obj, &styles->calendar_btnm_bg, 0);
 510              		.loc 1 815 11 view .LVU153
 511 025a 0028     		cmp	r0, #0
 512 025c 40F0CD80 		bne	.L62
 827:Drivers/lvgl/src/extra/themes/default/lv_theme_default.c ****         lv_obj_add_style(obj, &styles->outline_primary, LV_STATE_FOCUS_KEY);
 513              		.loc 1 827 9 is_stmt 1 view .LVU154
 827:Drivers/lvgl/src/extra/themes/default/lv_theme_default.c ****         lv_obj_add_style(obj, &styles->outline_primary, LV_STATE_FOCUS_KEY);
 514              		.loc 1 827 38 is_stmt 0 view .LVU155
 515 0260 1E4D     		ldr	r5, .L65+8
 516 0262 2968     		ldr	r1, [r5]
 827:Drivers/lvgl/src/extra/themes/default/lv_theme_default.c ****         lv_obj_add_style(obj, &styles->outline_primary, LV_STATE_FOCUS_KEY);
 517              		.loc 1 827 9 view .LVU156
 518 0264 0022     		movs	r2, #0
 519 0266 1831     		adds	r1, r1, #24
 520 0268 2046     		mov	r0, r4
ARM GAS  /var/folders/0z/tsy30v1j4xl4_7kw94k978ww0000gn/T//ccdBOSjy.s 			page 33


 521 026a FFF7FEFF 		bl	lv_obj_add_style
 522              	.LVL67:
 828:Drivers/lvgl/src/extra/themes/default/lv_theme_default.c ****         lv_obj_add_style(obj, &styles->outline_secondary, LV_STATE_EDITED);
 523              		.loc 1 828 9 is_stmt 1 view .LVU157
 828:Drivers/lvgl/src/extra/themes/default/lv_theme_default.c ****         lv_obj_add_style(obj, &styles->outline_secondary, LV_STATE_EDITED);
 524              		.loc 1 828 38 is_stmt 0 view .LVU158
 525 026e 2968     		ldr	r1, [r5]
 828:Drivers/lvgl/src/extra/themes/default/lv_theme_default.c ****         lv_obj_add_style(obj, &styles->outline_secondary, LV_STATE_EDITED);
 526              		.loc 1 828 9 view .LVU159
 527 0270 0422     		movs	r2, #4
 528 0272 A031     		adds	r1, r1, #160
 529 0274 2046     		mov	r0, r4
 530 0276 FFF7FEFF 		bl	lv_obj_add_style
 531              	.LVL68:
 829:Drivers/lvgl/src/extra/themes/default/lv_theme_default.c ****         lv_obj_add_style(obj, &styles->btn, LV_PART_ITEMS);
 532              		.loc 1 829 9 is_stmt 1 view .LVU160
 829:Drivers/lvgl/src/extra/themes/default/lv_theme_default.c ****         lv_obj_add_style(obj, &styles->btn, LV_PART_ITEMS);
 533              		.loc 1 829 38 is_stmt 0 view .LVU161
 534 027a 2968     		ldr	r1, [r5]
 829:Drivers/lvgl/src/extra/themes/default/lv_theme_default.c ****         lv_obj_add_style(obj, &styles->btn, LV_PART_ITEMS);
 535              		.loc 1 829 9 view .LVU162
 536 027c 0822     		movs	r2, #8
 537 027e A831     		adds	r1, r1, #168
 538 0280 2046     		mov	r0, r4
 539 0282 FFF7FEFF 		bl	lv_obj_add_style
 540              	.LVL69:
 830:Drivers/lvgl/src/extra/themes/default/lv_theme_default.c ****         lv_obj_add_style(obj, &styles->disabled, LV_PART_ITEMS | LV_STATE_DISABLED);
 541              		.loc 1 830 9 is_stmt 1 view .LVU163
 830:Drivers/lvgl/src/extra/themes/default/lv_theme_default.c ****         lv_obj_add_style(obj, &styles->disabled, LV_PART_ITEMS | LV_STATE_DISABLED);
 542              		.loc 1 830 38 is_stmt 0 view .LVU164
 543 0286 2968     		ldr	r1, [r5]
 830:Drivers/lvgl/src/extra/themes/default/lv_theme_default.c ****         lv_obj_add_style(obj, &styles->disabled, LV_PART_ITEMS | LV_STATE_DISABLED);
 544              		.loc 1 830 9 view .LVU165
 545 0288 4FF4A022 		mov	r2, #327680
 546 028c 2031     		adds	r1, r1, #32
 547 028e 2046     		mov	r0, r4
 548 0290 FFF7FEFF 		bl	lv_obj_add_style
 549              	.LVL70:
 831:Drivers/lvgl/src/extra/themes/default/lv_theme_default.c ****         lv_obj_add_style(obj, &styles->pressed, LV_PART_ITEMS | LV_STATE_PRESSED);
 550              		.loc 1 831 9 is_stmt 1 view .LVU166
 831:Drivers/lvgl/src/extra/themes/default/lv_theme_default.c ****         lv_obj_add_style(obj, &styles->pressed, LV_PART_ITEMS | LV_STATE_PRESSED);
 551              		.loc 1 831 38 is_stmt 0 view .LVU167
 552 0294 2968     		ldr	r1, [r5]
 831:Drivers/lvgl/src/extra/themes/default/lv_theme_default.c ****         lv_obj_add_style(obj, &styles->pressed, LV_PART_ITEMS | LV_STATE_PRESSED);
 553              		.loc 1 831 9 view .LVU168
 554 0296 1B4A     		ldr	r2, .L65+48
 555 0298 6031     		adds	r1, r1, #96
 556 029a 2046     		mov	r0, r4
 557 029c FFF7FEFF 		bl	lv_obj_add_style
 558              	.LVL71:
 832:Drivers/lvgl/src/extra/themes/default/lv_theme_default.c ****         lv_obj_add_style(obj, &styles->bg_color_primary, LV_PART_ITEMS | LV_STATE_CHECKED);
 559              		.loc 1 832 9 is_stmt 1 view .LVU169
 832:Drivers/lvgl/src/extra/themes/default/lv_theme_default.c ****         lv_obj_add_style(obj, &styles->bg_color_primary, LV_PART_ITEMS | LV_STATE_CHECKED);
 560              		.loc 1 832 38 is_stmt 0 view .LVU170
 561 02a0 2968     		ldr	r1, [r5]
 832:Drivers/lvgl/src/extra/themes/default/lv_theme_default.c ****         lv_obj_add_style(obj, &styles->bg_color_primary, LV_PART_ITEMS | LV_STATE_CHECKED);
 562              		.loc 1 832 9 view .LVU171
ARM GAS  /var/folders/0z/tsy30v1j4xl4_7kw94k978ww0000gn/T//ccdBOSjy.s 			page 34


 563 02a2 194A     		ldr	r2, .L65+52
 564 02a4 5831     		adds	r1, r1, #88
 565 02a6 2046     		mov	r0, r4
 566 02a8 FFF7FEFF 		bl	lv_obj_add_style
 567              	.LVL72:
 833:Drivers/lvgl/src/extra/themes/default/lv_theme_default.c ****         lv_obj_add_style(obj, &styles->outline_primary, LV_PART_ITEMS | LV_STATE_FOCUS_KEY);
 568              		.loc 1 833 9 is_stmt 1 view .LVU172
 833:Drivers/lvgl/src/extra/themes/default/lv_theme_default.c ****         lv_obj_add_style(obj, &styles->outline_primary, LV_PART_ITEMS | LV_STATE_FOCUS_KEY);
 569              		.loc 1 833 38 is_stmt 0 view .LVU173
 570 02ac 2968     		ldr	r1, [r5]
 833:Drivers/lvgl/src/extra/themes/default/lv_theme_default.c ****         lv_obj_add_style(obj, &styles->outline_primary, LV_PART_ITEMS | LV_STATE_FOCUS_KEY);
 571              		.loc 1 833 9 view .LVU174
 572 02ae 174A     		ldr	r2, .L65+56
 573 02b0 2831     		adds	r1, r1, #40
 574 02b2 2046     		mov	r0, r4
 575 02b4 FFF7FEFF 		bl	lv_obj_add_style
 576              	.LVL73:
 834:Drivers/lvgl/src/extra/themes/default/lv_theme_default.c ****         lv_obj_add_style(obj, &styles->outline_secondary, LV_PART_ITEMS | LV_STATE_EDITED);
 577              		.loc 1 834 9 is_stmt 1 view .LVU175
 834:Drivers/lvgl/src/extra/themes/default/lv_theme_default.c ****         lv_obj_add_style(obj, &styles->outline_secondary, LV_PART_ITEMS | LV_STATE_EDITED);
 578              		.loc 1 834 38 is_stmt 0 view .LVU176
 579 02b8 2968     		ldr	r1, [r5]
 834:Drivers/lvgl/src/extra/themes/default/lv_theme_default.c ****         lv_obj_add_style(obj, &styles->outline_secondary, LV_PART_ITEMS | LV_STATE_EDITED);
 580              		.loc 1 834 9 view .LVU177
 581 02ba 154A     		ldr	r2, .L65+60
 582 02bc A031     		adds	r1, r1, #160
 583 02be 2046     		mov	r0, r4
 584 02c0 FFF7FEFF 		bl	lv_obj_add_style
 585              	.LVL74:
 835:Drivers/lvgl/src/extra/themes/default/lv_theme_default.c ****     }
 586              		.loc 1 835 9 is_stmt 1 view .LVU178
 835:Drivers/lvgl/src/extra/themes/default/lv_theme_default.c ****     }
 587              		.loc 1 835 38 is_stmt 0 view .LVU179
 588 02c4 2968     		ldr	r1, [r5]
 835:Drivers/lvgl/src/extra/themes/default/lv_theme_default.c ****     }
 589              		.loc 1 835 9 view .LVU180
 590 02c6 134A     		ldr	r2, .L65+64
 591 02c8 A831     		adds	r1, r1, #168
 592 02ca 2046     		mov	r0, r4
 593 02cc FFF7FEFF 		bl	lv_obj_add_style
 594              	.LVL75:
 595 02d0 ABE6     		b	.L1
 596              	.L66:
 597 02d2 00BF     		.align	2
 598              	.L65:
 599 02d4 00000000 		.word	lv_obj_class
 600 02d8 00000000 		.word	lv_tabview_class
 601 02dc 00000000 		.word	.LANCHOR0
 602 02e0 40000100 		.word	65600
 603 02e4 00000000 		.word	lv_win_class
 604 02e8 00000000 		.word	lv_calendar_class
 605 02ec 00000000 		.word	lv_btn_class
 606 02f0 00000000 		.word	lv_menu_sidebar_header_cont_class
 607 02f4 00000000 		.word	lv_menu_main_header_cont_class
 608 02f8 00000000 		.word	lv_line_class
 609 02fc 00000000 		.word	lv_btnmatrix_class
 610 0300 00000000 		.word	lv_msgbox_class
ARM GAS  /var/folders/0z/tsy30v1j4xl4_7kw94k978ww0000gn/T//ccdBOSjy.s 			page 35


 611 0304 80000500 		.word	327808
 612 0308 20000500 		.word	327712
 613 030c 01000500 		.word	327681
 614 0310 04000500 		.word	327684
 615 0314 08000500 		.word	327688
 616              	.L60:
 788:Drivers/lvgl/src/extra/themes/default/lv_theme_default.c ****             lv_obj_add_style(obj, &styles->pad_gap, 0);
 617              		.loc 1 788 13 is_stmt 1 view .LVU181
 788:Drivers/lvgl/src/extra/themes/default/lv_theme_default.c ****             lv_obj_add_style(obj, &styles->pad_gap, 0);
 618              		.loc 1 788 42 is_stmt 0 view .LVU182
 619 0318 BB4D     		ldr	r5, .L67
 620 031a 2968     		ldr	r1, [r5]
 788:Drivers/lvgl/src/extra/themes/default/lv_theme_default.c ****             lv_obj_add_style(obj, &styles->pad_gap, 0);
 621              		.loc 1 788 13 view .LVU183
 622 031c 0022     		movs	r2, #0
 623 031e 01F5FC71 		add	r1, r1, #504
 624 0322 2046     		mov	r0, r4
 625 0324 FFF7FEFF 		bl	lv_obj_add_style
 626              	.LVL76:
 789:Drivers/lvgl/src/extra/themes/default/lv_theme_default.c ****             lv_obj_add_style(obj, &styles->btn, LV_PART_ITEMS);
 627              		.loc 1 789 13 is_stmt 1 view .LVU184
 789:Drivers/lvgl/src/extra/themes/default/lv_theme_default.c ****             lv_obj_add_style(obj, &styles->btn, LV_PART_ITEMS);
 628              		.loc 1 789 42 is_stmt 0 view .LVU185
 629 0328 2968     		ldr	r1, [r5]
 789:Drivers/lvgl/src/extra/themes/default/lv_theme_default.c ****             lv_obj_add_style(obj, &styles->btn, LV_PART_ITEMS);
 630              		.loc 1 789 13 view .LVU186
 631 032a 0022     		movs	r2, #0
 632 032c 8831     		adds	r1, r1, #136
 633 032e 2046     		mov	r0, r4
 634 0330 FFF7FEFF 		bl	lv_obj_add_style
 635              	.LVL77:
 790:Drivers/lvgl/src/extra/themes/default/lv_theme_default.c ****             lv_obj_add_style(obj, &styles->pressed, LV_PART_ITEMS | LV_STATE_PRESSED);
 636              		.loc 1 790 13 is_stmt 1 view .LVU187
 790:Drivers/lvgl/src/extra/themes/default/lv_theme_default.c ****             lv_obj_add_style(obj, &styles->pressed, LV_PART_ITEMS | LV_STATE_PRESSED);
 637              		.loc 1 790 42 is_stmt 0 view .LVU188
 638 0334 2968     		ldr	r1, [r5]
 790:Drivers/lvgl/src/extra/themes/default/lv_theme_default.c ****             lv_obj_add_style(obj, &styles->pressed, LV_PART_ITEMS | LV_STATE_PRESSED);
 639              		.loc 1 790 13 view .LVU189
 640 0336 4FF4A022 		mov	r2, #327680
 641 033a 2031     		adds	r1, r1, #32
 642 033c 2046     		mov	r0, r4
 643 033e FFF7FEFF 		bl	lv_obj_add_style
 644              	.LVL78:
 791:Drivers/lvgl/src/extra/themes/default/lv_theme_default.c ****             lv_obj_add_style(obj, &styles->disabled, LV_PART_ITEMS | LV_STATE_DISABLED);
 645              		.loc 1 791 13 is_stmt 1 view .LVU190
 791:Drivers/lvgl/src/extra/themes/default/lv_theme_default.c ****             lv_obj_add_style(obj, &styles->disabled, LV_PART_ITEMS | LV_STATE_DISABLED);
 646              		.loc 1 791 42 is_stmt 0 view .LVU191
 647 0342 2968     		ldr	r1, [r5]
 791:Drivers/lvgl/src/extra/themes/default/lv_theme_default.c ****             lv_obj_add_style(obj, &styles->disabled, LV_PART_ITEMS | LV_STATE_DISABLED);
 648              		.loc 1 791 13 view .LVU192
 649 0344 B14A     		ldr	r2, .L67+4
 650 0346 5831     		adds	r1, r1, #88
 651 0348 2046     		mov	r0, r4
 652 034a FFF7FEFF 		bl	lv_obj_add_style
 653              	.LVL79:
 792:Drivers/lvgl/src/extra/themes/default/lv_theme_default.c ****             lv_obj_add_style(obj, &styles->bg_color_primary, LV_PART_ITEMS | LV_STATE_CHECKED);
 654              		.loc 1 792 13 is_stmt 1 view .LVU193
ARM GAS  /var/folders/0z/tsy30v1j4xl4_7kw94k978ww0000gn/T//ccdBOSjy.s 			page 36


 792:Drivers/lvgl/src/extra/themes/default/lv_theme_default.c ****             lv_obj_add_style(obj, &styles->bg_color_primary, LV_PART_ITEMS | LV_STATE_CHECKED);
 655              		.loc 1 792 42 is_stmt 0 view .LVU194
 656 034e 2968     		ldr	r1, [r5]
 792:Drivers/lvgl/src/extra/themes/default/lv_theme_default.c ****             lv_obj_add_style(obj, &styles->bg_color_primary, LV_PART_ITEMS | LV_STATE_CHECKED);
 657              		.loc 1 792 13 view .LVU195
 658 0350 AF4A     		ldr	r2, .L67+8
 659 0352 6031     		adds	r1, r1, #96
 660 0354 2046     		mov	r0, r4
 661 0356 FFF7FEFF 		bl	lv_obj_add_style
 662              	.LVL80:
 793:Drivers/lvgl/src/extra/themes/default/lv_theme_default.c ****             lv_obj_add_style(obj, &styles->bg_color_primary_muted, LV_PART_ITEMS | LV_STATE_FOCUS_K
 663              		.loc 1 793 13 is_stmt 1 view .LVU196
 793:Drivers/lvgl/src/extra/themes/default/lv_theme_default.c ****             lv_obj_add_style(obj, &styles->bg_color_primary_muted, LV_PART_ITEMS | LV_STATE_FOCUS_K
 664              		.loc 1 793 42 is_stmt 0 view .LVU197
 665 035a 2968     		ldr	r1, [r5]
 793:Drivers/lvgl/src/extra/themes/default/lv_theme_default.c ****             lv_obj_add_style(obj, &styles->bg_color_primary_muted, LV_PART_ITEMS | LV_STATE_FOCUS_K
 666              		.loc 1 793 13 view .LVU198
 667 035c AD4A     		ldr	r2, .L67+12
 668 035e 2831     		adds	r1, r1, #40
 669 0360 2046     		mov	r0, r4
 670 0362 FFF7FEFF 		bl	lv_obj_add_style
 671              	.LVL81:
 794:Drivers/lvgl/src/extra/themes/default/lv_theme_default.c ****             lv_obj_add_style(obj, &styles->bg_color_secondary_muted, LV_PART_ITEMS | LV_STATE_EDITE
 672              		.loc 1 794 13 is_stmt 1 view .LVU199
 794:Drivers/lvgl/src/extra/themes/default/lv_theme_default.c ****             lv_obj_add_style(obj, &styles->bg_color_secondary_muted, LV_PART_ITEMS | LV_STATE_EDITE
 673              		.loc 1 794 42 is_stmt 0 view .LVU200
 674 0366 2968     		ldr	r1, [r5]
 794:Drivers/lvgl/src/extra/themes/default/lv_theme_default.c ****             lv_obj_add_style(obj, &styles->bg_color_secondary_muted, LV_PART_ITEMS | LV_STATE_EDITE
 675              		.loc 1 794 13 view .LVU201
 676 0368 AB4A     		ldr	r2, .L67+16
 677 036a 3031     		adds	r1, r1, #48
 678 036c 2046     		mov	r0, r4
 679 036e FFF7FEFF 		bl	lv_obj_add_style
 680              	.LVL82:
 795:Drivers/lvgl/src/extra/themes/default/lv_theme_default.c ****             return;
 681              		.loc 1 795 13 is_stmt 1 view .LVU202
 795:Drivers/lvgl/src/extra/themes/default/lv_theme_default.c ****             return;
 682              		.loc 1 795 42 is_stmt 0 view .LVU203
 683 0372 2968     		ldr	r1, [r5]
 795:Drivers/lvgl/src/extra/themes/default/lv_theme_default.c ****             return;
 684              		.loc 1 795 13 view .LVU204
 685 0374 A94A     		ldr	r2, .L67+20
 686 0376 4031     		adds	r1, r1, #64
 687 0378 2046     		mov	r0, r4
 688 037a FFF7FEFF 		bl	lv_obj_add_style
 689              	.LVL83:
 796:Drivers/lvgl/src/extra/themes/default/lv_theme_default.c ****         }
 690              		.loc 1 796 13 is_stmt 1 view .LVU205
 691 037e 54E6     		b	.L1
 692              	.L61:
 801:Drivers/lvgl/src/extra/themes/default/lv_theme_default.c ****             lv_obj_add_style(obj, &styles->outline_primary, LV_STATE_FOCUS_KEY);
 693              		.loc 1 801 13 view .LVU206
 801:Drivers/lvgl/src/extra/themes/default/lv_theme_default.c ****             lv_obj_add_style(obj, &styles->outline_primary, LV_STATE_FOCUS_KEY);
 694              		.loc 1 801 42 is_stmt 0 view .LVU207
 695 0380 A14D     		ldr	r5, .L67
 696 0382 2968     		ldr	r1, [r5]
 801:Drivers/lvgl/src/extra/themes/default/lv_theme_default.c ****             lv_obj_add_style(obj, &styles->outline_primary, LV_STATE_FOCUS_KEY);
ARM GAS  /var/folders/0z/tsy30v1j4xl4_7kw94k978ww0000gn/T//ccdBOSjy.s 			page 37


 697              		.loc 1 801 13 view .LVU208
 698 0384 0022     		movs	r2, #0
 699 0386 5031     		adds	r1, r1, #80
 700 0388 2046     		mov	r0, r4
 701 038a FFF7FEFF 		bl	lv_obj_add_style
 702              	.LVL84:
 802:Drivers/lvgl/src/extra/themes/default/lv_theme_default.c ****             lv_obj_add_style(obj, &styles->tab_bg_focus, LV_STATE_FOCUS_KEY);
 703              		.loc 1 802 13 is_stmt 1 view .LVU209
 802:Drivers/lvgl/src/extra/themes/default/lv_theme_default.c ****             lv_obj_add_style(obj, &styles->tab_bg_focus, LV_STATE_FOCUS_KEY);
 704              		.loc 1 802 42 is_stmt 0 view .LVU210
 705 038e 2968     		ldr	r1, [r5]
 802:Drivers/lvgl/src/extra/themes/default/lv_theme_default.c ****             lv_obj_add_style(obj, &styles->tab_bg_focus, LV_STATE_FOCUS_KEY);
 706              		.loc 1 802 13 view .LVU211
 707 0390 0422     		movs	r2, #4
 708 0392 A031     		adds	r1, r1, #160
 709 0394 2046     		mov	r0, r4
 710 0396 FFF7FEFF 		bl	lv_obj_add_style
 711              	.LVL85:
 803:Drivers/lvgl/src/extra/themes/default/lv_theme_default.c ****             lv_obj_add_style(obj, &styles->pressed, LV_PART_ITEMS | LV_STATE_PRESSED);
 712              		.loc 1 803 13 is_stmt 1 view .LVU212
 803:Drivers/lvgl/src/extra/themes/default/lv_theme_default.c ****             lv_obj_add_style(obj, &styles->pressed, LV_PART_ITEMS | LV_STATE_PRESSED);
 713              		.loc 1 803 42 is_stmt 0 view .LVU213
 714 039a 2968     		ldr	r1, [r5]
 803:Drivers/lvgl/src/extra/themes/default/lv_theme_default.c ****             lv_obj_add_style(obj, &styles->pressed, LV_PART_ITEMS | LV_STATE_PRESSED);
 715              		.loc 1 803 13 view .LVU214
 716 039c 0422     		movs	r2, #4
 717 039e 01F50C71 		add	r1, r1, #560
 718 03a2 2046     		mov	r0, r4
 719 03a4 FFF7FEFF 		bl	lv_obj_add_style
 720              	.LVL86:
 804:Drivers/lvgl/src/extra/themes/default/lv_theme_default.c ****             lv_obj_add_style(obj, &styles->bg_color_primary_muted, LV_PART_ITEMS | LV_STATE_CHECKED
 721              		.loc 1 804 13 is_stmt 1 view .LVU215
 804:Drivers/lvgl/src/extra/themes/default/lv_theme_default.c ****             lv_obj_add_style(obj, &styles->bg_color_primary_muted, LV_PART_ITEMS | LV_STATE_CHECKED
 722              		.loc 1 804 42 is_stmt 0 view .LVU216
 723 03a8 2968     		ldr	r1, [r5]
 804:Drivers/lvgl/src/extra/themes/default/lv_theme_default.c ****             lv_obj_add_style(obj, &styles->bg_color_primary_muted, LV_PART_ITEMS | LV_STATE_CHECKED
 724              		.loc 1 804 13 view .LVU217
 725 03aa 984A     		ldr	r2, .L67+4
 726 03ac 5831     		adds	r1, r1, #88
 727 03ae 2046     		mov	r0, r4
 728 03b0 FFF7FEFF 		bl	lv_obj_add_style
 729              	.LVL87:
 805:Drivers/lvgl/src/extra/themes/default/lv_theme_default.c ****             lv_obj_add_style(obj, &styles->tab_btn, LV_PART_ITEMS | LV_STATE_CHECKED);
 730              		.loc 1 805 13 is_stmt 1 view .LVU218
 805:Drivers/lvgl/src/extra/themes/default/lv_theme_default.c ****             lv_obj_add_style(obj, &styles->tab_btn, LV_PART_ITEMS | LV_STATE_CHECKED);
 731              		.loc 1 805 42 is_stmt 0 view .LVU219
 732 03b4 2968     		ldr	r1, [r5]
 805:Drivers/lvgl/src/extra/themes/default/lv_theme_default.c ****             lv_obj_add_style(obj, &styles->tab_btn, LV_PART_ITEMS | LV_STATE_CHECKED);
 733              		.loc 1 805 13 view .LVU220
 734 03b6 974E     		ldr	r6, .L67+12
 735 03b8 3246     		mov	r2, r6
 736 03ba 3031     		adds	r1, r1, #48
 737 03bc 2046     		mov	r0, r4
 738 03be FFF7FEFF 		bl	lv_obj_add_style
 739              	.LVL88:
 806:Drivers/lvgl/src/extra/themes/default/lv_theme_default.c ****             lv_obj_add_style(obj, &styles->outline_primary, LV_PART_ITEMS | LV_STATE_FOCUS_KEY);
 740              		.loc 1 806 13 is_stmt 1 view .LVU221
ARM GAS  /var/folders/0z/tsy30v1j4xl4_7kw94k978ww0000gn/T//ccdBOSjy.s 			page 38


 806:Drivers/lvgl/src/extra/themes/default/lv_theme_default.c ****             lv_obj_add_style(obj, &styles->outline_primary, LV_PART_ITEMS | LV_STATE_FOCUS_KEY);
 741              		.loc 1 806 42 is_stmt 0 view .LVU222
 742 03c2 2968     		ldr	r1, [r5]
 806:Drivers/lvgl/src/extra/themes/default/lv_theme_default.c ****             lv_obj_add_style(obj, &styles->outline_primary, LV_PART_ITEMS | LV_STATE_FOCUS_KEY);
 743              		.loc 1 806 13 view .LVU223
 744 03c4 3246     		mov	r2, r6
 745 03c6 01F50E71 		add	r1, r1, #568
 746 03ca 2046     		mov	r0, r4
 747 03cc FFF7FEFF 		bl	lv_obj_add_style
 748              	.LVL89:
 807:Drivers/lvgl/src/extra/themes/default/lv_theme_default.c ****             lv_obj_add_style(obj, &styles->outline_secondary, LV_PART_ITEMS | LV_STATE_EDITED);
 749              		.loc 1 807 13 is_stmt 1 view .LVU224
 807:Drivers/lvgl/src/extra/themes/default/lv_theme_default.c ****             lv_obj_add_style(obj, &styles->outline_secondary, LV_PART_ITEMS | LV_STATE_EDITED);
 750              		.loc 1 807 42 is_stmt 0 view .LVU225
 751 03d0 2968     		ldr	r1, [r5]
 807:Drivers/lvgl/src/extra/themes/default/lv_theme_default.c ****             lv_obj_add_style(obj, &styles->outline_secondary, LV_PART_ITEMS | LV_STATE_EDITED);
 752              		.loc 1 807 13 view .LVU226
 753 03d2 0336     		adds	r6, r6, #3
 754 03d4 3246     		mov	r2, r6
 755 03d6 A031     		adds	r1, r1, #160
 756 03d8 2046     		mov	r0, r4
 757 03da FFF7FEFF 		bl	lv_obj_add_style
 758              	.LVL90:
 808:Drivers/lvgl/src/extra/themes/default/lv_theme_default.c ****             lv_obj_add_style(obj, &styles->tab_bg_focus, LV_PART_ITEMS | LV_STATE_FOCUS_KEY);
 759              		.loc 1 808 13 is_stmt 1 view .LVU227
 808:Drivers/lvgl/src/extra/themes/default/lv_theme_default.c ****             lv_obj_add_style(obj, &styles->tab_bg_focus, LV_PART_ITEMS | LV_STATE_FOCUS_KEY);
 760              		.loc 1 808 42 is_stmt 0 view .LVU228
 761 03de 2968     		ldr	r1, [r5]
 808:Drivers/lvgl/src/extra/themes/default/lv_theme_default.c ****             lv_obj_add_style(obj, &styles->tab_bg_focus, LV_PART_ITEMS | LV_STATE_FOCUS_KEY);
 762              		.loc 1 808 13 view .LVU229
 763 03e0 8E4A     		ldr	r2, .L67+20
 764 03e2 A831     		adds	r1, r1, #168
 765 03e4 2046     		mov	r0, r4
 766 03e6 FFF7FEFF 		bl	lv_obj_add_style
 767              	.LVL91:
 809:Drivers/lvgl/src/extra/themes/default/lv_theme_default.c ****             return;
 768              		.loc 1 809 13 is_stmt 1 view .LVU230
 809:Drivers/lvgl/src/extra/themes/default/lv_theme_default.c ****             return;
 769              		.loc 1 809 42 is_stmt 0 view .LVU231
 770 03ea 2968     		ldr	r1, [r5]
 809:Drivers/lvgl/src/extra/themes/default/lv_theme_default.c ****             return;
 771              		.loc 1 809 13 view .LVU232
 772 03ec 3246     		mov	r2, r6
 773 03ee 01F50C71 		add	r1, r1, #560
 774 03f2 2046     		mov	r0, r4
 775 03f4 FFF7FEFF 		bl	lv_obj_add_style
 776              	.LVL92:
 810:Drivers/lvgl/src/extra/themes/default/lv_theme_default.c ****         }
 777              		.loc 1 810 13 is_stmt 1 view .LVU233
 778 03f8 17E6     		b	.L1
 779              	.L62:
 816:Drivers/lvgl/src/extra/themes/default/lv_theme_default.c ****             lv_obj_add_style(obj, &styles->outline_primary, LV_STATE_FOCUS_KEY);
 780              		.loc 1 816 13 view .LVU234
 816:Drivers/lvgl/src/extra/themes/default/lv_theme_default.c ****             lv_obj_add_style(obj, &styles->outline_primary, LV_STATE_FOCUS_KEY);
 781              		.loc 1 816 42 is_stmt 0 view .LVU235
 782 03fa 834D     		ldr	r5, .L67
 783 03fc 2968     		ldr	r1, [r5]
ARM GAS  /var/folders/0z/tsy30v1j4xl4_7kw94k978ww0000gn/T//ccdBOSjy.s 			page 39


 816:Drivers/lvgl/src/extra/themes/default/lv_theme_default.c ****             lv_obj_add_style(obj, &styles->outline_primary, LV_STATE_FOCUS_KEY);
 784              		.loc 1 816 13 view .LVU236
 785 03fe 0022     		movs	r2, #0
 786 0400 01F5C071 		add	r1, r1, #384
 787 0404 2046     		mov	r0, r4
 788 0406 FFF7FEFF 		bl	lv_obj_add_style
 789              	.LVL93:
 817:Drivers/lvgl/src/extra/themes/default/lv_theme_default.c ****             lv_obj_add_style(obj, &styles->outline_secondary, LV_STATE_EDITED);
 790              		.loc 1 817 13 is_stmt 1 view .LVU237
 817:Drivers/lvgl/src/extra/themes/default/lv_theme_default.c ****             lv_obj_add_style(obj, &styles->outline_secondary, LV_STATE_EDITED);
 791              		.loc 1 817 42 is_stmt 0 view .LVU238
 792 040a 2968     		ldr	r1, [r5]
 817:Drivers/lvgl/src/extra/themes/default/lv_theme_default.c ****             lv_obj_add_style(obj, &styles->outline_secondary, LV_STATE_EDITED);
 793              		.loc 1 817 13 view .LVU239
 794 040c 0422     		movs	r2, #4
 795 040e A031     		adds	r1, r1, #160
 796 0410 2046     		mov	r0, r4
 797 0412 FFF7FEFF 		bl	lv_obj_add_style
 798              	.LVL94:
 818:Drivers/lvgl/src/extra/themes/default/lv_theme_default.c ****             lv_obj_add_style(obj, &styles->calendar_btnm_day, LV_PART_ITEMS);
 799              		.loc 1 818 13 is_stmt 1 view .LVU240
 818:Drivers/lvgl/src/extra/themes/default/lv_theme_default.c ****             lv_obj_add_style(obj, &styles->calendar_btnm_day, LV_PART_ITEMS);
 800              		.loc 1 818 42 is_stmt 0 view .LVU241
 801 0416 2968     		ldr	r1, [r5]
 818:Drivers/lvgl/src/extra/themes/default/lv_theme_default.c ****             lv_obj_add_style(obj, &styles->calendar_btnm_day, LV_PART_ITEMS);
 802              		.loc 1 818 13 view .LVU242
 803 0418 0822     		movs	r2, #8
 804 041a A831     		adds	r1, r1, #168
 805 041c 2046     		mov	r0, r4
 806 041e FFF7FEFF 		bl	lv_obj_add_style
 807              	.LVL95:
 819:Drivers/lvgl/src/extra/themes/default/lv_theme_default.c ****             lv_obj_add_style(obj, &styles->pressed, LV_PART_ITEMS | LV_STATE_PRESSED);
 808              		.loc 1 819 13 is_stmt 1 view .LVU243
 819:Drivers/lvgl/src/extra/themes/default/lv_theme_default.c ****             lv_obj_add_style(obj, &styles->pressed, LV_PART_ITEMS | LV_STATE_PRESSED);
 809              		.loc 1 819 42 is_stmt 0 view .LVU244
 810 0422 2968     		ldr	r1, [r5]
 819:Drivers/lvgl/src/extra/themes/default/lv_theme_default.c ****             lv_obj_add_style(obj, &styles->pressed, LV_PART_ITEMS | LV_STATE_PRESSED);
 811              		.loc 1 819 13 view .LVU245
 812 0424 4FF4A022 		mov	r2, #327680
 813 0428 01F5C471 		add	r1, r1, #392
 814 042c 2046     		mov	r0, r4
 815 042e FFF7FEFF 		bl	lv_obj_add_style
 816              	.LVL96:
 820:Drivers/lvgl/src/extra/themes/default/lv_theme_default.c ****             lv_obj_add_style(obj, &styles->disabled, LV_PART_ITEMS | LV_STATE_DISABLED);
 817              		.loc 1 820 13 is_stmt 1 view .LVU246
 820:Drivers/lvgl/src/extra/themes/default/lv_theme_default.c ****             lv_obj_add_style(obj, &styles->disabled, LV_PART_ITEMS | LV_STATE_DISABLED);
 818              		.loc 1 820 42 is_stmt 0 view .LVU247
 819 0432 2968     		ldr	r1, [r5]
 820:Drivers/lvgl/src/extra/themes/default/lv_theme_default.c ****             lv_obj_add_style(obj, &styles->disabled, LV_PART_ITEMS | LV_STATE_DISABLED);
 820              		.loc 1 820 13 view .LVU248
 821 0434 754A     		ldr	r2, .L67+4
 822 0436 5831     		adds	r1, r1, #88
 823 0438 2046     		mov	r0, r4
 824 043a FFF7FEFF 		bl	lv_obj_add_style
 825              	.LVL97:
 821:Drivers/lvgl/src/extra/themes/default/lv_theme_default.c ****             lv_obj_add_style(obj, &styles->outline_primary, LV_PART_ITEMS | LV_STATE_FOCUS_KEY);
 826              		.loc 1 821 13 is_stmt 1 view .LVU249
ARM GAS  /var/folders/0z/tsy30v1j4xl4_7kw94k978ww0000gn/T//ccdBOSjy.s 			page 40


 821:Drivers/lvgl/src/extra/themes/default/lv_theme_default.c ****             lv_obj_add_style(obj, &styles->outline_primary, LV_PART_ITEMS | LV_STATE_FOCUS_KEY);
 827              		.loc 1 821 42 is_stmt 0 view .LVU250
 828 043e 2968     		ldr	r1, [r5]
 821:Drivers/lvgl/src/extra/themes/default/lv_theme_default.c ****             lv_obj_add_style(obj, &styles->outline_primary, LV_PART_ITEMS | LV_STATE_FOCUS_KEY);
 829              		.loc 1 821 13 view .LVU251
 830 0440 734A     		ldr	r2, .L67+8
 831 0442 6031     		adds	r1, r1, #96
 832 0444 2046     		mov	r0, r4
 833 0446 FFF7FEFF 		bl	lv_obj_add_style
 834              	.LVL98:
 822:Drivers/lvgl/src/extra/themes/default/lv_theme_default.c ****             lv_obj_add_style(obj, &styles->outline_secondary, LV_PART_ITEMS | LV_STATE_EDITED);
 835              		.loc 1 822 13 is_stmt 1 view .LVU252
 822:Drivers/lvgl/src/extra/themes/default/lv_theme_default.c ****             lv_obj_add_style(obj, &styles->outline_secondary, LV_PART_ITEMS | LV_STATE_EDITED);
 836              		.loc 1 822 42 is_stmt 0 view .LVU253
 837 044a 2968     		ldr	r1, [r5]
 822:Drivers/lvgl/src/extra/themes/default/lv_theme_default.c ****             lv_obj_add_style(obj, &styles->outline_secondary, LV_PART_ITEMS | LV_STATE_EDITED);
 838              		.loc 1 822 13 view .LVU254
 839 044c 724A     		ldr	r2, .L67+16
 840 044e A031     		adds	r1, r1, #160
 841 0450 2046     		mov	r0, r4
 842 0452 FFF7FEFF 		bl	lv_obj_add_style
 843              	.LVL99:
 823:Drivers/lvgl/src/extra/themes/default/lv_theme_default.c ****             return;
 844              		.loc 1 823 13 is_stmt 1 view .LVU255
 823:Drivers/lvgl/src/extra/themes/default/lv_theme_default.c ****             return;
 845              		.loc 1 823 42 is_stmt 0 view .LVU256
 846 0456 2968     		ldr	r1, [r5]
 823:Drivers/lvgl/src/extra/themes/default/lv_theme_default.c ****             return;
 847              		.loc 1 823 13 view .LVU257
 848 0458 704A     		ldr	r2, .L67+20
 849 045a A831     		adds	r1, r1, #168
 850 045c 2046     		mov	r0, r4
 851 045e FFF7FEFF 		bl	lv_obj_add_style
 852              	.LVL100:
 824:Drivers/lvgl/src/extra/themes/default/lv_theme_default.c ****         }
 853              		.loc 1 824 13 is_stmt 1 view .LVU258
 854 0462 E2E5     		b	.L1
 855              	.L11:
 840:Drivers/lvgl/src/extra/themes/default/lv_theme_default.c ****         lv_obj_add_style(obj, &styles->bg_color_primary_muted, 0);
 856              		.loc 1 840 10 view .LVU259
 840:Drivers/lvgl/src/extra/themes/default/lv_theme_default.c ****         lv_obj_add_style(obj, &styles->bg_color_primary_muted, 0);
 857              		.loc 1 840 13 is_stmt 0 view .LVU260
 858 0464 6E49     		ldr	r1, .L67+24
 859 0466 2046     		mov	r0, r4
 860 0468 FFF7FEFF 		bl	lv_obj_check_type
 861              	.LVL101:
 840:Drivers/lvgl/src/extra/themes/default/lv_theme_default.c ****         lv_obj_add_style(obj, &styles->bg_color_primary_muted, 0);
 862              		.loc 1 840 12 view .LVU261
 863 046c 38B3     		cbz	r0, .L15
 841:Drivers/lvgl/src/extra/themes/default/lv_theme_default.c ****         lv_obj_add_style(obj, &styles->circle, 0);
 864              		.loc 1 841 9 is_stmt 1 view .LVU262
 841:Drivers/lvgl/src/extra/themes/default/lv_theme_default.c ****         lv_obj_add_style(obj, &styles->circle, 0);
 865              		.loc 1 841 38 is_stmt 0 view .LVU263
 866 046e 664D     		ldr	r5, .L67
 867 0470 2968     		ldr	r1, [r5]
 841:Drivers/lvgl/src/extra/themes/default/lv_theme_default.c ****         lv_obj_add_style(obj, &styles->circle, 0);
 868              		.loc 1 841 9 view .LVU264
ARM GAS  /var/folders/0z/tsy30v1j4xl4_7kw94k978ww0000gn/T//ccdBOSjy.s 			page 41


 869 0472 0022     		movs	r2, #0
 870 0474 3031     		adds	r1, r1, #48
 871 0476 2046     		mov	r0, r4
 872 0478 FFF7FEFF 		bl	lv_obj_add_style
 873              	.LVL102:
 842:Drivers/lvgl/src/extra/themes/default/lv_theme_default.c ****         lv_obj_add_style(obj, &styles->outline_primary, LV_STATE_FOCUS_KEY);
 874              		.loc 1 842 9 is_stmt 1 view .LVU265
 842:Drivers/lvgl/src/extra/themes/default/lv_theme_default.c ****         lv_obj_add_style(obj, &styles->outline_primary, LV_STATE_FOCUS_KEY);
 875              		.loc 1 842 38 is_stmt 0 view .LVU266
 876 047c 2968     		ldr	r1, [r5]
 842:Drivers/lvgl/src/extra/themes/default/lv_theme_default.c ****         lv_obj_add_style(obj, &styles->outline_primary, LV_STATE_FOCUS_KEY);
 877              		.loc 1 842 9 view .LVU267
 878 047e 0022     		movs	r2, #0
 879 0480 B031     		adds	r1, r1, #176
 880 0482 2046     		mov	r0, r4
 881 0484 FFF7FEFF 		bl	lv_obj_add_style
 882              	.LVL103:
 843:Drivers/lvgl/src/extra/themes/default/lv_theme_default.c ****         lv_obj_add_style(obj, &styles->outline_secondary, LV_STATE_EDITED);
 883              		.loc 1 843 9 is_stmt 1 view .LVU268
 843:Drivers/lvgl/src/extra/themes/default/lv_theme_default.c ****         lv_obj_add_style(obj, &styles->outline_secondary, LV_STATE_EDITED);
 884              		.loc 1 843 38 is_stmt 0 view .LVU269
 885 0488 2968     		ldr	r1, [r5]
 843:Drivers/lvgl/src/extra/themes/default/lv_theme_default.c ****         lv_obj_add_style(obj, &styles->outline_secondary, LV_STATE_EDITED);
 886              		.loc 1 843 9 view .LVU270
 887 048a 0422     		movs	r2, #4
 888 048c A031     		adds	r1, r1, #160
 889 048e 2046     		mov	r0, r4
 890 0490 FFF7FEFF 		bl	lv_obj_add_style
 891              	.LVL104:
 844:Drivers/lvgl/src/extra/themes/default/lv_theme_default.c ****         lv_obj_add_style(obj, &styles->bg_color_primary, LV_PART_INDICATOR);
 892              		.loc 1 844 9 is_stmt 1 view .LVU271
 844:Drivers/lvgl/src/extra/themes/default/lv_theme_default.c ****         lv_obj_add_style(obj, &styles->bg_color_primary, LV_PART_INDICATOR);
 893              		.loc 1 844 38 is_stmt 0 view .LVU272
 894 0494 2968     		ldr	r1, [r5]
 844:Drivers/lvgl/src/extra/themes/default/lv_theme_default.c ****         lv_obj_add_style(obj, &styles->bg_color_primary, LV_PART_INDICATOR);
 895              		.loc 1 844 9 view .LVU273
 896 0496 0822     		movs	r2, #8
 897 0498 A831     		adds	r1, r1, #168
 898 049a 2046     		mov	r0, r4
 899 049c FFF7FEFF 		bl	lv_obj_add_style
 900              	.LVL105:
 845:Drivers/lvgl/src/extra/themes/default/lv_theme_default.c ****         lv_obj_add_style(obj, &styles->circle, LV_PART_INDICATOR);
 901              		.loc 1 845 9 is_stmt 1 view .LVU274
 845:Drivers/lvgl/src/extra/themes/default/lv_theme_default.c ****         lv_obj_add_style(obj, &styles->circle, LV_PART_INDICATOR);
 902              		.loc 1 845 38 is_stmt 0 view .LVU275
 903 04a0 2968     		ldr	r1, [r5]
 845:Drivers/lvgl/src/extra/themes/default/lv_theme_default.c ****         lv_obj_add_style(obj, &styles->circle, LV_PART_INDICATOR);
 904              		.loc 1 845 9 view .LVU276
 905 04a2 4FF40032 		mov	r2, #131072
 906 04a6 2831     		adds	r1, r1, #40
 907 04a8 2046     		mov	r0, r4
 908 04aa FFF7FEFF 		bl	lv_obj_add_style
 909              	.LVL106:
 846:Drivers/lvgl/src/extra/themes/default/lv_theme_default.c ****     }
 910              		.loc 1 846 9 is_stmt 1 view .LVU277
 846:Drivers/lvgl/src/extra/themes/default/lv_theme_default.c ****     }
 911              		.loc 1 846 38 is_stmt 0 view .LVU278
ARM GAS  /var/folders/0z/tsy30v1j4xl4_7kw94k978ww0000gn/T//ccdBOSjy.s 			page 42


 912 04ae 2968     		ldr	r1, [r5]
 846:Drivers/lvgl/src/extra/themes/default/lv_theme_default.c ****     }
 913              		.loc 1 846 9 view .LVU279
 914 04b0 4FF40032 		mov	r2, #131072
 915 04b4 B031     		adds	r1, r1, #176
 916 04b6 2046     		mov	r0, r4
 917 04b8 FFF7FEFF 		bl	lv_obj_add_style
 918              	.LVL107:
 919 04bc B5E5     		b	.L1
 920              	.L15:
 851:Drivers/lvgl/src/extra/themes/default/lv_theme_default.c ****         lv_obj_add_style(obj, &styles->bg_color_primary_muted, 0);
 921              		.loc 1 851 10 is_stmt 1 view .LVU280
 851:Drivers/lvgl/src/extra/themes/default/lv_theme_default.c ****         lv_obj_add_style(obj, &styles->bg_color_primary_muted, 0);
 922              		.loc 1 851 13 is_stmt 0 view .LVU281
 923 04be 5949     		ldr	r1, .L67+28
 924 04c0 2046     		mov	r0, r4
 925 04c2 FFF7FEFF 		bl	lv_obj_check_type
 926              	.LVL108:
 851:Drivers/lvgl/src/extra/themes/default/lv_theme_default.c ****         lv_obj_add_style(obj, &styles->bg_color_primary_muted, 0);
 927              		.loc 1 851 12 view .LVU282
 928 04c6 0028     		cmp	r0, #0
 929 04c8 42D0     		beq	.L16
 852:Drivers/lvgl/src/extra/themes/default/lv_theme_default.c ****         lv_obj_add_style(obj, &styles->circle, 0);
 930              		.loc 1 852 9 is_stmt 1 view .LVU283
 852:Drivers/lvgl/src/extra/themes/default/lv_theme_default.c ****         lv_obj_add_style(obj, &styles->circle, 0);
 931              		.loc 1 852 38 is_stmt 0 view .LVU284
 932 04ca 4F4D     		ldr	r5, .L67
 933 04cc 2968     		ldr	r1, [r5]
 852:Drivers/lvgl/src/extra/themes/default/lv_theme_default.c ****         lv_obj_add_style(obj, &styles->circle, 0);
 934              		.loc 1 852 9 view .LVU285
 935 04ce 0022     		movs	r2, #0
 936 04d0 3031     		adds	r1, r1, #48
 937 04d2 2046     		mov	r0, r4
 938 04d4 FFF7FEFF 		bl	lv_obj_add_style
 939              	.LVL109:
 853:Drivers/lvgl/src/extra/themes/default/lv_theme_default.c ****         lv_obj_add_style(obj, &styles->outline_primary, LV_STATE_FOCUS_KEY);
 940              		.loc 1 853 9 is_stmt 1 view .LVU286
 853:Drivers/lvgl/src/extra/themes/default/lv_theme_default.c ****         lv_obj_add_style(obj, &styles->outline_primary, LV_STATE_FOCUS_KEY);
 941              		.loc 1 853 38 is_stmt 0 view .LVU287
 942 04d8 2968     		ldr	r1, [r5]
 853:Drivers/lvgl/src/extra/themes/default/lv_theme_default.c ****         lv_obj_add_style(obj, &styles->outline_primary, LV_STATE_FOCUS_KEY);
 943              		.loc 1 853 9 view .LVU288
 944 04da 0022     		movs	r2, #0
 945 04dc B031     		adds	r1, r1, #176
 946 04de 2046     		mov	r0, r4
 947 04e0 FFF7FEFF 		bl	lv_obj_add_style
 948              	.LVL110:
 854:Drivers/lvgl/src/extra/themes/default/lv_theme_default.c ****         lv_obj_add_style(obj, &styles->outline_secondary, LV_STATE_EDITED);
 949              		.loc 1 854 9 is_stmt 1 view .LVU289
 854:Drivers/lvgl/src/extra/themes/default/lv_theme_default.c ****         lv_obj_add_style(obj, &styles->outline_secondary, LV_STATE_EDITED);
 950              		.loc 1 854 38 is_stmt 0 view .LVU290
 951 04e4 2968     		ldr	r1, [r5]
 854:Drivers/lvgl/src/extra/themes/default/lv_theme_default.c ****         lv_obj_add_style(obj, &styles->outline_secondary, LV_STATE_EDITED);
 952              		.loc 1 854 9 view .LVU291
 953 04e6 0422     		movs	r2, #4
 954 04e8 A031     		adds	r1, r1, #160
 955 04ea 2046     		mov	r0, r4
ARM GAS  /var/folders/0z/tsy30v1j4xl4_7kw94k978ww0000gn/T//ccdBOSjy.s 			page 43


 956 04ec FFF7FEFF 		bl	lv_obj_add_style
 957              	.LVL111:
 855:Drivers/lvgl/src/extra/themes/default/lv_theme_default.c ****         lv_obj_add_style(obj, &styles->bg_color_primary, LV_PART_INDICATOR);
 958              		.loc 1 855 9 is_stmt 1 view .LVU292
 855:Drivers/lvgl/src/extra/themes/default/lv_theme_default.c ****         lv_obj_add_style(obj, &styles->bg_color_primary, LV_PART_INDICATOR);
 959              		.loc 1 855 38 is_stmt 0 view .LVU293
 960 04f0 2968     		ldr	r1, [r5]
 855:Drivers/lvgl/src/extra/themes/default/lv_theme_default.c ****         lv_obj_add_style(obj, &styles->bg_color_primary, LV_PART_INDICATOR);
 961              		.loc 1 855 9 view .LVU294
 962 04f2 0822     		movs	r2, #8
 963 04f4 A831     		adds	r1, r1, #168
 964 04f6 2046     		mov	r0, r4
 965 04f8 FFF7FEFF 		bl	lv_obj_add_style
 966              	.LVL112:
 856:Drivers/lvgl/src/extra/themes/default/lv_theme_default.c ****         lv_obj_add_style(obj, &styles->circle, LV_PART_INDICATOR);
 967              		.loc 1 856 9 is_stmt 1 view .LVU295
 856:Drivers/lvgl/src/extra/themes/default/lv_theme_default.c ****         lv_obj_add_style(obj, &styles->circle, LV_PART_INDICATOR);
 968              		.loc 1 856 38 is_stmt 0 view .LVU296
 969 04fc 2968     		ldr	r1, [r5]
 856:Drivers/lvgl/src/extra/themes/default/lv_theme_default.c ****         lv_obj_add_style(obj, &styles->circle, LV_PART_INDICATOR);
 970              		.loc 1 856 9 view .LVU297
 971 04fe 4FF40032 		mov	r2, #131072
 972 0502 2831     		adds	r1, r1, #40
 973 0504 2046     		mov	r0, r4
 974 0506 FFF7FEFF 		bl	lv_obj_add_style
 975              	.LVL113:
 857:Drivers/lvgl/src/extra/themes/default/lv_theme_default.c ****         lv_obj_add_style(obj, &styles->knob, LV_PART_KNOB);
 976              		.loc 1 857 9 is_stmt 1 view .LVU298
 857:Drivers/lvgl/src/extra/themes/default/lv_theme_default.c ****         lv_obj_add_style(obj, &styles->knob, LV_PART_KNOB);
 977              		.loc 1 857 38 is_stmt 0 view .LVU299
 978 050a 2968     		ldr	r1, [r5]
 857:Drivers/lvgl/src/extra/themes/default/lv_theme_default.c ****         lv_obj_add_style(obj, &styles->knob, LV_PART_KNOB);
 979              		.loc 1 857 9 view .LVU300
 980 050c 4FF40032 		mov	r2, #131072
 981 0510 B031     		adds	r1, r1, #176
 982 0512 2046     		mov	r0, r4
 983 0514 FFF7FEFF 		bl	lv_obj_add_style
 984              	.LVL114:
 858:Drivers/lvgl/src/extra/themes/default/lv_theme_default.c **** #if LV_THEME_DEFAULT_GROW
 985              		.loc 1 858 9 is_stmt 1 view .LVU301
 858:Drivers/lvgl/src/extra/themes/default/lv_theme_default.c **** #if LV_THEME_DEFAULT_GROW
 986              		.loc 1 858 38 is_stmt 0 view .LVU302
 987 0518 2968     		ldr	r1, [r5]
 858:Drivers/lvgl/src/extra/themes/default/lv_theme_default.c **** #if LV_THEME_DEFAULT_GROW
 988              		.loc 1 858 9 view .LVU303
 989 051a 4FF44032 		mov	r2, #196608
 990 051e F031     		adds	r1, r1, #240
 991 0520 2046     		mov	r0, r4
 992 0522 FFF7FEFF 		bl	lv_obj_add_style
 993              	.LVL115:
 860:Drivers/lvgl/src/extra/themes/default/lv_theme_default.c **** #endif
 994              		.loc 1 860 9 is_stmt 1 view .LVU304
 860:Drivers/lvgl/src/extra/themes/default/lv_theme_default.c **** #endif
 995              		.loc 1 860 38 is_stmt 0 view .LVU305
 996 0526 2968     		ldr	r1, [r5]
 860:Drivers/lvgl/src/extra/themes/default/lv_theme_default.c **** #endif
 997              		.loc 1 860 9 view .LVU306
ARM GAS  /var/folders/0z/tsy30v1j4xl4_7kw94k978ww0000gn/T//ccdBOSjy.s 			page 44


 998 0528 3F4E     		ldr	r6, .L67+32
 999 052a 3246     		mov	r2, r6
 1000 052c C831     		adds	r1, r1, #200
 1001 052e 2046     		mov	r0, r4
 1002 0530 FFF7FEFF 		bl	lv_obj_add_style
 1003              	.LVL116:
 862:Drivers/lvgl/src/extra/themes/default/lv_theme_default.c ****         lv_obj_add_style(obj, &styles->transition_normal, LV_PART_KNOB | LV_STATE_PRESSED);
 1004              		.loc 1 862 9 is_stmt 1 view .LVU307
 862:Drivers/lvgl/src/extra/themes/default/lv_theme_default.c ****         lv_obj_add_style(obj, &styles->transition_normal, LV_PART_KNOB | LV_STATE_PRESSED);
 1005              		.loc 1 862 38 is_stmt 0 view .LVU308
 1006 0534 2968     		ldr	r1, [r5]
 862:Drivers/lvgl/src/extra/themes/default/lv_theme_default.c ****         lv_obj_add_style(obj, &styles->transition_normal, LV_PART_KNOB | LV_STATE_PRESSED);
 1007              		.loc 1 862 9 view .LVU309
 1008 0536 4FF44032 		mov	r2, #196608
 1009 053a D031     		adds	r1, r1, #208
 1010 053c 2046     		mov	r0, r4
 1011 053e FFF7FEFF 		bl	lv_obj_add_style
 1012              	.LVL117:
 863:Drivers/lvgl/src/extra/themes/default/lv_theme_default.c ****     }
 1013              		.loc 1 863 9 is_stmt 1 view .LVU310
 863:Drivers/lvgl/src/extra/themes/default/lv_theme_default.c ****     }
 1014              		.loc 1 863 38 is_stmt 0 view .LVU311
 1015 0542 2968     		ldr	r1, [r5]
 863:Drivers/lvgl/src/extra/themes/default/lv_theme_default.c ****     }
 1016              		.loc 1 863 9 view .LVU312
 1017 0544 3246     		mov	r2, r6
 1018 0546 D831     		adds	r1, r1, #216
 1019 0548 2046     		mov	r0, r4
 1020 054a FFF7FEFF 		bl	lv_obj_add_style
 1021              	.LVL118:
 1022 054e 6CE5     		b	.L1
 1023              	.L16:
 868:Drivers/lvgl/src/extra/themes/default/lv_theme_default.c ****         lv_obj_add_style(obj, &styles->card, 0);
 1024              		.loc 1 868 10 is_stmt 1 view .LVU313
 868:Drivers/lvgl/src/extra/themes/default/lv_theme_default.c ****         lv_obj_add_style(obj, &styles->card, 0);
 1025              		.loc 1 868 13 is_stmt 0 view .LVU314
 1026 0550 3649     		ldr	r1, .L67+36
 1027 0552 2046     		mov	r0, r4
 1028 0554 FFF7FEFF 		bl	lv_obj_check_type
 1029              	.LVL119:
 868:Drivers/lvgl/src/extra/themes/default/lv_theme_default.c ****         lv_obj_add_style(obj, &styles->card, 0);
 1030              		.loc 1 868 12 view .LVU315
 1031 0558 0028     		cmp	r0, #0
 1032 055a 6BD0     		beq	.L17
 869:Drivers/lvgl/src/extra/themes/default/lv_theme_default.c ****         lv_obj_add_style(obj, &styles->pad_zero, 0);
 1033              		.loc 1 869 9 is_stmt 1 view .LVU316
 869:Drivers/lvgl/src/extra/themes/default/lv_theme_default.c ****         lv_obj_add_style(obj, &styles->pad_zero, 0);
 1034              		.loc 1 869 38 is_stmt 0 view .LVU317
 1035 055c 2A4D     		ldr	r5, .L67
 1036 055e 2968     		ldr	r1, [r5]
 869:Drivers/lvgl/src/extra/themes/default/lv_theme_default.c ****         lv_obj_add_style(obj, &styles->pad_zero, 0);
 1037              		.loc 1 869 9 view .LVU318
 1038 0560 0022     		movs	r2, #0
 1039 0562 1831     		adds	r1, r1, #24
 1040 0564 2046     		mov	r0, r4
 1041 0566 FFF7FEFF 		bl	lv_obj_add_style
 1042              	.LVL120:
ARM GAS  /var/folders/0z/tsy30v1j4xl4_7kw94k978ww0000gn/T//ccdBOSjy.s 			page 45


 870:Drivers/lvgl/src/extra/themes/default/lv_theme_default.c ****         lv_obj_add_style(obj, &styles->no_radius, 0);
 1043              		.loc 1 870 9 is_stmt 1 view .LVU319
 870:Drivers/lvgl/src/extra/themes/default/lv_theme_default.c ****         lv_obj_add_style(obj, &styles->no_radius, 0);
 1044              		.loc 1 870 38 is_stmt 0 view .LVU320
 1045 056a 2968     		ldr	r1, [r5]
 870:Drivers/lvgl/src/extra/themes/default/lv_theme_default.c ****         lv_obj_add_style(obj, &styles->no_radius, 0);
 1046              		.loc 1 870 9 view .LVU321
 1047 056c 0022     		movs	r2, #0
 1048 056e 6831     		adds	r1, r1, #104
 1049 0570 2046     		mov	r0, r4
 1050 0572 FFF7FEFF 		bl	lv_obj_add_style
 1051              	.LVL121:
 871:Drivers/lvgl/src/extra/themes/default/lv_theme_default.c ****         lv_obj_add_style(obj, &styles->outline_primary, LV_STATE_FOCUS_KEY);
 1052              		.loc 1 871 9 is_stmt 1 view .LVU322
 871:Drivers/lvgl/src/extra/themes/default/lv_theme_default.c ****         lv_obj_add_style(obj, &styles->outline_primary, LV_STATE_FOCUS_KEY);
 1053              		.loc 1 871 38 is_stmt 0 view .LVU323
 1054 0576 2968     		ldr	r1, [r5]
 871:Drivers/lvgl/src/extra/themes/default/lv_theme_default.c ****         lv_obj_add_style(obj, &styles->outline_primary, LV_STATE_FOCUS_KEY);
 1055              		.loc 1 871 9 view .LVU324
 1056 0578 0022     		movs	r2, #0
 1057 057a B831     		adds	r1, r1, #184
 1058 057c 2046     		mov	r0, r4
 1059 057e FFF7FEFF 		bl	lv_obj_add_style
 1060              	.LVL122:
 872:Drivers/lvgl/src/extra/themes/default/lv_theme_default.c ****         lv_obj_add_style(obj, &styles->outline_secondary, LV_STATE_EDITED);
 1061              		.loc 1 872 9 is_stmt 1 view .LVU325
 872:Drivers/lvgl/src/extra/themes/default/lv_theme_default.c ****         lv_obj_add_style(obj, &styles->outline_secondary, LV_STATE_EDITED);
 1062              		.loc 1 872 38 is_stmt 0 view .LVU326
 1063 0582 2968     		ldr	r1, [r5]
 872:Drivers/lvgl/src/extra/themes/default/lv_theme_default.c ****         lv_obj_add_style(obj, &styles->outline_secondary, LV_STATE_EDITED);
 1064              		.loc 1 872 9 view .LVU327
 1065 0584 0422     		movs	r2, #4
 1066 0586 A031     		adds	r1, r1, #160
 1067 0588 2046     		mov	r0, r4
 1068 058a FFF7FEFF 		bl	lv_obj_add_style
 1069              	.LVL123:
 873:Drivers/lvgl/src/extra/themes/default/lv_theme_default.c ****         lv_obj_add_style(obj, &styles->scrollbar, LV_PART_SCROLLBAR);
 1070              		.loc 1 873 9 is_stmt 1 view .LVU328
 873:Drivers/lvgl/src/extra/themes/default/lv_theme_default.c ****         lv_obj_add_style(obj, &styles->scrollbar, LV_PART_SCROLLBAR);
 1071              		.loc 1 873 38 is_stmt 0 view .LVU329
 1072 058e 2968     		ldr	r1, [r5]
 873:Drivers/lvgl/src/extra/themes/default/lv_theme_default.c ****         lv_obj_add_style(obj, &styles->scrollbar, LV_PART_SCROLLBAR);
 1073              		.loc 1 873 9 view .LVU330
 1074 0590 0822     		movs	r2, #8
 1075 0592 A831     		adds	r1, r1, #168
 1076 0594 2046     		mov	r0, r4
 1077 0596 FFF7FEFF 		bl	lv_obj_add_style
 1078              	.LVL124:
 874:Drivers/lvgl/src/extra/themes/default/lv_theme_default.c ****         lv_obj_add_style(obj, &styles->scrollbar_scrolled, LV_PART_SCROLLBAR | LV_STATE_SCROLLED);
 1079              		.loc 1 874 9 is_stmt 1 view .LVU331
 874:Drivers/lvgl/src/extra/themes/default/lv_theme_default.c ****         lv_obj_add_style(obj, &styles->scrollbar_scrolled, LV_PART_SCROLLBAR | LV_STATE_SCROLLED);
 1080              		.loc 1 874 38 is_stmt 0 view .LVU332
 1081 059a 2968     		ldr	r1, [r5]
 874:Drivers/lvgl/src/extra/themes/default/lv_theme_default.c ****         lv_obj_add_style(obj, &styles->scrollbar_scrolled, LV_PART_SCROLLBAR | LV_STATE_SCROLLED);
 1082              		.loc 1 874 9 view .LVU333
 1083 059c 4FF48032 		mov	r2, #65536
 1084 05a0 0831     		adds	r1, r1, #8
ARM GAS  /var/folders/0z/tsy30v1j4xl4_7kw94k978ww0000gn/T//ccdBOSjy.s 			page 46


 1085 05a2 2046     		mov	r0, r4
 1086 05a4 FFF7FEFF 		bl	lv_obj_add_style
 1087              	.LVL125:
 875:Drivers/lvgl/src/extra/themes/default/lv_theme_default.c ****         lv_obj_add_style(obj, &styles->bg_color_white, LV_PART_ITEMS);
 1088              		.loc 1 875 9 is_stmt 1 view .LVU334
 875:Drivers/lvgl/src/extra/themes/default/lv_theme_default.c ****         lv_obj_add_style(obj, &styles->bg_color_white, LV_PART_ITEMS);
 1089              		.loc 1 875 38 is_stmt 0 view .LVU335
 1090 05a8 2968     		ldr	r1, [r5]
 875:Drivers/lvgl/src/extra/themes/default/lv_theme_default.c ****         lv_obj_add_style(obj, &styles->bg_color_white, LV_PART_ITEMS);
 1091              		.loc 1 875 9 view .LVU336
 1092 05aa 214A     		ldr	r2, .L67+40
 1093 05ac 1031     		adds	r1, r1, #16
 1094 05ae 2046     		mov	r0, r4
 1095 05b0 FFF7FEFF 		bl	lv_obj_add_style
 1096              	.LVL126:
 876:Drivers/lvgl/src/extra/themes/default/lv_theme_default.c ****         lv_obj_add_style(obj, &styles->table_cell, LV_PART_ITEMS);
 1097              		.loc 1 876 9 is_stmt 1 view .LVU337
 876:Drivers/lvgl/src/extra/themes/default/lv_theme_default.c ****         lv_obj_add_style(obj, &styles->table_cell, LV_PART_ITEMS);
 1098              		.loc 1 876 38 is_stmt 0 view .LVU338
 1099 05b4 2968     		ldr	r1, [r5]
 876:Drivers/lvgl/src/extra/themes/default/lv_theme_default.c ****         lv_obj_add_style(obj, &styles->table_cell, LV_PART_ITEMS);
 1100              		.loc 1 876 9 view .LVU339
 1101 05b6 4FF4A022 		mov	r2, #327680
 1102 05ba 5031     		adds	r1, r1, #80
 1103 05bc 2046     		mov	r0, r4
 1104 05be FFF7FEFF 		bl	lv_obj_add_style
 1105              	.LVL127:
 877:Drivers/lvgl/src/extra/themes/default/lv_theme_default.c ****         lv_obj_add_style(obj, &styles->pad_normal, LV_PART_ITEMS);
 1106              		.loc 1 877 9 is_stmt 1 view .LVU340
 877:Drivers/lvgl/src/extra/themes/default/lv_theme_default.c ****         lv_obj_add_style(obj, &styles->pad_normal, LV_PART_ITEMS);
 1107              		.loc 1 877 38 is_stmt 0 view .LVU341
 1108 05c2 2968     		ldr	r1, [r5]
 877:Drivers/lvgl/src/extra/themes/default/lv_theme_default.c ****         lv_obj_add_style(obj, &styles->pad_normal, LV_PART_ITEMS);
 1109              		.loc 1 877 9 view .LVU342
 1110 05c4 4FF4A022 		mov	r2, #327680
 1111 05c8 01F5AC71 		add	r1, r1, #344
 1112 05cc 2046     		mov	r0, r4
 1113 05ce FFF7FEFF 		bl	lv_obj_add_style
 1114              	.LVL128:
 878:Drivers/lvgl/src/extra/themes/default/lv_theme_default.c ****         lv_obj_add_style(obj, &styles->pressed, LV_PART_ITEMS | LV_STATE_PRESSED);
 1115              		.loc 1 878 9 is_stmt 1 view .LVU343
 878:Drivers/lvgl/src/extra/themes/default/lv_theme_default.c ****         lv_obj_add_style(obj, &styles->pressed, LV_PART_ITEMS | LV_STATE_PRESSED);
 1116              		.loc 1 878 38 is_stmt 0 view .LVU344
 1117 05d2 2968     		ldr	r1, [r5]
 878:Drivers/lvgl/src/extra/themes/default/lv_theme_default.c ****         lv_obj_add_style(obj, &styles->pressed, LV_PART_ITEMS | LV_STATE_PRESSED);
 1118              		.loc 1 878 9 view .LVU345
 1119 05d4 4FF4A022 		mov	r2, #327680
 1120 05d8 8031     		adds	r1, r1, #128
 1121 05da 2046     		mov	r0, r4
 1122 05dc FFF7FEFF 		bl	lv_obj_add_style
 1123              	.LVL129:
 879:Drivers/lvgl/src/extra/themes/default/lv_theme_default.c ****         lv_obj_add_style(obj, &styles->bg_color_primary, LV_PART_ITEMS | LV_STATE_FOCUS_KEY);
 1124              		.loc 1 879 9 is_stmt 1 view .LVU346
 879:Drivers/lvgl/src/extra/themes/default/lv_theme_default.c ****         lv_obj_add_style(obj, &styles->bg_color_primary, LV_PART_ITEMS | LV_STATE_FOCUS_KEY);
 1125              		.loc 1 879 38 is_stmt 0 view .LVU347
 1126 05e0 2968     		ldr	r1, [r5]
 879:Drivers/lvgl/src/extra/themes/default/lv_theme_default.c ****         lv_obj_add_style(obj, &styles->bg_color_primary, LV_PART_ITEMS | LV_STATE_FOCUS_KEY);
ARM GAS  /var/folders/0z/tsy30v1j4xl4_7kw94k978ww0000gn/T//ccdBOSjy.s 			page 47


 1127              		.loc 1 879 9 view .LVU348
 1128 05e2 0A4A     		ldr	r2, .L67+4
 1129 05e4 5831     		adds	r1, r1, #88
 1130 05e6 2046     		mov	r0, r4
 1131 05e8 FFF7FEFF 		bl	lv_obj_add_style
 1132              	.LVL130:
 880:Drivers/lvgl/src/extra/themes/default/lv_theme_default.c ****         lv_obj_add_style(obj, &styles->bg_color_secondary, LV_PART_ITEMS | LV_STATE_EDITED);
 1133              		.loc 1 880 9 is_stmt 1 view .LVU349
 880:Drivers/lvgl/src/extra/themes/default/lv_theme_default.c ****         lv_obj_add_style(obj, &styles->bg_color_secondary, LV_PART_ITEMS | LV_STATE_EDITED);
 1134              		.loc 1 880 38 is_stmt 0 view .LVU350
 1135 05ec 2968     		ldr	r1, [r5]
 880:Drivers/lvgl/src/extra/themes/default/lv_theme_default.c ****         lv_obj_add_style(obj, &styles->bg_color_secondary, LV_PART_ITEMS | LV_STATE_EDITED);
 1136              		.loc 1 880 9 view .LVU351
 1137 05ee 0A4A     		ldr	r2, .L67+16
 1138 05f0 2831     		adds	r1, r1, #40
 1139 05f2 2046     		mov	r0, r4
 1140 05f4 FFF7FEFF 		bl	lv_obj_add_style
 1141              	.LVL131:
 881:Drivers/lvgl/src/extra/themes/default/lv_theme_default.c ****     }
 1142              		.loc 1 881 9 is_stmt 1 view .LVU352
 881:Drivers/lvgl/src/extra/themes/default/lv_theme_default.c ****     }
 1143              		.loc 1 881 38 is_stmt 0 view .LVU353
 1144 05f8 2968     		ldr	r1, [r5]
 881:Drivers/lvgl/src/extra/themes/default/lv_theme_default.c ****     }
 1145              		.loc 1 881 9 view .LVU354
 1146 05fa 084A     		ldr	r2, .L67+20
 1147 05fc 3831     		adds	r1, r1, #56
 1148 05fe 2046     		mov	r0, r4
 1149 0600 FFF7FEFF 		bl	lv_obj_add_style
 1150              	.LVL132:
 1151 0604 11E5     		b	.L1
 1152              	.L68:
 1153 0606 00BF     		.align	2
 1154              	.L67:
 1155 0608 00000000 		.word	.LANCHOR0
 1156 060c 20000500 		.word	327712
 1157 0610 80000500 		.word	327808
 1158 0614 01000500 		.word	327681
 1159 0618 04000500 		.word	327684
 1160 061c 08000500 		.word	327688
 1161 0620 00000000 		.word	lv_bar_class
 1162 0624 00000000 		.word	lv_slider_class
 1163 0628 20000300 		.word	196640
 1164 062c 00000000 		.word	lv_table_class
 1165 0630 40000100 		.word	65600
 1166              	.L17:
 886:Drivers/lvgl/src/extra/themes/default/lv_theme_default.c ****         lv_obj_add_style(obj, &styles->pad_gap, 0);
 1167              		.loc 1 886 10 is_stmt 1 view .LVU355
 886:Drivers/lvgl/src/extra/themes/default/lv_theme_default.c ****         lv_obj_add_style(obj, &styles->pad_gap, 0);
 1168              		.loc 1 886 13 is_stmt 0 view .LVU356
 1169 0634 B049     		ldr	r1, .L69
 1170 0636 2046     		mov	r0, r4
 1171 0638 FFF7FEFF 		bl	lv_obj_check_type
 1172              	.LVL133:
 886:Drivers/lvgl/src/extra/themes/default/lv_theme_default.c ****         lv_obj_add_style(obj, &styles->pad_gap, 0);
 1173              		.loc 1 886 12 view .LVU357
 1174 063c 0028     		cmp	r0, #0
ARM GAS  /var/folders/0z/tsy30v1j4xl4_7kw94k978ww0000gn/T//ccdBOSjy.s 			page 48


 1175 063e 43D0     		beq	.L18
 887:Drivers/lvgl/src/extra/themes/default/lv_theme_default.c ****         lv_obj_add_style(obj, &styles->outline_primary, LV_STATE_FOCUS_KEY);
 1176              		.loc 1 887 9 is_stmt 1 view .LVU358
 887:Drivers/lvgl/src/extra/themes/default/lv_theme_default.c ****         lv_obj_add_style(obj, &styles->outline_primary, LV_STATE_FOCUS_KEY);
 1177              		.loc 1 887 38 is_stmt 0 view .LVU359
 1178 0640 AE4D     		ldr	r5, .L69+4
 1179 0642 2968     		ldr	r1, [r5]
 887:Drivers/lvgl/src/extra/themes/default/lv_theme_default.c ****         lv_obj_add_style(obj, &styles->outline_primary, LV_STATE_FOCUS_KEY);
 1180              		.loc 1 887 9 view .LVU360
 1181 0644 0022     		movs	r2, #0
 1182 0646 8831     		adds	r1, r1, #136
 1183 0648 2046     		mov	r0, r4
 1184 064a FFF7FEFF 		bl	lv_obj_add_style
 1185              	.LVL134:
 888:Drivers/lvgl/src/extra/themes/default/lv_theme_default.c ****         lv_obj_add_style(obj, &styles->disabled, LV_PART_INDICATOR | LV_STATE_DISABLED);
 1186              		.loc 1 888 9 is_stmt 1 view .LVU361
 888:Drivers/lvgl/src/extra/themes/default/lv_theme_default.c ****         lv_obj_add_style(obj, &styles->disabled, LV_PART_INDICATOR | LV_STATE_DISABLED);
 1187              		.loc 1 888 38 is_stmt 0 view .LVU362
 1188 064e 2968     		ldr	r1, [r5]
 888:Drivers/lvgl/src/extra/themes/default/lv_theme_default.c ****         lv_obj_add_style(obj, &styles->disabled, LV_PART_INDICATOR | LV_STATE_DISABLED);
 1189              		.loc 1 888 9 view .LVU363
 1190 0650 0422     		movs	r2, #4
 1191 0652 A031     		adds	r1, r1, #160
 1192 0654 2046     		mov	r0, r4
 1193 0656 FFF7FEFF 		bl	lv_obj_add_style
 1194              	.LVL135:
 889:Drivers/lvgl/src/extra/themes/default/lv_theme_default.c ****         lv_obj_add_style(obj, &styles->cb_marker, LV_PART_INDICATOR);
 1195              		.loc 1 889 9 is_stmt 1 view .LVU364
 889:Drivers/lvgl/src/extra/themes/default/lv_theme_default.c ****         lv_obj_add_style(obj, &styles->cb_marker, LV_PART_INDICATOR);
 1196              		.loc 1 889 38 is_stmt 0 view .LVU365
 1197 065a 2968     		ldr	r1, [r5]
 889:Drivers/lvgl/src/extra/themes/default/lv_theme_default.c ****         lv_obj_add_style(obj, &styles->cb_marker, LV_PART_INDICATOR);
 1198              		.loc 1 889 9 view .LVU366
 1199 065c A84A     		ldr	r2, .L69+8
 1200 065e 6031     		adds	r1, r1, #96
 1201 0660 2046     		mov	r0, r4
 1202 0662 FFF7FEFF 		bl	lv_obj_add_style
 1203              	.LVL136:
 890:Drivers/lvgl/src/extra/themes/default/lv_theme_default.c ****         lv_obj_add_style(obj, &styles->bg_color_primary, LV_PART_INDICATOR | LV_STATE_CHECKED);
 1204              		.loc 1 890 9 is_stmt 1 view .LVU367
 890:Drivers/lvgl/src/extra/themes/default/lv_theme_default.c ****         lv_obj_add_style(obj, &styles->bg_color_primary, LV_PART_INDICATOR | LV_STATE_CHECKED);
 1205              		.loc 1 890 38 is_stmt 0 view .LVU368
 1206 0666 2968     		ldr	r1, [r5]
 890:Drivers/lvgl/src/extra/themes/default/lv_theme_default.c ****         lv_obj_add_style(obj, &styles->bg_color_primary, LV_PART_INDICATOR | LV_STATE_CHECKED);
 1207              		.loc 1 890 9 view .LVU369
 1208 0668 4FF40032 		mov	r2, #131072
 1209 066c 01F59C71 		add	r1, r1, #312
 1210 0670 2046     		mov	r0, r4
 1211 0672 FFF7FEFF 		bl	lv_obj_add_style
 1212              	.LVL137:
 891:Drivers/lvgl/src/extra/themes/default/lv_theme_default.c ****         lv_obj_add_style(obj, &styles->cb_marker_checked, LV_PART_INDICATOR | LV_STATE_CHECKED);
 1213              		.loc 1 891 9 is_stmt 1 view .LVU370
 891:Drivers/lvgl/src/extra/themes/default/lv_theme_default.c ****         lv_obj_add_style(obj, &styles->cb_marker_checked, LV_PART_INDICATOR | LV_STATE_CHECKED);
 1214              		.loc 1 891 38 is_stmt 0 view .LVU371
 1215 0676 2968     		ldr	r1, [r5]
 891:Drivers/lvgl/src/extra/themes/default/lv_theme_default.c ****         lv_obj_add_style(obj, &styles->cb_marker_checked, LV_PART_INDICATOR | LV_STATE_CHECKED);
 1216              		.loc 1 891 9 view .LVU372
ARM GAS  /var/folders/0z/tsy30v1j4xl4_7kw94k978ww0000gn/T//ccdBOSjy.s 			page 49


 1217 0678 A24E     		ldr	r6, .L69+12
 1218 067a 3246     		mov	r2, r6
 1219 067c 2831     		adds	r1, r1, #40
 1220 067e 2046     		mov	r0, r4
 1221 0680 FFF7FEFF 		bl	lv_obj_add_style
 1222              	.LVL138:
 892:Drivers/lvgl/src/extra/themes/default/lv_theme_default.c ****         lv_obj_add_style(obj, &styles->pressed, LV_PART_INDICATOR | LV_STATE_PRESSED);
 1223              		.loc 1 892 9 is_stmt 1 view .LVU373
 892:Drivers/lvgl/src/extra/themes/default/lv_theme_default.c ****         lv_obj_add_style(obj, &styles->pressed, LV_PART_INDICATOR | LV_STATE_PRESSED);
 1224              		.loc 1 892 38 is_stmt 0 view .LVU374
 1225 0684 2968     		ldr	r1, [r5]
 892:Drivers/lvgl/src/extra/themes/default/lv_theme_default.c ****         lv_obj_add_style(obj, &styles->pressed, LV_PART_INDICATOR | LV_STATE_PRESSED);
 1226              		.loc 1 892 9 view .LVU375
 1227 0686 3246     		mov	r2, r6
 1228 0688 01F5A071 		add	r1, r1, #320
 1229 068c 2046     		mov	r0, r4
 1230 068e FFF7FEFF 		bl	lv_obj_add_style
 1231              	.LVL139:
 893:Drivers/lvgl/src/extra/themes/default/lv_theme_default.c **** #if LV_THEME_DEFAULT_GROW
 1232              		.loc 1 893 9 is_stmt 1 view .LVU376
 893:Drivers/lvgl/src/extra/themes/default/lv_theme_default.c **** #if LV_THEME_DEFAULT_GROW
 1233              		.loc 1 893 38 is_stmt 0 view .LVU377
 1234 0692 2968     		ldr	r1, [r5]
 893:Drivers/lvgl/src/extra/themes/default/lv_theme_default.c **** #if LV_THEME_DEFAULT_GROW
 1235              		.loc 1 893 9 view .LVU378
 1236 0694 1F36     		adds	r6, r6, #31
 1237 0696 3246     		mov	r2, r6
 1238 0698 5831     		adds	r1, r1, #88
 1239 069a 2046     		mov	r0, r4
 1240 069c FFF7FEFF 		bl	lv_obj_add_style
 1241              	.LVL140:
 895:Drivers/lvgl/src/extra/themes/default/lv_theme_default.c **** #endif
 1242              		.loc 1 895 9 is_stmt 1 view .LVU379
 895:Drivers/lvgl/src/extra/themes/default/lv_theme_default.c **** #endif
 1243              		.loc 1 895 38 is_stmt 0 view .LVU380
 1244 06a0 2968     		ldr	r1, [r5]
 895:Drivers/lvgl/src/extra/themes/default/lv_theme_default.c **** #endif
 1245              		.loc 1 895 9 view .LVU381
 1246 06a2 3246     		mov	r2, r6
 1247 06a4 C831     		adds	r1, r1, #200
 1248 06a6 2046     		mov	r0, r4
 1249 06a8 FFF7FEFF 		bl	lv_obj_add_style
 1250              	.LVL141:
 897:Drivers/lvgl/src/extra/themes/default/lv_theme_default.c ****         lv_obj_add_style(obj, &styles->transition_delayed, LV_PART_INDICATOR);
 1251              		.loc 1 897 9 is_stmt 1 view .LVU382
 897:Drivers/lvgl/src/extra/themes/default/lv_theme_default.c ****         lv_obj_add_style(obj, &styles->transition_delayed, LV_PART_INDICATOR);
 1252              		.loc 1 897 38 is_stmt 0 view .LVU383
 1253 06ac 2968     		ldr	r1, [r5]
 897:Drivers/lvgl/src/extra/themes/default/lv_theme_default.c ****         lv_obj_add_style(obj, &styles->transition_delayed, LV_PART_INDICATOR);
 1254              		.loc 1 897 9 view .LVU384
 1255 06ae 3246     		mov	r2, r6
 1256 06b0 D831     		adds	r1, r1, #216
 1257 06b2 2046     		mov	r0, r4
 1258 06b4 FFF7FEFF 		bl	lv_obj_add_style
 1259              	.LVL142:
 898:Drivers/lvgl/src/extra/themes/default/lv_theme_default.c ****     }
 1260              		.loc 1 898 9 is_stmt 1 view .LVU385
ARM GAS  /var/folders/0z/tsy30v1j4xl4_7kw94k978ww0000gn/T//ccdBOSjy.s 			page 50


 898:Drivers/lvgl/src/extra/themes/default/lv_theme_default.c ****     }
 1261              		.loc 1 898 38 is_stmt 0 view .LVU386
 1262 06b8 2968     		ldr	r1, [r5]
 898:Drivers/lvgl/src/extra/themes/default/lv_theme_default.c ****     }
 1263              		.loc 1 898 9 view .LVU387
 1264 06ba 4FF40032 		mov	r2, #131072
 1265 06be D031     		adds	r1, r1, #208
 1266 06c0 2046     		mov	r0, r4
 1267 06c2 FFF7FEFF 		bl	lv_obj_add_style
 1268              	.LVL143:
 1269 06c6 B0E4     		b	.L1
 1270              	.L18:
 903:Drivers/lvgl/src/extra/themes/default/lv_theme_default.c ****         lv_obj_add_style(obj, &styles->bg_color_grey, 0);
 1271              		.loc 1 903 10 is_stmt 1 view .LVU388
 903:Drivers/lvgl/src/extra/themes/default/lv_theme_default.c ****         lv_obj_add_style(obj, &styles->bg_color_grey, 0);
 1272              		.loc 1 903 13 is_stmt 0 view .LVU389
 1273 06c8 8F49     		ldr	r1, .L69+16
 1274 06ca 2046     		mov	r0, r4
 1275 06cc FFF7FEFF 		bl	lv_obj_check_type
 1276              	.LVL144:
 903:Drivers/lvgl/src/extra/themes/default/lv_theme_default.c ****         lv_obj_add_style(obj, &styles->bg_color_grey, 0);
 1277              		.loc 1 903 12 view .LVU390
 1278 06d0 0028     		cmp	r0, #0
 1279 06d2 5CD0     		beq	.L19
 904:Drivers/lvgl/src/extra/themes/default/lv_theme_default.c ****         lv_obj_add_style(obj, &styles->circle, 0);
 1280              		.loc 1 904 9 is_stmt 1 view .LVU391
 904:Drivers/lvgl/src/extra/themes/default/lv_theme_default.c ****         lv_obj_add_style(obj, &styles->circle, 0);
 1281              		.loc 1 904 38 is_stmt 0 view .LVU392
 1282 06d4 894D     		ldr	r5, .L69+4
 1283 06d6 2968     		ldr	r1, [r5]
 904:Drivers/lvgl/src/extra/themes/default/lv_theme_default.c ****         lv_obj_add_style(obj, &styles->circle, 0);
 1284              		.loc 1 904 9 view .LVU393
 1285 06d8 0022     		movs	r2, #0
 1286 06da 4831     		adds	r1, r1, #72
 1287 06dc 2046     		mov	r0, r4
 1288 06de FFF7FEFF 		bl	lv_obj_add_style
 1289              	.LVL145:
 905:Drivers/lvgl/src/extra/themes/default/lv_theme_default.c ****         lv_obj_add_style(obj, &styles->anim_fast, 0);
 1290              		.loc 1 905 9 is_stmt 1 view .LVU394
 905:Drivers/lvgl/src/extra/themes/default/lv_theme_default.c ****         lv_obj_add_style(obj, &styles->anim_fast, 0);
 1291              		.loc 1 905 38 is_stmt 0 view .LVU395
 1292 06e2 2968     		ldr	r1, [r5]
 905:Drivers/lvgl/src/extra/themes/default/lv_theme_default.c ****         lv_obj_add_style(obj, &styles->anim_fast, 0);
 1293              		.loc 1 905 9 view .LVU396
 1294 06e4 0022     		movs	r2, #0
 1295 06e6 B031     		adds	r1, r1, #176
 1296 06e8 2046     		mov	r0, r4
 1297 06ea FFF7FEFF 		bl	lv_obj_add_style
 1298              	.LVL146:
 906:Drivers/lvgl/src/extra/themes/default/lv_theme_default.c ****         lv_obj_add_style(obj, &styles->disabled, LV_STATE_DISABLED);
 1299              		.loc 1 906 9 is_stmt 1 view .LVU397
 906:Drivers/lvgl/src/extra/themes/default/lv_theme_default.c ****         lv_obj_add_style(obj, &styles->disabled, LV_STATE_DISABLED);
 1300              		.loc 1 906 38 is_stmt 0 view .LVU398
 1301 06ee 2968     		ldr	r1, [r5]
 906:Drivers/lvgl/src/extra/themes/default/lv_theme_default.c ****         lv_obj_add_style(obj, &styles->disabled, LV_STATE_DISABLED);
 1302              		.loc 1 906 9 view .LVU399
 1303 06f0 0022     		movs	r2, #0
ARM GAS  /var/folders/0z/tsy30v1j4xl4_7kw94k978ww0000gn/T//ccdBOSjy.s 			page 51


 1304 06f2 E831     		adds	r1, r1, #232
 1305 06f4 2046     		mov	r0, r4
 1306 06f6 FFF7FEFF 		bl	lv_obj_add_style
 1307              	.LVL147:
 907:Drivers/lvgl/src/extra/themes/default/lv_theme_default.c ****         lv_obj_add_style(obj, &styles->outline_primary, LV_STATE_FOCUS_KEY);
 1308              		.loc 1 907 9 is_stmt 1 view .LVU400
 907:Drivers/lvgl/src/extra/themes/default/lv_theme_default.c ****         lv_obj_add_style(obj, &styles->outline_primary, LV_STATE_FOCUS_KEY);
 1309              		.loc 1 907 38 is_stmt 0 view .LVU401
 1310 06fa 2968     		ldr	r1, [r5]
 907:Drivers/lvgl/src/extra/themes/default/lv_theme_default.c ****         lv_obj_add_style(obj, &styles->outline_primary, LV_STATE_FOCUS_KEY);
 1311              		.loc 1 907 9 view .LVU402
 1312 06fc 8022     		movs	r2, #128
 1313 06fe 6031     		adds	r1, r1, #96
 1314 0700 2046     		mov	r0, r4
 1315 0702 FFF7FEFF 		bl	lv_obj_add_style
 1316              	.LVL148:
 908:Drivers/lvgl/src/extra/themes/default/lv_theme_default.c ****         lv_obj_add_style(obj, &styles->bg_color_primary, LV_PART_INDICATOR | LV_STATE_CHECKED);
 1317              		.loc 1 908 9 is_stmt 1 view .LVU403
 908:Drivers/lvgl/src/extra/themes/default/lv_theme_default.c ****         lv_obj_add_style(obj, &styles->bg_color_primary, LV_PART_INDICATOR | LV_STATE_CHECKED);
 1318              		.loc 1 908 38 is_stmt 0 view .LVU404
 1319 0706 2968     		ldr	r1, [r5]
 908:Drivers/lvgl/src/extra/themes/default/lv_theme_default.c ****         lv_obj_add_style(obj, &styles->bg_color_primary, LV_PART_INDICATOR | LV_STATE_CHECKED);
 1320              		.loc 1 908 9 view .LVU405
 1321 0708 0422     		movs	r2, #4
 1322 070a A031     		adds	r1, r1, #160
 1323 070c 2046     		mov	r0, r4
 1324 070e FFF7FEFF 		bl	lv_obj_add_style
 1325              	.LVL149:
 909:Drivers/lvgl/src/extra/themes/default/lv_theme_default.c ****         lv_obj_add_style(obj, &styles->circle, LV_PART_INDICATOR);
 1326              		.loc 1 909 9 is_stmt 1 view .LVU406
 909:Drivers/lvgl/src/extra/themes/default/lv_theme_default.c ****         lv_obj_add_style(obj, &styles->circle, LV_PART_INDICATOR);
 1327              		.loc 1 909 38 is_stmt 0 view .LVU407
 1328 0712 2968     		ldr	r1, [r5]
 909:Drivers/lvgl/src/extra/themes/default/lv_theme_default.c ****         lv_obj_add_style(obj, &styles->circle, LV_PART_INDICATOR);
 1329              		.loc 1 909 9 view .LVU408
 1330 0714 7B4E     		ldr	r6, .L69+12
 1331 0716 3246     		mov	r2, r6
 1332 0718 2831     		adds	r1, r1, #40
 1333 071a 2046     		mov	r0, r4
 1334 071c FFF7FEFF 		bl	lv_obj_add_style
 1335              	.LVL150:
 910:Drivers/lvgl/src/extra/themes/default/lv_theme_default.c ****         lv_obj_add_style(obj, &styles->disabled, LV_PART_INDICATOR | LV_STATE_DISABLED);
 1336              		.loc 1 910 9 is_stmt 1 view .LVU409
 910:Drivers/lvgl/src/extra/themes/default/lv_theme_default.c ****         lv_obj_add_style(obj, &styles->disabled, LV_PART_INDICATOR | LV_STATE_DISABLED);
 1337              		.loc 1 910 38 is_stmt 0 view .LVU410
 1338 0720 2968     		ldr	r1, [r5]
 910:Drivers/lvgl/src/extra/themes/default/lv_theme_default.c ****         lv_obj_add_style(obj, &styles->disabled, LV_PART_INDICATOR | LV_STATE_DISABLED);
 1339              		.loc 1 910 9 view .LVU411
 1340 0722 4FF40032 		mov	r2, #131072
 1341 0726 B031     		adds	r1, r1, #176
 1342 0728 2046     		mov	r0, r4
 1343 072a FFF7FEFF 		bl	lv_obj_add_style
 1344              	.LVL151:
 911:Drivers/lvgl/src/extra/themes/default/lv_theme_default.c ****         lv_obj_add_style(obj, &styles->knob, LV_PART_KNOB);
 1345              		.loc 1 911 9 is_stmt 1 view .LVU412
 911:Drivers/lvgl/src/extra/themes/default/lv_theme_default.c ****         lv_obj_add_style(obj, &styles->knob, LV_PART_KNOB);
 1346              		.loc 1 911 38 is_stmt 0 view .LVU413
ARM GAS  /var/folders/0z/tsy30v1j4xl4_7kw94k978ww0000gn/T//ccdBOSjy.s 			page 52


 1347 072e 2968     		ldr	r1, [r5]
 911:Drivers/lvgl/src/extra/themes/default/lv_theme_default.c ****         lv_obj_add_style(obj, &styles->knob, LV_PART_KNOB);
 1348              		.loc 1 911 9 view .LVU414
 1349 0730 734A     		ldr	r2, .L69+8
 1350 0732 6031     		adds	r1, r1, #96
 1351 0734 2046     		mov	r0, r4
 1352 0736 FFF7FEFF 		bl	lv_obj_add_style
 1353              	.LVL152:
 912:Drivers/lvgl/src/extra/themes/default/lv_theme_default.c ****         lv_obj_add_style(obj, &styles->bg_color_white, LV_PART_KNOB);
 1354              		.loc 1 912 9 is_stmt 1 view .LVU415
 912:Drivers/lvgl/src/extra/themes/default/lv_theme_default.c ****         lv_obj_add_style(obj, &styles->bg_color_white, LV_PART_KNOB);
 1355              		.loc 1 912 38 is_stmt 0 view .LVU416
 1356 073a 2968     		ldr	r1, [r5]
 912:Drivers/lvgl/src/extra/themes/default/lv_theme_default.c ****         lv_obj_add_style(obj, &styles->bg_color_white, LV_PART_KNOB);
 1357              		.loc 1 912 9 view .LVU417
 1358 073c 4FF44032 		mov	r2, #196608
 1359 0740 F031     		adds	r1, r1, #240
 1360 0742 2046     		mov	r0, r4
 1361 0744 FFF7FEFF 		bl	lv_obj_add_style
 1362              	.LVL153:
 913:Drivers/lvgl/src/extra/themes/default/lv_theme_default.c ****         lv_obj_add_style(obj, &styles->switch_knob, LV_PART_KNOB);
 1363              		.loc 1 913 9 is_stmt 1 view .LVU418
 913:Drivers/lvgl/src/extra/themes/default/lv_theme_default.c ****         lv_obj_add_style(obj, &styles->switch_knob, LV_PART_KNOB);
 1364              		.loc 1 913 38 is_stmt 0 view .LVU419
 1365 0748 2968     		ldr	r1, [r5]
 913:Drivers/lvgl/src/extra/themes/default/lv_theme_default.c ****         lv_obj_add_style(obj, &styles->switch_knob, LV_PART_KNOB);
 1366              		.loc 1 913 9 view .LVU420
 1367 074a 4FF44032 		mov	r2, #196608
 1368 074e 5031     		adds	r1, r1, #80
 1369 0750 2046     		mov	r0, r4
 1370 0752 FFF7FEFF 		bl	lv_obj_add_style
 1371              	.LVL154:
 914:Drivers/lvgl/src/extra/themes/default/lv_theme_default.c ****         lv_obj_add_style(obj, &styles->disabled, LV_PART_KNOB | LV_STATE_DISABLED);
 1372              		.loc 1 914 9 is_stmt 1 view .LVU421
 914:Drivers/lvgl/src/extra/themes/default/lv_theme_default.c ****         lv_obj_add_style(obj, &styles->disabled, LV_PART_KNOB | LV_STATE_DISABLED);
 1373              		.loc 1 914 38 is_stmt 0 view .LVU422
 1374 0756 2968     		ldr	r1, [r5]
 914:Drivers/lvgl/src/extra/themes/default/lv_theme_default.c ****         lv_obj_add_style(obj, &styles->disabled, LV_PART_KNOB | LV_STATE_DISABLED);
 1375              		.loc 1 914 9 view .LVU423
 1376 0758 4FF44032 		mov	r2, #196608
 1377 075c 01F5A471 		add	r1, r1, #328
 1378 0760 2046     		mov	r0, r4
 1379 0762 FFF7FEFF 		bl	lv_obj_add_style
 1380              	.LVL155:
 915:Drivers/lvgl/src/extra/themes/default/lv_theme_default.c **** 
 1381              		.loc 1 915 9 is_stmt 1 view .LVU424
 915:Drivers/lvgl/src/extra/themes/default/lv_theme_default.c **** 
 1382              		.loc 1 915 38 is_stmt 0 view .LVU425
 1383 0766 2968     		ldr	r1, [r5]
 915:Drivers/lvgl/src/extra/themes/default/lv_theme_default.c **** 
 1384              		.loc 1 915 9 view .LVU426
 1385 0768 684A     		ldr	r2, .L69+20
 1386 076a 6031     		adds	r1, r1, #96
 1387 076c 2046     		mov	r0, r4
 1388 076e FFF7FEFF 		bl	lv_obj_add_style
 1389              	.LVL156:
 917:Drivers/lvgl/src/extra/themes/default/lv_theme_default.c ****         lv_obj_add_style(obj, &styles->transition_normal, LV_PART_INDICATOR);
ARM GAS  /var/folders/0z/tsy30v1j4xl4_7kw94k978ww0000gn/T//ccdBOSjy.s 			page 53


 1390              		.loc 1 917 9 is_stmt 1 view .LVU427
 917:Drivers/lvgl/src/extra/themes/default/lv_theme_default.c ****         lv_obj_add_style(obj, &styles->transition_normal, LV_PART_INDICATOR);
 1391              		.loc 1 917 38 is_stmt 0 view .LVU428
 1392 0772 2968     		ldr	r1, [r5]
 917:Drivers/lvgl/src/extra/themes/default/lv_theme_default.c ****         lv_obj_add_style(obj, &styles->transition_normal, LV_PART_INDICATOR);
 1393              		.loc 1 917 9 view .LVU429
 1394 0774 3246     		mov	r2, r6
 1395 0776 D831     		adds	r1, r1, #216
 1396 0778 2046     		mov	r0, r4
 1397 077a FFF7FEFF 		bl	lv_obj_add_style
 1398              	.LVL157:
 918:Drivers/lvgl/src/extra/themes/default/lv_theme_default.c ****     }
 1399              		.loc 1 918 9 is_stmt 1 view .LVU430
 918:Drivers/lvgl/src/extra/themes/default/lv_theme_default.c ****     }
 1400              		.loc 1 918 38 is_stmt 0 view .LVU431
 1401 077e 2968     		ldr	r1, [r5]
 918:Drivers/lvgl/src/extra/themes/default/lv_theme_default.c ****     }
 1402              		.loc 1 918 9 view .LVU432
 1403 0780 4FF40032 		mov	r2, #131072
 1404 0784 D831     		adds	r1, r1, #216
 1405 0786 2046     		mov	r0, r4
 1406 0788 FFF7FEFF 		bl	lv_obj_add_style
 1407              	.LVL158:
 1408 078c 4DE4     		b	.L1
 1409              	.L19:
 923:Drivers/lvgl/src/extra/themes/default/lv_theme_default.c ****         lv_obj_add_style(obj, &styles->card, 0);
 1410              		.loc 1 923 10 is_stmt 1 view .LVU433
 923:Drivers/lvgl/src/extra/themes/default/lv_theme_default.c ****         lv_obj_add_style(obj, &styles->card, 0);
 1411              		.loc 1 923 13 is_stmt 0 view .LVU434
 1412 078e 6049     		ldr	r1, .L69+24
 1413 0790 2046     		mov	r0, r4
 1414 0792 FFF7FEFF 		bl	lv_obj_check_type
 1415              	.LVL159:
 923:Drivers/lvgl/src/extra/themes/default/lv_theme_default.c ****         lv_obj_add_style(obj, &styles->card, 0);
 1416              		.loc 1 923 12 view .LVU435
 1417 0796 0028     		cmp	r0, #0
 1418 0798 41D0     		beq	.L20
 924:Drivers/lvgl/src/extra/themes/default/lv_theme_default.c ****         lv_obj_add_style(obj, &styles->pad_small, 0);
 1419              		.loc 1 924 9 is_stmt 1 view .LVU436
 924:Drivers/lvgl/src/extra/themes/default/lv_theme_default.c ****         lv_obj_add_style(obj, &styles->pad_small, 0);
 1420              		.loc 1 924 38 is_stmt 0 view .LVU437
 1421 079a 584D     		ldr	r5, .L69+4
 1422 079c 2968     		ldr	r1, [r5]
 924:Drivers/lvgl/src/extra/themes/default/lv_theme_default.c ****         lv_obj_add_style(obj, &styles->pad_small, 0);
 1423              		.loc 1 924 9 view .LVU438
 1424 079e 0022     		movs	r2, #0
 1425 07a0 1831     		adds	r1, r1, #24
 1426 07a2 2046     		mov	r0, r4
 1427 07a4 FFF7FEFF 		bl	lv_obj_add_style
 1428              	.LVL160:
 925:Drivers/lvgl/src/extra/themes/default/lv_theme_default.c ****         lv_obj_add_style(obj, &styles->chart_bg, 0);
 1429              		.loc 1 925 9 is_stmt 1 view .LVU439
 925:Drivers/lvgl/src/extra/themes/default/lv_theme_default.c ****         lv_obj_add_style(obj, &styles->chart_bg, 0);
 1430              		.loc 1 925 38 is_stmt 0 view .LVU440
 1431 07a8 2968     		ldr	r1, [r5]
 925:Drivers/lvgl/src/extra/themes/default/lv_theme_default.c ****         lv_obj_add_style(obj, &styles->chart_bg, 0);
 1432              		.loc 1 925 9 view .LVU441
ARM GAS  /var/folders/0z/tsy30v1j4xl4_7kw94k978ww0000gn/T//ccdBOSjy.s 			page 54


 1433 07aa 0022     		movs	r2, #0
 1434 07ac 7831     		adds	r1, r1, #120
 1435 07ae 2046     		mov	r0, r4
 1436 07b0 FFF7FEFF 		bl	lv_obj_add_style
 1437              	.LVL161:
 926:Drivers/lvgl/src/extra/themes/default/lv_theme_default.c ****         lv_obj_add_style(obj, &styles->scrollbar, LV_PART_SCROLLBAR);
 1438              		.loc 1 926 9 is_stmt 1 view .LVU442
 926:Drivers/lvgl/src/extra/themes/default/lv_theme_default.c ****         lv_obj_add_style(obj, &styles->scrollbar, LV_PART_SCROLLBAR);
 1439              		.loc 1 926 38 is_stmt 0 view .LVU443
 1440 07b4 2968     		ldr	r1, [r5]
 926:Drivers/lvgl/src/extra/themes/default/lv_theme_default.c ****         lv_obj_add_style(obj, &styles->scrollbar, LV_PART_SCROLLBAR);
 1441              		.loc 1 926 9 view .LVU444
 1442 07b6 0022     		movs	r2, #0
 1443 07b8 01F59471 		add	r1, r1, #296
 1444 07bc 2046     		mov	r0, r4
 1445 07be FFF7FEFF 		bl	lv_obj_add_style
 1446              	.LVL162:
 927:Drivers/lvgl/src/extra/themes/default/lv_theme_default.c ****         lv_obj_add_style(obj, &styles->scrollbar_scrolled, LV_PART_SCROLLBAR | LV_STATE_SCROLLED);
 1447              		.loc 1 927 9 is_stmt 1 view .LVU445
 927:Drivers/lvgl/src/extra/themes/default/lv_theme_default.c ****         lv_obj_add_style(obj, &styles->scrollbar_scrolled, LV_PART_SCROLLBAR | LV_STATE_SCROLLED);
 1448              		.loc 1 927 38 is_stmt 0 view .LVU446
 1449 07c2 2968     		ldr	r1, [r5]
 927:Drivers/lvgl/src/extra/themes/default/lv_theme_default.c ****         lv_obj_add_style(obj, &styles->scrollbar_scrolled, LV_PART_SCROLLBAR | LV_STATE_SCROLLED);
 1450              		.loc 1 927 9 view .LVU447
 1451 07c4 4FF48032 		mov	r2, #65536
 1452 07c8 0831     		adds	r1, r1, #8
 1453 07ca 2046     		mov	r0, r4
 1454 07cc FFF7FEFF 		bl	lv_obj_add_style
 1455              	.LVL163:
 928:Drivers/lvgl/src/extra/themes/default/lv_theme_default.c ****         lv_obj_add_style(obj, &styles->chart_series, LV_PART_ITEMS);
 1456              		.loc 1 928 9 is_stmt 1 view .LVU448
 928:Drivers/lvgl/src/extra/themes/default/lv_theme_default.c ****         lv_obj_add_style(obj, &styles->chart_series, LV_PART_ITEMS);
 1457              		.loc 1 928 38 is_stmt 0 view .LVU449
 1458 07d0 2968     		ldr	r1, [r5]
 928:Drivers/lvgl/src/extra/themes/default/lv_theme_default.c ****         lv_obj_add_style(obj, &styles->chart_series, LV_PART_ITEMS);
 1459              		.loc 1 928 9 view .LVU450
 1460 07d2 504A     		ldr	r2, .L69+28
 1461 07d4 1031     		adds	r1, r1, #16
 1462 07d6 2046     		mov	r0, r4
 1463 07d8 FFF7FEFF 		bl	lv_obj_add_style
 1464              	.LVL164:
 929:Drivers/lvgl/src/extra/themes/default/lv_theme_default.c ****         lv_obj_add_style(obj, &styles->chart_indic, LV_PART_INDICATOR);
 1465              		.loc 1 929 9 is_stmt 1 view .LVU451
 929:Drivers/lvgl/src/extra/themes/default/lv_theme_default.c ****         lv_obj_add_style(obj, &styles->chart_indic, LV_PART_INDICATOR);
 1466              		.loc 1 929 38 is_stmt 0 view .LVU452
 1467 07dc 2968     		ldr	r1, [r5]
 929:Drivers/lvgl/src/extra/themes/default/lv_theme_default.c ****         lv_obj_add_style(obj, &styles->chart_indic, LV_PART_INDICATOR);
 1468              		.loc 1 929 9 view .LVU453
 1469 07de 4FF4A022 		mov	r2, #327680
 1470 07e2 01F58871 		add	r1, r1, #272
 1471 07e6 2046     		mov	r0, r4
 1472 07e8 FFF7FEFF 		bl	lv_obj_add_style
 1473              	.LVL165:
 930:Drivers/lvgl/src/extra/themes/default/lv_theme_default.c ****         lv_obj_add_style(obj, &styles->chart_ticks, LV_PART_TICKS);
 1474              		.loc 1 930 9 is_stmt 1 view .LVU454
 930:Drivers/lvgl/src/extra/themes/default/lv_theme_default.c ****         lv_obj_add_style(obj, &styles->chart_ticks, LV_PART_TICKS);
 1475              		.loc 1 930 38 is_stmt 0 view .LVU455
ARM GAS  /var/folders/0z/tsy30v1j4xl4_7kw94k978ww0000gn/T//ccdBOSjy.s 			page 55


 1476 07ec 2968     		ldr	r1, [r5]
 930:Drivers/lvgl/src/extra/themes/default/lv_theme_default.c ****         lv_obj_add_style(obj, &styles->chart_ticks, LV_PART_TICKS);
 1477              		.loc 1 930 9 view .LVU456
 1478 07ee 4FF40032 		mov	r2, #131072
 1479 07f2 01F58C71 		add	r1, r1, #280
 1480 07f6 2046     		mov	r0, r4
 1481 07f8 FFF7FEFF 		bl	lv_obj_add_style
 1482              	.LVL166:
 931:Drivers/lvgl/src/extra/themes/default/lv_theme_default.c ****         lv_obj_add_style(obj, &styles->chart_series, LV_PART_CURSOR);
 1483              		.loc 1 931 9 is_stmt 1 view .LVU457
 931:Drivers/lvgl/src/extra/themes/default/lv_theme_default.c ****         lv_obj_add_style(obj, &styles->chart_series, LV_PART_CURSOR);
 1484              		.loc 1 931 38 is_stmt 0 view .LVU458
 1485 07fc 2968     		ldr	r1, [r5]
 931:Drivers/lvgl/src/extra/themes/default/lv_theme_default.c ****         lv_obj_add_style(obj, &styles->chart_series, LV_PART_CURSOR);
 1486              		.loc 1 931 9 view .LVU459
 1487 07fe 4FF4C022 		mov	r2, #393216
 1488 0802 01F59071 		add	r1, r1, #288
 1489 0806 2046     		mov	r0, r4
 1490 0808 FFF7FEFF 		bl	lv_obj_add_style
 1491              	.LVL167:
 932:Drivers/lvgl/src/extra/themes/default/lv_theme_default.c ****     }
 1492              		.loc 1 932 9 is_stmt 1 view .LVU460
 932:Drivers/lvgl/src/extra/themes/default/lv_theme_default.c ****     }
 1493              		.loc 1 932 38 is_stmt 0 view .LVU461
 1494 080c 2968     		ldr	r1, [r5]
 932:Drivers/lvgl/src/extra/themes/default/lv_theme_default.c ****     }
 1495              		.loc 1 932 9 view .LVU462
 1496 080e 4FF4E022 		mov	r2, #458752
 1497 0812 01F58871 		add	r1, r1, #272
 1498 0816 2046     		mov	r0, r4
 1499 0818 FFF7FEFF 		bl	lv_obj_add_style
 1500              	.LVL168:
 1501 081c 05E4     		b	.L1
 1502              	.L20:
 937:Drivers/lvgl/src/extra/themes/default/lv_theme_default.c ****         lv_obj_add_style(obj, &styles->card, 0);
 1503              		.loc 1 937 10 is_stmt 1 view .LVU463
 937:Drivers/lvgl/src/extra/themes/default/lv_theme_default.c ****         lv_obj_add_style(obj, &styles->card, 0);
 1504              		.loc 1 937 13 is_stmt 0 view .LVU464
 1505 081e 3E49     		ldr	r1, .L69+32
