ARM GAS  /var/folders/0z/tsy30v1j4xl4_7kw94k978ww0000gn/T//ccByTTYT.s 			page 1


   1              		.cpu cortex-m4
   2              		.arch armv7e-m
   3              		.fpu fpv4-sp-d16
   4              		.eabi_attribute 27, 1
   5              		.eabi_attribute 28, 1
   6              		.eabi_attribute 20, 1
   7              		.eabi_attribute 21, 1
   8              		.eabi_attribute 23, 3
   9              		.eabi_attribute 24, 1
  10              		.eabi_attribute 25, 1
  11              		.eabi_attribute 26, 1
  12              		.eabi_attribute 30, 1
  13              		.eabi_attribute 34, 1
  14              		.eabi_attribute 18, 4
  15              		.file	"lv_tlsf.c"
  16              		.text
  17              	.Ltext0:
  18              		.cfi_sections	.debug_frame
  19              		.section	.text.block_size,"ax",%progbits
  20              		.align	1
  21              		.syntax unified
  22              		.thumb
  23              		.thumb_func
  25              	block_size:
  26              	.LVL0:
  27              	.LFB3:
  28              		.file 1 "Drivers/lvgl/src/misc/lv_tlsf.c"
   1:Drivers/lvgl/src/misc/lv_tlsf.c **** #include "../lv_conf_internal.h"
   2:Drivers/lvgl/src/misc/lv_tlsf.c **** #if LV_MEM_CUSTOM == 0
   3:Drivers/lvgl/src/misc/lv_tlsf.c **** 
   4:Drivers/lvgl/src/misc/lv_tlsf.c **** #include <limits.h>
   5:Drivers/lvgl/src/misc/lv_tlsf.c **** #include "lv_tlsf.h"
   6:Drivers/lvgl/src/misc/lv_tlsf.c **** #include "lv_mem.h"
   7:Drivers/lvgl/src/misc/lv_tlsf.c **** #include "lv_log.h"
   8:Drivers/lvgl/src/misc/lv_tlsf.c **** #include "lv_assert.h"
   9:Drivers/lvgl/src/misc/lv_tlsf.c **** 
  10:Drivers/lvgl/src/misc/lv_tlsf.c **** #undef  printf
  11:Drivers/lvgl/src/misc/lv_tlsf.c **** #define printf LV_LOG_ERROR
  12:Drivers/lvgl/src/misc/lv_tlsf.c **** 
  13:Drivers/lvgl/src/misc/lv_tlsf.c **** #define TLSF_MAX_POOL_SIZE LV_MEM_SIZE
  14:Drivers/lvgl/src/misc/lv_tlsf.c **** 
  15:Drivers/lvgl/src/misc/lv_tlsf.c **** #if !defined(_DEBUG)
  16:Drivers/lvgl/src/misc/lv_tlsf.c ****     #define _DEBUG 0
  17:Drivers/lvgl/src/misc/lv_tlsf.c **** #endif
  18:Drivers/lvgl/src/misc/lv_tlsf.c **** 
  19:Drivers/lvgl/src/misc/lv_tlsf.c **** #if defined(__cplusplus)
  20:Drivers/lvgl/src/misc/lv_tlsf.c ****     #define tlsf_decl inline
  21:Drivers/lvgl/src/misc/lv_tlsf.c **** #else
  22:Drivers/lvgl/src/misc/lv_tlsf.c ****     #define tlsf_decl static
  23:Drivers/lvgl/src/misc/lv_tlsf.c **** #endif
  24:Drivers/lvgl/src/misc/lv_tlsf.c **** 
  25:Drivers/lvgl/src/misc/lv_tlsf.c **** /*
  26:Drivers/lvgl/src/misc/lv_tlsf.c **** ** Architecture-specific bit manipulation routines.
  27:Drivers/lvgl/src/misc/lv_tlsf.c **** **
  28:Drivers/lvgl/src/misc/lv_tlsf.c **** ** TLSF achieves O(1) cost for malloc and free operations by limiting
  29:Drivers/lvgl/src/misc/lv_tlsf.c **** ** the search for a free block to a free list of guaranteed size
  30:Drivers/lvgl/src/misc/lv_tlsf.c **** ** adequate to fulfill the request, combined with efficient free list
ARM GAS  /var/folders/0z/tsy30v1j4xl4_7kw94k978ww0000gn/T//ccByTTYT.s 			page 2


  31:Drivers/lvgl/src/misc/lv_tlsf.c **** ** queries using bitmasks and architecture-specific bit-manipulation
  32:Drivers/lvgl/src/misc/lv_tlsf.c **** ** routines.
  33:Drivers/lvgl/src/misc/lv_tlsf.c **** **
  34:Drivers/lvgl/src/misc/lv_tlsf.c **** ** Most modern processors provide instructions to count leading zeroes
  35:Drivers/lvgl/src/misc/lv_tlsf.c **** ** in a word, find the lowest and highest set bit, etc. These
  36:Drivers/lvgl/src/misc/lv_tlsf.c **** ** specific implementations will be used when available, falling back
  37:Drivers/lvgl/src/misc/lv_tlsf.c **** ** to a reasonably efficient generic implementation.
  38:Drivers/lvgl/src/misc/lv_tlsf.c **** **
  39:Drivers/lvgl/src/misc/lv_tlsf.c **** ** NOTE: TLSF spec relies on ffs/fls returning value 0..31.
  40:Drivers/lvgl/src/misc/lv_tlsf.c **** ** ffs/fls return 1-32 by default, returning 0 for error.
  41:Drivers/lvgl/src/misc/lv_tlsf.c **** */
  42:Drivers/lvgl/src/misc/lv_tlsf.c **** 
  43:Drivers/lvgl/src/misc/lv_tlsf.c **** /*
  44:Drivers/lvgl/src/misc/lv_tlsf.c **** ** Detect whether or not we are building for a 32- or 64-bit (LP/LLP)
  45:Drivers/lvgl/src/misc/lv_tlsf.c **** ** architecture. There is no reliable portable method at compile-time.
  46:Drivers/lvgl/src/misc/lv_tlsf.c **** */
  47:Drivers/lvgl/src/misc/lv_tlsf.c **** #if defined (__alpha__) || defined (__ia64__) || defined (__x86_64__) \
  48:Drivers/lvgl/src/misc/lv_tlsf.c ****     || defined (_WIN64) || defined (__LP64__) || defined (__LLP64__)
  49:Drivers/lvgl/src/misc/lv_tlsf.c ****     #define TLSF_64BIT
  50:Drivers/lvgl/src/misc/lv_tlsf.c **** #endif
  51:Drivers/lvgl/src/misc/lv_tlsf.c **** 
  52:Drivers/lvgl/src/misc/lv_tlsf.c **** /*
  53:Drivers/lvgl/src/misc/lv_tlsf.c **** ** Returns one plus the index of the most significant 1-bit of n,
  54:Drivers/lvgl/src/misc/lv_tlsf.c **** ** or if n is zero, returns zero.
  55:Drivers/lvgl/src/misc/lv_tlsf.c **** */
  56:Drivers/lvgl/src/misc/lv_tlsf.c **** #ifdef TLSF_64BIT
  57:Drivers/lvgl/src/misc/lv_tlsf.c ****     #define TLSF_FLS(n) ((n) & 0xffffffff00000000ull ? 32 + TLSF_FLS32((size_t)(n) >> 32) : TLSF_FL
  58:Drivers/lvgl/src/misc/lv_tlsf.c **** #else
  59:Drivers/lvgl/src/misc/lv_tlsf.c ****     #define TLSF_FLS(n) TLSF_FLS32(n)
  60:Drivers/lvgl/src/misc/lv_tlsf.c **** #endif
  61:Drivers/lvgl/src/misc/lv_tlsf.c **** 
  62:Drivers/lvgl/src/misc/lv_tlsf.c **** #define TLSF_FLS32(n) ((n) & 0xffff0000 ? 16 + TLSF_FLS16((n) >> 16) : TLSF_FLS16(n))
  63:Drivers/lvgl/src/misc/lv_tlsf.c **** #define TLSF_FLS16(n) ((n) & 0xff00     ?  8 + TLSF_FLS8 ((n) >>  8) : TLSF_FLS8 (n))
  64:Drivers/lvgl/src/misc/lv_tlsf.c **** #define TLSF_FLS8(n)  ((n) & 0xf0       ?  4 + TLSF_FLS4 ((n) >>  4) : TLSF_FLS4 (n))
  65:Drivers/lvgl/src/misc/lv_tlsf.c **** #define TLSF_FLS4(n)  ((n) & 0xc        ?  2 + TLSF_FLS2 ((n) >>  2) : TLSF_FLS2 (n))
  66:Drivers/lvgl/src/misc/lv_tlsf.c **** #define TLSF_FLS2(n)  ((n) & 0x2        ?  1 + TLSF_FLS1 ((n) >>  1) : TLSF_FLS1 (n))
  67:Drivers/lvgl/src/misc/lv_tlsf.c **** #define TLSF_FLS1(n)  ((n) & 0x1        ?  1 : 0)
  68:Drivers/lvgl/src/misc/lv_tlsf.c **** 
  69:Drivers/lvgl/src/misc/lv_tlsf.c **** /*
  70:Drivers/lvgl/src/misc/lv_tlsf.c **** ** Returns round up value of log2(n).
  71:Drivers/lvgl/src/misc/lv_tlsf.c **** ** Note: it is used at compile time.
  72:Drivers/lvgl/src/misc/lv_tlsf.c **** */
  73:Drivers/lvgl/src/misc/lv_tlsf.c **** #define TLSF_LOG2_CEIL(n) ((n) & (n - 1) ? TLSF_FLS(n) : TLSF_FLS(n) - 1)
  74:Drivers/lvgl/src/misc/lv_tlsf.c **** 
  75:Drivers/lvgl/src/misc/lv_tlsf.c **** /*
  76:Drivers/lvgl/src/misc/lv_tlsf.c **** ** gcc 3.4 and above have builtin support, specialized for architecture.
  77:Drivers/lvgl/src/misc/lv_tlsf.c **** ** Some compilers masquerade as gcc; patchlevel test filters them out.
  78:Drivers/lvgl/src/misc/lv_tlsf.c **** */
  79:Drivers/lvgl/src/misc/lv_tlsf.c **** #if defined (__GNUC__) && (__GNUC__ > 3 || (__GNUC__ == 3 && __GNUC_MINOR__ >= 4)) \
  80:Drivers/lvgl/src/misc/lv_tlsf.c ****     && defined (__GNUC_PATCHLEVEL__)
  81:Drivers/lvgl/src/misc/lv_tlsf.c **** 
  82:Drivers/lvgl/src/misc/lv_tlsf.c **** #if defined (__SNC__)
  83:Drivers/lvgl/src/misc/lv_tlsf.c **** /* SNC for Playstation 3. */
  84:Drivers/lvgl/src/misc/lv_tlsf.c **** 
  85:Drivers/lvgl/src/misc/lv_tlsf.c **** tlsf_decl int tlsf_ffs(unsigned int word)
  86:Drivers/lvgl/src/misc/lv_tlsf.c **** {
  87:Drivers/lvgl/src/misc/lv_tlsf.c ****     const unsigned int reverse = word & (~word + 1);
ARM GAS  /var/folders/0z/tsy30v1j4xl4_7kw94k978ww0000gn/T//ccByTTYT.s 			page 3


  88:Drivers/lvgl/src/misc/lv_tlsf.c ****     const int bit = 32 - __builtin_clz(reverse);
  89:Drivers/lvgl/src/misc/lv_tlsf.c ****     return bit - 1;
  90:Drivers/lvgl/src/misc/lv_tlsf.c **** }
  91:Drivers/lvgl/src/misc/lv_tlsf.c **** 
  92:Drivers/lvgl/src/misc/lv_tlsf.c **** #else
  93:Drivers/lvgl/src/misc/lv_tlsf.c **** 
  94:Drivers/lvgl/src/misc/lv_tlsf.c **** tlsf_decl int tlsf_ffs(unsigned int word)
  95:Drivers/lvgl/src/misc/lv_tlsf.c **** {
  96:Drivers/lvgl/src/misc/lv_tlsf.c ****     return __builtin_ffs(word) - 1;
  97:Drivers/lvgl/src/misc/lv_tlsf.c **** }
  98:Drivers/lvgl/src/misc/lv_tlsf.c **** 
  99:Drivers/lvgl/src/misc/lv_tlsf.c **** #endif
 100:Drivers/lvgl/src/misc/lv_tlsf.c **** 
 101:Drivers/lvgl/src/misc/lv_tlsf.c **** tlsf_decl int tlsf_fls(unsigned int word)
 102:Drivers/lvgl/src/misc/lv_tlsf.c **** {
 103:Drivers/lvgl/src/misc/lv_tlsf.c ****     const int bit = word ? 32 - __builtin_clz(word) : 0;
 104:Drivers/lvgl/src/misc/lv_tlsf.c ****     return bit - 1;
 105:Drivers/lvgl/src/misc/lv_tlsf.c **** }
 106:Drivers/lvgl/src/misc/lv_tlsf.c **** 
 107:Drivers/lvgl/src/misc/lv_tlsf.c **** #elif defined (_MSC_VER) && (_MSC_VER >= 1400) && (defined (_M_IX86) || defined (_M_X64))
 108:Drivers/lvgl/src/misc/lv_tlsf.c **** /* Microsoft Visual C++ support on x86/X64 architectures. */
 109:Drivers/lvgl/src/misc/lv_tlsf.c **** 
 110:Drivers/lvgl/src/misc/lv_tlsf.c **** #include <intrin.h>
 111:Drivers/lvgl/src/misc/lv_tlsf.c **** 
 112:Drivers/lvgl/src/misc/lv_tlsf.c **** #pragma intrinsic(_BitScanReverse)
 113:Drivers/lvgl/src/misc/lv_tlsf.c **** #pragma intrinsic(_BitScanForward)
 114:Drivers/lvgl/src/misc/lv_tlsf.c **** 
 115:Drivers/lvgl/src/misc/lv_tlsf.c **** tlsf_decl int tlsf_fls(unsigned int word)
 116:Drivers/lvgl/src/misc/lv_tlsf.c **** {
 117:Drivers/lvgl/src/misc/lv_tlsf.c ****     unsigned long index;
 118:Drivers/lvgl/src/misc/lv_tlsf.c ****     return _BitScanReverse(&index, word) ? index : -1;
 119:Drivers/lvgl/src/misc/lv_tlsf.c **** }
 120:Drivers/lvgl/src/misc/lv_tlsf.c **** 
 121:Drivers/lvgl/src/misc/lv_tlsf.c **** tlsf_decl int tlsf_ffs(unsigned int word)
 122:Drivers/lvgl/src/misc/lv_tlsf.c **** {
 123:Drivers/lvgl/src/misc/lv_tlsf.c ****     unsigned long index;
 124:Drivers/lvgl/src/misc/lv_tlsf.c ****     return _BitScanForward(&index, word) ? index : -1;
 125:Drivers/lvgl/src/misc/lv_tlsf.c **** }
 126:Drivers/lvgl/src/misc/lv_tlsf.c **** 
 127:Drivers/lvgl/src/misc/lv_tlsf.c **** #elif defined (_MSC_VER) && defined (_M_PPC)
 128:Drivers/lvgl/src/misc/lv_tlsf.c **** /* Microsoft Visual C++ support on PowerPC architectures. */
 129:Drivers/lvgl/src/misc/lv_tlsf.c **** 
 130:Drivers/lvgl/src/misc/lv_tlsf.c **** #include <ppcintrinsics.h>
 131:Drivers/lvgl/src/misc/lv_tlsf.c **** 
 132:Drivers/lvgl/src/misc/lv_tlsf.c **** tlsf_decl int tlsf_fls(unsigned int word)
 133:Drivers/lvgl/src/misc/lv_tlsf.c **** {
 134:Drivers/lvgl/src/misc/lv_tlsf.c ****     const int bit = 32 - _CountLeadingZeros(word);
 135:Drivers/lvgl/src/misc/lv_tlsf.c ****     return bit - 1;
 136:Drivers/lvgl/src/misc/lv_tlsf.c **** }
 137:Drivers/lvgl/src/misc/lv_tlsf.c **** 
 138:Drivers/lvgl/src/misc/lv_tlsf.c **** tlsf_decl int tlsf_ffs(unsigned int word)
 139:Drivers/lvgl/src/misc/lv_tlsf.c **** {
 140:Drivers/lvgl/src/misc/lv_tlsf.c ****     const unsigned int reverse = word & (~word + 1);
 141:Drivers/lvgl/src/misc/lv_tlsf.c ****     const int bit = 32 - _CountLeadingZeros(reverse);
 142:Drivers/lvgl/src/misc/lv_tlsf.c ****     return bit - 1;
 143:Drivers/lvgl/src/misc/lv_tlsf.c **** }
 144:Drivers/lvgl/src/misc/lv_tlsf.c **** 
ARM GAS  /var/folders/0z/tsy30v1j4xl4_7kw94k978ww0000gn/T//ccByTTYT.s 			page 4


 145:Drivers/lvgl/src/misc/lv_tlsf.c **** #elif defined (__ARMCC_VERSION)
 146:Drivers/lvgl/src/misc/lv_tlsf.c **** /* RealView Compilation Tools for ARM */
 147:Drivers/lvgl/src/misc/lv_tlsf.c **** 
 148:Drivers/lvgl/src/misc/lv_tlsf.c **** tlsf_decl int tlsf_ffs(unsigned int word)
 149:Drivers/lvgl/src/misc/lv_tlsf.c **** {
 150:Drivers/lvgl/src/misc/lv_tlsf.c ****     const unsigned int reverse = word & (~word + 1);
 151:Drivers/lvgl/src/misc/lv_tlsf.c ****     const int bit = 32 - __clz(reverse);
 152:Drivers/lvgl/src/misc/lv_tlsf.c ****     return bit - 1;
 153:Drivers/lvgl/src/misc/lv_tlsf.c **** }
 154:Drivers/lvgl/src/misc/lv_tlsf.c **** 
 155:Drivers/lvgl/src/misc/lv_tlsf.c **** tlsf_decl int tlsf_fls(unsigned int word)
 156:Drivers/lvgl/src/misc/lv_tlsf.c **** {
 157:Drivers/lvgl/src/misc/lv_tlsf.c ****     const int bit = word ? 32 - __clz(word) : 0;
 158:Drivers/lvgl/src/misc/lv_tlsf.c ****     return bit - 1;
 159:Drivers/lvgl/src/misc/lv_tlsf.c **** }
 160:Drivers/lvgl/src/misc/lv_tlsf.c **** 
 161:Drivers/lvgl/src/misc/lv_tlsf.c **** #elif defined (__ghs__)
 162:Drivers/lvgl/src/misc/lv_tlsf.c **** /* Green Hills support for PowerPC */
 163:Drivers/lvgl/src/misc/lv_tlsf.c **** 
 164:Drivers/lvgl/src/misc/lv_tlsf.c **** #include <ppc_ghs.h>
 165:Drivers/lvgl/src/misc/lv_tlsf.c **** 
 166:Drivers/lvgl/src/misc/lv_tlsf.c **** tlsf_decl int tlsf_ffs(unsigned int word)
 167:Drivers/lvgl/src/misc/lv_tlsf.c **** {
 168:Drivers/lvgl/src/misc/lv_tlsf.c ****     const unsigned int reverse = word & (~word + 1);
 169:Drivers/lvgl/src/misc/lv_tlsf.c ****     const int bit = 32 - __CLZ32(reverse);
 170:Drivers/lvgl/src/misc/lv_tlsf.c ****     return bit - 1;
 171:Drivers/lvgl/src/misc/lv_tlsf.c **** }
 172:Drivers/lvgl/src/misc/lv_tlsf.c **** 
 173:Drivers/lvgl/src/misc/lv_tlsf.c **** tlsf_decl int tlsf_fls(unsigned int word)
 174:Drivers/lvgl/src/misc/lv_tlsf.c **** {
 175:Drivers/lvgl/src/misc/lv_tlsf.c ****     const int bit = word ? 32 - __CLZ32(word) : 0;
 176:Drivers/lvgl/src/misc/lv_tlsf.c ****     return bit - 1;
 177:Drivers/lvgl/src/misc/lv_tlsf.c **** }
 178:Drivers/lvgl/src/misc/lv_tlsf.c **** 
 179:Drivers/lvgl/src/misc/lv_tlsf.c **** #else
 180:Drivers/lvgl/src/misc/lv_tlsf.c **** /* Fall back to generic implementation. */
 181:Drivers/lvgl/src/misc/lv_tlsf.c **** 
 182:Drivers/lvgl/src/misc/lv_tlsf.c **** /* Implement ffs in terms of fls. */
 183:Drivers/lvgl/src/misc/lv_tlsf.c **** tlsf_decl int tlsf_ffs(unsigned int word)
 184:Drivers/lvgl/src/misc/lv_tlsf.c **** {
 185:Drivers/lvgl/src/misc/lv_tlsf.c ****     const unsigned int reverse = word & (~word + 1);
 186:Drivers/lvgl/src/misc/lv_tlsf.c ****     return TLSF_FLS32(reverse) - 1;
 187:Drivers/lvgl/src/misc/lv_tlsf.c **** }
 188:Drivers/lvgl/src/misc/lv_tlsf.c **** 
 189:Drivers/lvgl/src/misc/lv_tlsf.c **** tlsf_decl int tlsf_fls(unsigned int word)
 190:Drivers/lvgl/src/misc/lv_tlsf.c **** {
 191:Drivers/lvgl/src/misc/lv_tlsf.c ****     return TLSF_FLS32(word) - 1;
 192:Drivers/lvgl/src/misc/lv_tlsf.c **** }
 193:Drivers/lvgl/src/misc/lv_tlsf.c **** 
 194:Drivers/lvgl/src/misc/lv_tlsf.c **** #endif
 195:Drivers/lvgl/src/misc/lv_tlsf.c **** 
 196:Drivers/lvgl/src/misc/lv_tlsf.c **** /* Possibly 64-bit version of tlsf_fls. */
 197:Drivers/lvgl/src/misc/lv_tlsf.c **** #if defined (TLSF_64BIT)
 198:Drivers/lvgl/src/misc/lv_tlsf.c **** tlsf_decl int tlsf_fls_sizet(size_t size)
 199:Drivers/lvgl/src/misc/lv_tlsf.c **** {
 200:Drivers/lvgl/src/misc/lv_tlsf.c ****     int high = (int)(size >> 32);
 201:Drivers/lvgl/src/misc/lv_tlsf.c ****     int bits = 0;
ARM GAS  /var/folders/0z/tsy30v1j4xl4_7kw94k978ww0000gn/T//ccByTTYT.s 			page 5


 202:Drivers/lvgl/src/misc/lv_tlsf.c ****     if(high) {
 203:Drivers/lvgl/src/misc/lv_tlsf.c ****         bits = 32 + tlsf_fls(high);
 204:Drivers/lvgl/src/misc/lv_tlsf.c ****     }
 205:Drivers/lvgl/src/misc/lv_tlsf.c ****     else {
 206:Drivers/lvgl/src/misc/lv_tlsf.c ****         bits = tlsf_fls((int)size & 0xffffffff);
 207:Drivers/lvgl/src/misc/lv_tlsf.c **** 
 208:Drivers/lvgl/src/misc/lv_tlsf.c ****     }
 209:Drivers/lvgl/src/misc/lv_tlsf.c ****     return bits;
 210:Drivers/lvgl/src/misc/lv_tlsf.c **** }
 211:Drivers/lvgl/src/misc/lv_tlsf.c **** #else
 212:Drivers/lvgl/src/misc/lv_tlsf.c **** #define tlsf_fls_sizet tlsf_fls
 213:Drivers/lvgl/src/misc/lv_tlsf.c **** #endif
 214:Drivers/lvgl/src/misc/lv_tlsf.c **** 
 215:Drivers/lvgl/src/misc/lv_tlsf.c **** #undef tlsf_decl
 216:Drivers/lvgl/src/misc/lv_tlsf.c **** 
 217:Drivers/lvgl/src/misc/lv_tlsf.c **** /*
 218:Drivers/lvgl/src/misc/lv_tlsf.c **** ** Constants.
 219:Drivers/lvgl/src/misc/lv_tlsf.c **** */
 220:Drivers/lvgl/src/misc/lv_tlsf.c **** 
 221:Drivers/lvgl/src/misc/lv_tlsf.c **** /* Public constants: may be modified. */
 222:Drivers/lvgl/src/misc/lv_tlsf.c **** enum tlsf_public {
 223:Drivers/lvgl/src/misc/lv_tlsf.c ****     /* log2 of number of linear subdivisions of block sizes. Larger
 224:Drivers/lvgl/src/misc/lv_tlsf.c ****     ** values require more memory in the control structure. Values of
 225:Drivers/lvgl/src/misc/lv_tlsf.c ****     ** 4 or 5 are typical.
 226:Drivers/lvgl/src/misc/lv_tlsf.c ****     */
 227:Drivers/lvgl/src/misc/lv_tlsf.c ****     SL_INDEX_COUNT_LOG2 = 5,
 228:Drivers/lvgl/src/misc/lv_tlsf.c **** };
 229:Drivers/lvgl/src/misc/lv_tlsf.c **** 
 230:Drivers/lvgl/src/misc/lv_tlsf.c **** /* Private constants: do not modify. */
 231:Drivers/lvgl/src/misc/lv_tlsf.c **** enum tlsf_private {
 232:Drivers/lvgl/src/misc/lv_tlsf.c **** #if defined (TLSF_64BIT)
 233:Drivers/lvgl/src/misc/lv_tlsf.c ****     /* All allocation sizes and addresses are aligned to 8 bytes. */
 234:Drivers/lvgl/src/misc/lv_tlsf.c ****     ALIGN_SIZE_LOG2 = 3,
 235:Drivers/lvgl/src/misc/lv_tlsf.c **** #else
 236:Drivers/lvgl/src/misc/lv_tlsf.c ****     /* All allocation sizes and addresses are aligned to 4 bytes. */
 237:Drivers/lvgl/src/misc/lv_tlsf.c ****     ALIGN_SIZE_LOG2 = 2,
 238:Drivers/lvgl/src/misc/lv_tlsf.c **** #endif
 239:Drivers/lvgl/src/misc/lv_tlsf.c ****     ALIGN_SIZE = (1 << ALIGN_SIZE_LOG2),
 240:Drivers/lvgl/src/misc/lv_tlsf.c **** 
 241:Drivers/lvgl/src/misc/lv_tlsf.c ****     /*
 242:Drivers/lvgl/src/misc/lv_tlsf.c ****     ** We support allocations of sizes up to (1 << FL_INDEX_MAX) bits.
 243:Drivers/lvgl/src/misc/lv_tlsf.c ****     ** However, because we linearly subdivide the second-level lists, and
 244:Drivers/lvgl/src/misc/lv_tlsf.c ****     ** our minimum size granularity is 4 bytes, it doesn't make sense to
 245:Drivers/lvgl/src/misc/lv_tlsf.c ****     ** create first-level lists for sizes smaller than SL_INDEX_COUNT * 4,
 246:Drivers/lvgl/src/misc/lv_tlsf.c ****     ** or (1 << (SL_INDEX_COUNT_LOG2 + 2)) bytes, as there we will be
 247:Drivers/lvgl/src/misc/lv_tlsf.c ****     ** trying to split size ranges into more slots than we have available.
 248:Drivers/lvgl/src/misc/lv_tlsf.c ****     ** Instead, we calculate the minimum threshold size, and place all
 249:Drivers/lvgl/src/misc/lv_tlsf.c ****     ** blocks below that size into the 0th first-level list.
 250:Drivers/lvgl/src/misc/lv_tlsf.c ****     */
 251:Drivers/lvgl/src/misc/lv_tlsf.c **** 
 252:Drivers/lvgl/src/misc/lv_tlsf.c **** #if defined (TLSF_MAX_POOL_SIZE)
 253:Drivers/lvgl/src/misc/lv_tlsf.c ****     FL_INDEX_MAX = TLSF_LOG2_CEIL(TLSF_MAX_POOL_SIZE),
 254:Drivers/lvgl/src/misc/lv_tlsf.c **** #elif defined (TLSF_64BIT)
 255:Drivers/lvgl/src/misc/lv_tlsf.c ****     /*
 256:Drivers/lvgl/src/misc/lv_tlsf.c ****     ** TODO: We can increase this to support larger sizes, at the expense
 257:Drivers/lvgl/src/misc/lv_tlsf.c ****     ** of more overhead in the TLSF structure.
 258:Drivers/lvgl/src/misc/lv_tlsf.c ****     */
ARM GAS  /var/folders/0z/tsy30v1j4xl4_7kw94k978ww0000gn/T//ccByTTYT.s 			page 6


 259:Drivers/lvgl/src/misc/lv_tlsf.c ****     FL_INDEX_MAX = 32,
 260:Drivers/lvgl/src/misc/lv_tlsf.c **** #else
 261:Drivers/lvgl/src/misc/lv_tlsf.c ****     FL_INDEX_MAX = 30,
 262:Drivers/lvgl/src/misc/lv_tlsf.c **** #endif
 263:Drivers/lvgl/src/misc/lv_tlsf.c ****     SL_INDEX_COUNT = (1 << SL_INDEX_COUNT_LOG2),
 264:Drivers/lvgl/src/misc/lv_tlsf.c ****     FL_INDEX_SHIFT = (SL_INDEX_COUNT_LOG2 + ALIGN_SIZE_LOG2),
 265:Drivers/lvgl/src/misc/lv_tlsf.c ****     FL_INDEX_COUNT = (FL_INDEX_MAX - FL_INDEX_SHIFT + 1),
 266:Drivers/lvgl/src/misc/lv_tlsf.c **** 
 267:Drivers/lvgl/src/misc/lv_tlsf.c ****     SMALL_BLOCK_SIZE = (1 << FL_INDEX_SHIFT),
 268:Drivers/lvgl/src/misc/lv_tlsf.c **** };
 269:Drivers/lvgl/src/misc/lv_tlsf.c **** 
 270:Drivers/lvgl/src/misc/lv_tlsf.c **** /*
 271:Drivers/lvgl/src/misc/lv_tlsf.c **** ** Cast and min/max macros.
 272:Drivers/lvgl/src/misc/lv_tlsf.c **** */
 273:Drivers/lvgl/src/misc/lv_tlsf.c **** 
 274:Drivers/lvgl/src/misc/lv_tlsf.c **** #define tlsf_cast(t, exp)   ((t) (exp))
 275:Drivers/lvgl/src/misc/lv_tlsf.c **** #define tlsf_min(a, b)      ((a) < (b) ? (a) : (b))
 276:Drivers/lvgl/src/misc/lv_tlsf.c **** #define tlsf_max(a, b)      ((a) > (b) ? (a) : (b))
 277:Drivers/lvgl/src/misc/lv_tlsf.c **** 
 278:Drivers/lvgl/src/misc/lv_tlsf.c **** /*
 279:Drivers/lvgl/src/misc/lv_tlsf.c **** ** Set assert macro, if it has not been provided by the user.
 280:Drivers/lvgl/src/misc/lv_tlsf.c **** */
 281:Drivers/lvgl/src/misc/lv_tlsf.c **** #define tlsf_assert LV_ASSERT
 282:Drivers/lvgl/src/misc/lv_tlsf.c **** 
 283:Drivers/lvgl/src/misc/lv_tlsf.c **** #if !defined (tlsf_assert)
 284:Drivers/lvgl/src/misc/lv_tlsf.c ****     #define tlsf_assert assert
 285:Drivers/lvgl/src/misc/lv_tlsf.c **** #endif
 286:Drivers/lvgl/src/misc/lv_tlsf.c **** 
 287:Drivers/lvgl/src/misc/lv_tlsf.c **** /*
 288:Drivers/lvgl/src/misc/lv_tlsf.c **** ** Static assertion mechanism.
 289:Drivers/lvgl/src/misc/lv_tlsf.c **** */
 290:Drivers/lvgl/src/misc/lv_tlsf.c **** 
 291:Drivers/lvgl/src/misc/lv_tlsf.c **** #define _tlsf_glue2(x, y) x ## y
 292:Drivers/lvgl/src/misc/lv_tlsf.c **** #define _tlsf_glue(x, y) _tlsf_glue2(x, y)
 293:Drivers/lvgl/src/misc/lv_tlsf.c **** #define tlsf_static_assert(exp) \
 294:Drivers/lvgl/src/misc/lv_tlsf.c ****     typedef char _tlsf_glue(static_assert, __LINE__) [(exp) ? 1 : -1]
 295:Drivers/lvgl/src/misc/lv_tlsf.c **** 
 296:Drivers/lvgl/src/misc/lv_tlsf.c **** /* This code has been tested on 32- and 64-bit (LP/LLP) architectures. */
 297:Drivers/lvgl/src/misc/lv_tlsf.c **** tlsf_static_assert(sizeof(int) * CHAR_BIT == 32);
 298:Drivers/lvgl/src/misc/lv_tlsf.c **** tlsf_static_assert(sizeof(size_t) * CHAR_BIT >= 32);
 299:Drivers/lvgl/src/misc/lv_tlsf.c **** tlsf_static_assert(sizeof(size_t) * CHAR_BIT <= 64);
 300:Drivers/lvgl/src/misc/lv_tlsf.c **** 
 301:Drivers/lvgl/src/misc/lv_tlsf.c **** /* SL_INDEX_COUNT must be <= number of bits in sl_bitmap's storage type. */
 302:Drivers/lvgl/src/misc/lv_tlsf.c **** tlsf_static_assert(sizeof(unsigned int) * CHAR_BIT >= SL_INDEX_COUNT);
 303:Drivers/lvgl/src/misc/lv_tlsf.c **** 
 304:Drivers/lvgl/src/misc/lv_tlsf.c **** /* Ensure we've properly tuned our sizes. */
 305:Drivers/lvgl/src/misc/lv_tlsf.c **** tlsf_static_assert(ALIGN_SIZE == SMALL_BLOCK_SIZE / SL_INDEX_COUNT);
 306:Drivers/lvgl/src/misc/lv_tlsf.c **** 
 307:Drivers/lvgl/src/misc/lv_tlsf.c **** /*
 308:Drivers/lvgl/src/misc/lv_tlsf.c **** ** Data structures and associated constants.
 309:Drivers/lvgl/src/misc/lv_tlsf.c **** */
 310:Drivers/lvgl/src/misc/lv_tlsf.c **** 
 311:Drivers/lvgl/src/misc/lv_tlsf.c **** /*
 312:Drivers/lvgl/src/misc/lv_tlsf.c **** ** Block header structure.
 313:Drivers/lvgl/src/misc/lv_tlsf.c **** **
 314:Drivers/lvgl/src/misc/lv_tlsf.c **** ** There are several implementation subtleties involved:
 315:Drivers/lvgl/src/misc/lv_tlsf.c **** ** - The prev_phys_block field is only valid if the previous block is free.
ARM GAS  /var/folders/0z/tsy30v1j4xl4_7kw94k978ww0000gn/T//ccByTTYT.s 			page 7


 316:Drivers/lvgl/src/misc/lv_tlsf.c **** ** - The prev_phys_block field is actually stored at the end of the
 317:Drivers/lvgl/src/misc/lv_tlsf.c **** **   previous block. It appears at the beginning of this structure only to
 318:Drivers/lvgl/src/misc/lv_tlsf.c **** **   simplify the implementation.
 319:Drivers/lvgl/src/misc/lv_tlsf.c **** ** - The next_free / prev_free fields are only valid if the block is free.
 320:Drivers/lvgl/src/misc/lv_tlsf.c **** */
 321:Drivers/lvgl/src/misc/lv_tlsf.c **** typedef struct block_header_t {
 322:Drivers/lvgl/src/misc/lv_tlsf.c ****     /* Points to the previous physical block. */
 323:Drivers/lvgl/src/misc/lv_tlsf.c ****     struct block_header_t * prev_phys_block;
 324:Drivers/lvgl/src/misc/lv_tlsf.c **** 
 325:Drivers/lvgl/src/misc/lv_tlsf.c ****     /* The size of this block, excluding the block header. */
 326:Drivers/lvgl/src/misc/lv_tlsf.c ****     size_t size;
 327:Drivers/lvgl/src/misc/lv_tlsf.c **** 
 328:Drivers/lvgl/src/misc/lv_tlsf.c ****     /* Next and previous free blocks. */
 329:Drivers/lvgl/src/misc/lv_tlsf.c ****     struct block_header_t * next_free;
 330:Drivers/lvgl/src/misc/lv_tlsf.c ****     struct block_header_t * prev_free;
 331:Drivers/lvgl/src/misc/lv_tlsf.c **** } block_header_t;
 332:Drivers/lvgl/src/misc/lv_tlsf.c **** 
 333:Drivers/lvgl/src/misc/lv_tlsf.c **** /*
 334:Drivers/lvgl/src/misc/lv_tlsf.c **** ** Since block sizes are always at least a multiple of 4, the two least
 335:Drivers/lvgl/src/misc/lv_tlsf.c **** ** significant bits of the size field are used to store the block status:
 336:Drivers/lvgl/src/misc/lv_tlsf.c **** ** - bit 0: whether block is busy or free
 337:Drivers/lvgl/src/misc/lv_tlsf.c **** ** - bit 1: whether previous block is busy or free
 338:Drivers/lvgl/src/misc/lv_tlsf.c **** */
 339:Drivers/lvgl/src/misc/lv_tlsf.c **** static const size_t block_header_free_bit = 1 << 0;
 340:Drivers/lvgl/src/misc/lv_tlsf.c **** static const size_t block_header_prev_free_bit = 1 << 1;
 341:Drivers/lvgl/src/misc/lv_tlsf.c **** 
 342:Drivers/lvgl/src/misc/lv_tlsf.c **** /*
 343:Drivers/lvgl/src/misc/lv_tlsf.c **** ** The size of the block header exposed to used blocks is the size field.
 344:Drivers/lvgl/src/misc/lv_tlsf.c **** ** The prev_phys_block field is stored *inside* the previous free block.
 345:Drivers/lvgl/src/misc/lv_tlsf.c **** */
 346:Drivers/lvgl/src/misc/lv_tlsf.c **** static const size_t block_header_overhead = sizeof(size_t);
 347:Drivers/lvgl/src/misc/lv_tlsf.c **** 
 348:Drivers/lvgl/src/misc/lv_tlsf.c **** /* User data starts directly after the size field in a used block. */
 349:Drivers/lvgl/src/misc/lv_tlsf.c **** static const size_t block_start_offset =
 350:Drivers/lvgl/src/misc/lv_tlsf.c ****     offsetof(block_header_t, size) + sizeof(size_t);
 351:Drivers/lvgl/src/misc/lv_tlsf.c **** 
 352:Drivers/lvgl/src/misc/lv_tlsf.c **** /*
 353:Drivers/lvgl/src/misc/lv_tlsf.c **** ** A free block must be large enough to store its header minus the size of
 354:Drivers/lvgl/src/misc/lv_tlsf.c **** ** the prev_phys_block field, and no larger than the number of addressable
 355:Drivers/lvgl/src/misc/lv_tlsf.c **** ** bits for FL_INDEX.
 356:Drivers/lvgl/src/misc/lv_tlsf.c **** */
 357:Drivers/lvgl/src/misc/lv_tlsf.c **** static const size_t block_size_min =
 358:Drivers/lvgl/src/misc/lv_tlsf.c ****     sizeof(block_header_t) - sizeof(block_header_t *);
 359:Drivers/lvgl/src/misc/lv_tlsf.c **** static const size_t block_size_max = tlsf_cast(size_t, 1) << FL_INDEX_MAX;
 360:Drivers/lvgl/src/misc/lv_tlsf.c **** 
 361:Drivers/lvgl/src/misc/lv_tlsf.c **** 
 362:Drivers/lvgl/src/misc/lv_tlsf.c **** /* The TLSF control structure. */
 363:Drivers/lvgl/src/misc/lv_tlsf.c **** typedef struct control_t {
 364:Drivers/lvgl/src/misc/lv_tlsf.c ****     /* Empty lists point at this block to indicate they are free. */
 365:Drivers/lvgl/src/misc/lv_tlsf.c ****     block_header_t block_null;
 366:Drivers/lvgl/src/misc/lv_tlsf.c **** 
 367:Drivers/lvgl/src/misc/lv_tlsf.c ****     /* Bitmaps for free lists. */
 368:Drivers/lvgl/src/misc/lv_tlsf.c ****     unsigned int fl_bitmap;
 369:Drivers/lvgl/src/misc/lv_tlsf.c ****     unsigned int sl_bitmap[FL_INDEX_COUNT];
 370:Drivers/lvgl/src/misc/lv_tlsf.c **** 
 371:Drivers/lvgl/src/misc/lv_tlsf.c ****     /* Head of free lists. */
 372:Drivers/lvgl/src/misc/lv_tlsf.c ****     block_header_t * blocks[FL_INDEX_COUNT][SL_INDEX_COUNT];
ARM GAS  /var/folders/0z/tsy30v1j4xl4_7kw94k978ww0000gn/T//ccByTTYT.s 			page 8


 373:Drivers/lvgl/src/misc/lv_tlsf.c **** } control_t;
 374:Drivers/lvgl/src/misc/lv_tlsf.c **** 
 375:Drivers/lvgl/src/misc/lv_tlsf.c **** /* A type used for casting when doing pointer arithmetic. */
 376:Drivers/lvgl/src/misc/lv_tlsf.c **** typedef ptrdiff_t tlsfptr_t;
 377:Drivers/lvgl/src/misc/lv_tlsf.c **** 
 378:Drivers/lvgl/src/misc/lv_tlsf.c **** /*
 379:Drivers/lvgl/src/misc/lv_tlsf.c **** ** block_header_t member functions.
 380:Drivers/lvgl/src/misc/lv_tlsf.c **** */
 381:Drivers/lvgl/src/misc/lv_tlsf.c **** 
 382:Drivers/lvgl/src/misc/lv_tlsf.c **** static size_t block_size(const block_header_t * block)
 383:Drivers/lvgl/src/misc/lv_tlsf.c **** {
  29              		.loc 1 383 1 view -0
  30              		.cfi_startproc
  31              		@ args = 0, pretend = 0, frame = 0
  32              		@ frame_needed = 0, uses_anonymous_args = 0
  33              		@ link register save eliminated.
 384:Drivers/lvgl/src/misc/lv_tlsf.c ****     return block->size & ~(block_header_free_bit | block_header_prev_free_bit);
  34              		.loc 1 384 5 view .LVU1
  35              		.loc 1 384 17 is_stmt 0 view .LVU2
  36 0000 4068     		ldr	r0, [r0, #4]
  37              	.LVL1:
 385:Drivers/lvgl/src/misc/lv_tlsf.c **** }
  38              		.loc 1 385 1 view .LVU3
  39 0002 20F00300 		bic	r0, r0, #3
  40 0006 7047     		bx	lr
  41              		.cfi_endproc
  42              	.LFE3:
  44              		.section	.text.block_set_size,"ax",%progbits
  45              		.align	1
  46              		.syntax unified
  47              		.thumb
  48              		.thumb_func
  50              	block_set_size:
  51              	.LVL2:
  52              	.LFB4:
 386:Drivers/lvgl/src/misc/lv_tlsf.c **** 
 387:Drivers/lvgl/src/misc/lv_tlsf.c **** static void block_set_size(block_header_t * block, size_t size)
 388:Drivers/lvgl/src/misc/lv_tlsf.c **** {
  53              		.loc 1 388 1 is_stmt 1 view -0
  54              		.cfi_startproc
  55              		@ args = 0, pretend = 0, frame = 0
  56              		@ frame_needed = 0, uses_anonymous_args = 0
  57              		@ link register save eliminated.
 389:Drivers/lvgl/src/misc/lv_tlsf.c ****     const size_t oldsize = block->size;
  58              		.loc 1 389 5 view .LVU5
  59              		.loc 1 389 18 is_stmt 0 view .LVU6
  60 0000 4368     		ldr	r3, [r0, #4]
  61              	.LVL3:
 390:Drivers/lvgl/src/misc/lv_tlsf.c ****     block->size = size | (oldsize & (block_header_free_bit | block_header_prev_free_bit));
  62              		.loc 1 390 5 is_stmt 1 view .LVU7
  63              		.loc 1 390 35 is_stmt 0 view .LVU8
  64 0002 03F00303 		and	r3, r3, #3
  65              	.LVL4:
  66              		.loc 1 390 24 view .LVU9
  67 0006 0B43     		orrs	r3, r3, r1
  68              		.loc 1 390 17 view .LVU10
  69 0008 4360     		str	r3, [r0, #4]
ARM GAS  /var/folders/0z/tsy30v1j4xl4_7kw94k978ww0000gn/T//ccByTTYT.s 			page 9


  70              	.LVL5:
 391:Drivers/lvgl/src/misc/lv_tlsf.c **** }
  71              		.loc 1 391 1 view .LVU11
  72 000a 7047     		bx	lr
  73              		.cfi_endproc
  74              	.LFE4:
  76              		.section	.text.block_is_last,"ax",%progbits
  77              		.align	1
  78              		.syntax unified
  79              		.thumb
  80              		.thumb_func
  82              	block_is_last:
  83              	.LVL6:
  84              	.LFB5:
 392:Drivers/lvgl/src/misc/lv_tlsf.c **** 
 393:Drivers/lvgl/src/misc/lv_tlsf.c **** static int block_is_last(const block_header_t * block)
 394:Drivers/lvgl/src/misc/lv_tlsf.c **** {
  85              		.loc 1 394 1 is_stmt 1 view -0
  86              		.cfi_startproc
  87              		@ args = 0, pretend = 0, frame = 0
  88              		@ frame_needed = 0, uses_anonymous_args = 0
  89              		.loc 1 394 1 is_stmt 0 view .LVU13
  90 0000 08B5     		push	{r3, lr}
  91              		.cfi_def_cfa_offset 8
  92              		.cfi_offset 3, -8
  93              		.cfi_offset 14, -4
 395:Drivers/lvgl/src/misc/lv_tlsf.c ****     return block_size(block) == 0;
  94              		.loc 1 395 5 is_stmt 1 view .LVU14
  95              		.loc 1 395 12 is_stmt 0 view .LVU15
  96 0002 FFF7FEFF 		bl	block_size
  97              	.LVL7:
 396:Drivers/lvgl/src/misc/lv_tlsf.c **** }
  98              		.loc 1 396 1 view .LVU16
  99 0006 B0FA80F0 		clz	r0, r0
 100 000a 4009     		lsrs	r0, r0, #5
 101 000c 08BD     		pop	{r3, pc}
 102              		.cfi_endproc
 103              	.LFE5:
 105              		.section	.text.block_is_free,"ax",%progbits
 106              		.align	1
 107              		.syntax unified
 108              		.thumb
 109              		.thumb_func
 111              	block_is_free:
 112              	.LVL8:
 113              	.LFB6:
 397:Drivers/lvgl/src/misc/lv_tlsf.c **** 
 398:Drivers/lvgl/src/misc/lv_tlsf.c **** static int block_is_free(const block_header_t * block)
 399:Drivers/lvgl/src/misc/lv_tlsf.c **** {
 114              		.loc 1 399 1 is_stmt 1 view -0
 115              		.cfi_startproc
 116              		@ args = 0, pretend = 0, frame = 0
 117              		@ frame_needed = 0, uses_anonymous_args = 0
 118              		@ link register save eliminated.
 400:Drivers/lvgl/src/misc/lv_tlsf.c ****     return tlsf_cast(int, block->size & block_header_free_bit);
 119              		.loc 1 400 5 view .LVU18
 120              		.loc 1 400 12 is_stmt 0 view .LVU19
ARM GAS  /var/folders/0z/tsy30v1j4xl4_7kw94k978ww0000gn/T//ccByTTYT.s 			page 10


 121 0000 4068     		ldr	r0, [r0, #4]
 122              	.LVL9:
 401:Drivers/lvgl/src/misc/lv_tlsf.c **** }
 123              		.loc 1 401 1 view .LVU20
 124 0002 00F00100 		and	r0, r0, #1
 125 0006 7047     		bx	lr
 126              		.cfi_endproc
 127              	.LFE6:
 129              		.section	.text.block_set_free,"ax",%progbits
 130              		.align	1
 131              		.syntax unified
 132              		.thumb
 133              		.thumb_func
 135              	block_set_free:
 136              	.LVL10:
 137              	.LFB7:
 402:Drivers/lvgl/src/misc/lv_tlsf.c **** 
 403:Drivers/lvgl/src/misc/lv_tlsf.c **** static void block_set_free(block_header_t * block)
 404:Drivers/lvgl/src/misc/lv_tlsf.c **** {
 138              		.loc 1 404 1 is_stmt 1 view -0
 139              		.cfi_startproc
 140              		@ args = 0, pretend = 0, frame = 0
 141              		@ frame_needed = 0, uses_anonymous_args = 0
 142              		@ link register save eliminated.
 405:Drivers/lvgl/src/misc/lv_tlsf.c ****     block->size |= block_header_free_bit;
 143              		.loc 1 405 5 view .LVU22
 144              		.loc 1 405 17 is_stmt 0 view .LVU23
 145 0000 4368     		ldr	r3, [r0, #4]
 146 0002 43F00103 		orr	r3, r3, #1
 147 0006 4360     		str	r3, [r0, #4]
 406:Drivers/lvgl/src/misc/lv_tlsf.c **** }
 148              		.loc 1 406 1 view .LVU24
 149 0008 7047     		bx	lr
 150              		.cfi_endproc
 151              	.LFE7:
 153              		.section	.text.block_set_used,"ax",%progbits
 154              		.align	1
 155              		.syntax unified
 156              		.thumb
 157              		.thumb_func
 159              	block_set_used:
 160              	.LVL11:
 161              	.LFB8:
 407:Drivers/lvgl/src/misc/lv_tlsf.c **** 
 408:Drivers/lvgl/src/misc/lv_tlsf.c **** static void block_set_used(block_header_t * block)
 409:Drivers/lvgl/src/misc/lv_tlsf.c **** {
 162              		.loc 1 409 1 is_stmt 1 view -0
 163              		.cfi_startproc
 164              		@ args = 0, pretend = 0, frame = 0
 165              		@ frame_needed = 0, uses_anonymous_args = 0
 166              		@ link register save eliminated.
 410:Drivers/lvgl/src/misc/lv_tlsf.c ****     block->size &= ~block_header_free_bit;
 167              		.loc 1 410 5 view .LVU26
 168              		.loc 1 410 17 is_stmt 0 view .LVU27
 169 0000 4368     		ldr	r3, [r0, #4]
 170 0002 23F00103 		bic	r3, r3, #1
 171 0006 4360     		str	r3, [r0, #4]
ARM GAS  /var/folders/0z/tsy30v1j4xl4_7kw94k978ww0000gn/T//ccByTTYT.s 			page 11


 411:Drivers/lvgl/src/misc/lv_tlsf.c **** }
 172              		.loc 1 411 1 view .LVU28
 173 0008 7047     		bx	lr
 174              		.cfi_endproc
 175              	.LFE8:
 177              		.section	.text.block_is_prev_free,"ax",%progbits
 178              		.align	1
 179              		.syntax unified
 180              		.thumb
 181              		.thumb_func
 183              	block_is_prev_free:
 184              	.LVL12:
 185              	.LFB9:
 412:Drivers/lvgl/src/misc/lv_tlsf.c **** 
 413:Drivers/lvgl/src/misc/lv_tlsf.c **** static int block_is_prev_free(const block_header_t * block)
 414:Drivers/lvgl/src/misc/lv_tlsf.c **** {
 186              		.loc 1 414 1 is_stmt 1 view -0
 187              		.cfi_startproc
 188              		@ args = 0, pretend = 0, frame = 0
 189              		@ frame_needed = 0, uses_anonymous_args = 0
 190              		@ link register save eliminated.
 415:Drivers/lvgl/src/misc/lv_tlsf.c ****     return tlsf_cast(int, block->size & block_header_prev_free_bit);
 191              		.loc 1 415 5 view .LVU30
 192              		.loc 1 415 12 is_stmt 0 view .LVU31
 193 0000 4068     		ldr	r0, [r0, #4]
 194              	.LVL13:
 416:Drivers/lvgl/src/misc/lv_tlsf.c **** }
 195              		.loc 1 416 1 view .LVU32
 196 0002 00F00200 		and	r0, r0, #2
 197 0006 7047     		bx	lr
 198              		.cfi_endproc
 199              	.LFE9:
 201              		.section	.text.block_set_prev_free,"ax",%progbits
 202              		.align	1
 203              		.syntax unified
 204              		.thumb
 205              		.thumb_func
 207              	block_set_prev_free:
 208              	.LVL14:
 209              	.LFB10:
 417:Drivers/lvgl/src/misc/lv_tlsf.c **** 
 418:Drivers/lvgl/src/misc/lv_tlsf.c **** static void block_set_prev_free(block_header_t * block)
 419:Drivers/lvgl/src/misc/lv_tlsf.c **** {
 210              		.loc 1 419 1 is_stmt 1 view -0
 211              		.cfi_startproc
 212              		@ args = 0, pretend = 0, frame = 0
 213              		@ frame_needed = 0, uses_anonymous_args = 0
 214              		@ link register save eliminated.
 420:Drivers/lvgl/src/misc/lv_tlsf.c ****     block->size |= block_header_prev_free_bit;
 215              		.loc 1 420 5 view .LVU34
 216              		.loc 1 420 17 is_stmt 0 view .LVU35
 217 0000 4368     		ldr	r3, [r0, #4]
 218 0002 43F00203 		orr	r3, r3, #2
 219 0006 4360     		str	r3, [r0, #4]
 421:Drivers/lvgl/src/misc/lv_tlsf.c **** }
 220              		.loc 1 421 1 view .LVU36
 221 0008 7047     		bx	lr
ARM GAS  /var/folders/0z/tsy30v1j4xl4_7kw94k978ww0000gn/T//ccByTTYT.s 			page 12


 222              		.cfi_endproc
 223              	.LFE10:
 225              		.section	.text.block_set_prev_used,"ax",%progbits
 226              		.align	1
 227              		.syntax unified
 228              		.thumb
 229              		.thumb_func
 231              	block_set_prev_used:
 232              	.LVL15:
 233              	.LFB11:
 422:Drivers/lvgl/src/misc/lv_tlsf.c **** 
 423:Drivers/lvgl/src/misc/lv_tlsf.c **** static void block_set_prev_used(block_header_t * block)
 424:Drivers/lvgl/src/misc/lv_tlsf.c **** {
 234              		.loc 1 424 1 is_stmt 1 view -0
 235              		.cfi_startproc
 236              		@ args = 0, pretend = 0, frame = 0
 237              		@ frame_needed = 0, uses_anonymous_args = 0
 238              		@ link register save eliminated.
 425:Drivers/lvgl/src/misc/lv_tlsf.c ****     block->size &= ~block_header_prev_free_bit;
 239              		.loc 1 425 5 view .LVU38
 240              		.loc 1 425 17 is_stmt 0 view .LVU39
 241 0000 4368     		ldr	r3, [r0, #4]
 242 0002 23F00203 		bic	r3, r3, #2
 243 0006 4360     		str	r3, [r0, #4]
 426:Drivers/lvgl/src/misc/lv_tlsf.c **** }
 244              		.loc 1 426 1 view .LVU40
 245 0008 7047     		bx	lr
 246              		.cfi_endproc
 247              	.LFE11:
 249              		.section	.text.block_from_ptr,"ax",%progbits
 250              		.align	1
 251              		.syntax unified
 252              		.thumb
 253              		.thumb_func
 255              	block_from_ptr:
 256              	.LVL16:
 257              	.LFB12:
 427:Drivers/lvgl/src/misc/lv_tlsf.c **** 
 428:Drivers/lvgl/src/misc/lv_tlsf.c **** static block_header_t * block_from_ptr(const void * ptr)
 429:Drivers/lvgl/src/misc/lv_tlsf.c **** {
 258              		.loc 1 429 1 is_stmt 1 view -0
 259              		.cfi_startproc
 260              		@ args = 0, pretend = 0, frame = 0
 261              		@ frame_needed = 0, uses_anonymous_args = 0
 262              		@ link register save eliminated.
 430:Drivers/lvgl/src/misc/lv_tlsf.c ****     return tlsf_cast(block_header_t *,
 263              		.loc 1 430 5 view .LVU42
 431:Drivers/lvgl/src/misc/lv_tlsf.c ****                      tlsf_cast(unsigned char *, ptr) - block_start_offset);
 432:Drivers/lvgl/src/misc/lv_tlsf.c **** }
 264              		.loc 1 432 1 is_stmt 0 view .LVU43
 265 0000 0838     		subs	r0, r0, #8
 266              	.LVL17:
 267              		.loc 1 432 1 view .LVU44
 268 0002 7047     		bx	lr
 269              		.cfi_endproc
 270              	.LFE12:
 272              		.section	.text.block_to_ptr,"ax",%progbits
ARM GAS  /var/folders/0z/tsy30v1j4xl4_7kw94k978ww0000gn/T//ccByTTYT.s 			page 13


 273              		.align	1
 274              		.syntax unified
 275              		.thumb
 276              		.thumb_func
 278              	block_to_ptr:
 279              	.LVL18:
 280              	.LFB13:
 433:Drivers/lvgl/src/misc/lv_tlsf.c **** 
 434:Drivers/lvgl/src/misc/lv_tlsf.c **** static void * block_to_ptr(const block_header_t * block)
 435:Drivers/lvgl/src/misc/lv_tlsf.c **** {
 281              		.loc 1 435 1 is_stmt 1 view -0
 282              		.cfi_startproc
 283              		@ args = 0, pretend = 0, frame = 0
 284              		@ frame_needed = 0, uses_anonymous_args = 0
 285              		@ link register save eliminated.
 436:Drivers/lvgl/src/misc/lv_tlsf.c ****     return tlsf_cast(void *,
 286              		.loc 1 436 5 view .LVU46
 437:Drivers/lvgl/src/misc/lv_tlsf.c ****                      tlsf_cast(unsigned char *, block) + block_start_offset);
 438:Drivers/lvgl/src/misc/lv_tlsf.c **** }
 287              		.loc 1 438 1 is_stmt 0 view .LVU47
 288 0000 0830     		adds	r0, r0, #8
 289              	.LVL19:
 290              		.loc 1 438 1 view .LVU48
 291 0002 7047     		bx	lr
 292              		.cfi_endproc
 293              	.LFE13:
 295              		.section	.text.offset_to_block,"ax",%progbits
 296              		.align	1
 297              		.syntax unified
 298              		.thumb
 299              		.thumb_func
 301              	offset_to_block:
 302              	.LVL20:
 303              	.LFB14:
 439:Drivers/lvgl/src/misc/lv_tlsf.c **** 
 440:Drivers/lvgl/src/misc/lv_tlsf.c **** /* Return location of next block after block of given size. */
 441:Drivers/lvgl/src/misc/lv_tlsf.c **** static block_header_t * offset_to_block(const void * ptr, size_t size)
 442:Drivers/lvgl/src/misc/lv_tlsf.c **** {
 304              		.loc 1 442 1 is_stmt 1 view -0
 305              		.cfi_startproc
 306              		@ args = 0, pretend = 0, frame = 0
 307              		@ frame_needed = 0, uses_anonymous_args = 0
 308              		@ link register save eliminated.
 443:Drivers/lvgl/src/misc/lv_tlsf.c ****     return tlsf_cast(block_header_t *, tlsf_cast(tlsfptr_t, ptr) + size);
 309              		.loc 1 443 5 view .LVU50
 444:Drivers/lvgl/src/misc/lv_tlsf.c **** }
 310              		.loc 1 444 1 is_stmt 0 view .LVU51
 311 0000 0844     		add	r0, r0, r1
 312              	.LVL21:
 313              		.loc 1 444 1 view .LVU52
 314 0002 7047     		bx	lr
 315              		.cfi_endproc
 316              	.LFE14:
 318              		.section	.text.block_prev,"ax",%progbits
 319              		.align	1
 320              		.syntax unified
 321              		.thumb
ARM GAS  /var/folders/0z/tsy30v1j4xl4_7kw94k978ww0000gn/T//ccByTTYT.s 			page 14


 322              		.thumb_func
 324              	block_prev:
 325              	.LVL22:
 326              	.LFB15:
 445:Drivers/lvgl/src/misc/lv_tlsf.c **** 
 446:Drivers/lvgl/src/misc/lv_tlsf.c **** /* Return location of previous block. */
 447:Drivers/lvgl/src/misc/lv_tlsf.c **** static block_header_t * block_prev(const block_header_t * block)
 448:Drivers/lvgl/src/misc/lv_tlsf.c **** {
 327              		.loc 1 448 1 is_stmt 1 view -0
 328              		.cfi_startproc
 329              		@ args = 0, pretend = 0, frame = 0
 330              		@ frame_needed = 0, uses_anonymous_args = 0
 331              		.loc 1 448 1 is_stmt 0 view .LVU54
 332 0000 10B5     		push	{r4, lr}
 333              		.cfi_def_cfa_offset 8
 334              		.cfi_offset 4, -8
 335              		.cfi_offset 14, -4
 336 0002 0446     		mov	r4, r0
 449:Drivers/lvgl/src/misc/lv_tlsf.c ****     tlsf_assert(block_is_prev_free(block) && "previous block must be free");
 337              		.loc 1 449 5 is_stmt 1 view .LVU55
 338              		.loc 1 449 5 view .LVU56
 339 0004 FFF7FEFF 		bl	block_is_prev_free
 340              	.LVL23:
 341              		.loc 1 449 5 is_stmt 0 view .LVU57
 342 0008 00B9     		cbnz	r0, .L15
 343              	.L16:
 344              		.loc 1 449 5 is_stmt 1 discriminator 1 view .LVU58
 345              		.loc 1 449 5 discriminator 1 view .LVU59
 346              		.loc 1 449 5 discriminator 1 view .LVU60
 347              		.loc 1 449 5 discriminator 1 view .LVU61
 348              		.loc 1 449 5 discriminator 1 view .LVU62
 349 000a FEE7     		b	.L16
 350              	.L15:
 351              		.loc 1 449 5 discriminator 4 view .LVU63
 450:Drivers/lvgl/src/misc/lv_tlsf.c ****     return block->prev_phys_block;
 352              		.loc 1 450 5 discriminator 4 view .LVU64
 451:Drivers/lvgl/src/misc/lv_tlsf.c **** }
 353              		.loc 1 451 1 is_stmt 0 discriminator 4 view .LVU65
 354 000c 2068     		ldr	r0, [r4]
 355 000e 10BD     		pop	{r4, pc}
 356              		.loc 1 451 1 discriminator 4 view .LVU66
 357              		.cfi_endproc
 358              	.LFE15:
 360              		.section	.text.block_next,"ax",%progbits
 361              		.align	1
 362              		.syntax unified
 363              		.thumb
 364              		.thumb_func
 366              	block_next:
 367              	.LVL24:
 368              	.LFB16:
 452:Drivers/lvgl/src/misc/lv_tlsf.c **** 
 453:Drivers/lvgl/src/misc/lv_tlsf.c **** /* Return location of next existing block. */
 454:Drivers/lvgl/src/misc/lv_tlsf.c **** static block_header_t * block_next(const block_header_t * block)
 455:Drivers/lvgl/src/misc/lv_tlsf.c **** {
 369              		.loc 1 455 1 is_stmt 1 view -0
 370              		.cfi_startproc
ARM GAS  /var/folders/0z/tsy30v1j4xl4_7kw94k978ww0000gn/T//ccByTTYT.s 			page 15


 371              		@ args = 0, pretend = 0, frame = 0
 372              		@ frame_needed = 0, uses_anonymous_args = 0
 373              		.loc 1 455 1 is_stmt 0 view .LVU68
 374 0000 38B5     		push	{r3, r4, r5, lr}
 375              		.cfi_def_cfa_offset 16
 376              		.cfi_offset 3, -16
 377              		.cfi_offset 4, -12
 378              		.cfi_offset 5, -8
 379              		.cfi_offset 14, -4
 380 0002 0446     		mov	r4, r0
 456:Drivers/lvgl/src/misc/lv_tlsf.c ****     block_header_t * next = offset_to_block(block_to_ptr(block),
 381              		.loc 1 456 5 is_stmt 1 view .LVU69
 382              		.loc 1 456 45 is_stmt 0 view .LVU70
 383 0004 FFF7FEFF 		bl	block_to_ptr
 384              	.LVL25:
 385              		.loc 1 456 45 view .LVU71
 386 0008 0546     		mov	r5, r0
 457:Drivers/lvgl/src/misc/lv_tlsf.c ****                                             block_size(block) - block_header_overhead);
 387              		.loc 1 457 45 view .LVU72
 388 000a 2046     		mov	r0, r4
 389 000c FFF7FEFF 		bl	block_size
 390              	.LVL26:
 456:Drivers/lvgl/src/misc/lv_tlsf.c ****     block_header_t * next = offset_to_block(block_to_ptr(block),
 391              		.loc 1 456 29 view .LVU73
 392 0010 011F     		subs	r1, r0, #4
 393 0012 2846     		mov	r0, r5
 394 0014 FFF7FEFF 		bl	offset_to_block
 395              	.LVL27:
 396 0018 0546     		mov	r5, r0
 397              	.LVL28:
 458:Drivers/lvgl/src/misc/lv_tlsf.c ****     tlsf_assert(!block_is_last(block));
 398              		.loc 1 458 5 is_stmt 1 view .LVU74
 399              		.loc 1 458 5 view .LVU75
 400 001a 2046     		mov	r0, r4
 401              	.LVL29:
 402              		.loc 1 458 5 is_stmt 0 view .LVU76
 403 001c FFF7FEFF 		bl	block_is_last
 404              	.LVL30:
 405 0020 00B1     		cbz	r0, .L18
 406              	.L20:
 407              		.loc 1 458 5 is_stmt 1 discriminator 1 view .LVU77
 408              		.loc 1 458 5 discriminator 1 view .LVU78
 409              		.loc 1 458 5 discriminator 1 view .LVU79
 410              		.loc 1 458 5 discriminator 1 view .LVU80
 411              		.loc 1 458 5 discriminator 1 view .LVU81
 412 0022 FEE7     		b	.L20
 413              	.L18:
 459:Drivers/lvgl/src/misc/lv_tlsf.c ****     return next;
 460:Drivers/lvgl/src/misc/lv_tlsf.c **** }
 414              		.loc 1 460 1 is_stmt 0 view .LVU82
 415 0024 2846     		mov	r0, r5
 416 0026 38BD     		pop	{r3, r4, r5, pc}
 417              		.loc 1 460 1 view .LVU83
 418              		.cfi_endproc
 419              	.LFE16:
 421              		.section	.text.block_link_next,"ax",%progbits
 422              		.align	1
ARM GAS  /var/folders/0z/tsy30v1j4xl4_7kw94k978ww0000gn/T//ccByTTYT.s 			page 16


 423              		.syntax unified
 424              		.thumb
 425              		.thumb_func
 427              	block_link_next:
 428              	.LVL31:
 429              	.LFB17:
 461:Drivers/lvgl/src/misc/lv_tlsf.c **** 
 462:Drivers/lvgl/src/misc/lv_tlsf.c **** /* Link a new block with its physical neighbor, return the neighbor. */
 463:Drivers/lvgl/src/misc/lv_tlsf.c **** static block_header_t * block_link_next(block_header_t * block)
 464:Drivers/lvgl/src/misc/lv_tlsf.c **** {
 430              		.loc 1 464 1 is_stmt 1 view -0
 431              		.cfi_startproc
 432              		@ args = 0, pretend = 0, frame = 0
 433              		@ frame_needed = 0, uses_anonymous_args = 0
 434              		.loc 1 464 1 is_stmt 0 view .LVU85
 435 0000 10B5     		push	{r4, lr}
 436              		.cfi_def_cfa_offset 8
 437              		.cfi_offset 4, -8
 438              		.cfi_offset 14, -4
 439 0002 0446     		mov	r4, r0
 465:Drivers/lvgl/src/misc/lv_tlsf.c ****     block_header_t * next = block_next(block);
 440              		.loc 1 465 5 is_stmt 1 view .LVU86
 441              		.loc 1 465 29 is_stmt 0 view .LVU87
 442 0004 FFF7FEFF 		bl	block_next
 443              	.LVL32:
 466:Drivers/lvgl/src/misc/lv_tlsf.c ****     next->prev_phys_block = block;
 444              		.loc 1 466 5 is_stmt 1 view .LVU88
 445              		.loc 1 466 27 is_stmt 0 view .LVU89
 446 0008 0460     		str	r4, [r0]
 467:Drivers/lvgl/src/misc/lv_tlsf.c ****     return next;
 447              		.loc 1 467 5 is_stmt 1 view .LVU90
 468:Drivers/lvgl/src/misc/lv_tlsf.c **** }
 448              		.loc 1 468 1 is_stmt 0 view .LVU91
 449 000a 10BD     		pop	{r4, pc}
 450              		.loc 1 468 1 view .LVU92
 451              		.cfi_endproc
 452              	.LFE17:
 454              		.section	.text.block_mark_as_free,"ax",%progbits
 455              		.align	1
 456              		.syntax unified
 457              		.thumb
 458              		.thumb_func
 460              	block_mark_as_free:
 461              	.LVL33:
 462              	.LFB18:
 469:Drivers/lvgl/src/misc/lv_tlsf.c **** 
 470:Drivers/lvgl/src/misc/lv_tlsf.c **** static void block_mark_as_free(block_header_t * block)
 471:Drivers/lvgl/src/misc/lv_tlsf.c **** {
 463              		.loc 1 471 1 is_stmt 1 view -0
 464              		.cfi_startproc
 465              		@ args = 0, pretend = 0, frame = 0
 466              		@ frame_needed = 0, uses_anonymous_args = 0
 467              		.loc 1 471 1 is_stmt 0 view .LVU94
 468 0000 10B5     		push	{r4, lr}
 469              		.cfi_def_cfa_offset 8
 470              		.cfi_offset 4, -8
 471              		.cfi_offset 14, -4
ARM GAS  /var/folders/0z/tsy30v1j4xl4_7kw94k978ww0000gn/T//ccByTTYT.s 			page 17


 472 0002 0446     		mov	r4, r0
 472:Drivers/lvgl/src/misc/lv_tlsf.c ****     /* Link the block to the next block, first. */
 473:Drivers/lvgl/src/misc/lv_tlsf.c ****     block_header_t * next = block_link_next(block);
 473              		.loc 1 473 5 is_stmt 1 view .LVU95
 474              		.loc 1 473 29 is_stmt 0 view .LVU96
 475 0004 FFF7FEFF 		bl	block_link_next
 476              	.LVL34:
 474:Drivers/lvgl/src/misc/lv_tlsf.c ****     block_set_prev_free(next);
 477              		.loc 1 474 5 is_stmt 1 view .LVU97
 478 0008 FFF7FEFF 		bl	block_set_prev_free
 479              	.LVL35:
 475:Drivers/lvgl/src/misc/lv_tlsf.c ****     block_set_free(block);
 480              		.loc 1 475 5 view .LVU98
 481 000c 2046     		mov	r0, r4
 482 000e FFF7FEFF 		bl	block_set_free
 483              	.LVL36:
 476:Drivers/lvgl/src/misc/lv_tlsf.c **** }
 484              		.loc 1 476 1 is_stmt 0 view .LVU99
 485 0012 10BD     		pop	{r4, pc}
 486              		.loc 1 476 1 view .LVU100
 487              		.cfi_endproc
 488              	.LFE18:
 490              		.section	.text.block_mark_as_used,"ax",%progbits
 491              		.align	1
 492              		.syntax unified
 493              		.thumb
 494              		.thumb_func
 496              	block_mark_as_used:
 497              	.LVL37:
 498              	.LFB19:
 477:Drivers/lvgl/src/misc/lv_tlsf.c **** 
 478:Drivers/lvgl/src/misc/lv_tlsf.c **** static void block_mark_as_used(block_header_t * block)
 479:Drivers/lvgl/src/misc/lv_tlsf.c **** {
 499              		.loc 1 479 1 is_stmt 1 view -0
 500              		.cfi_startproc
 501              		@ args = 0, pretend = 0, frame = 0
 502              		@ frame_needed = 0, uses_anonymous_args = 0
 503              		.loc 1 479 1 is_stmt 0 view .LVU102
 504 0000 10B5     		push	{r4, lr}
 505              		.cfi_def_cfa_offset 8
 506              		.cfi_offset 4, -8
 507              		.cfi_offset 14, -4
 508 0002 0446     		mov	r4, r0
 480:Drivers/lvgl/src/misc/lv_tlsf.c ****     block_header_t * next = block_next(block);
 509              		.loc 1 480 5 is_stmt 1 view .LVU103
 510              		.loc 1 480 29 is_stmt 0 view .LVU104
 511 0004 FFF7FEFF 		bl	block_next
 512              	.LVL38:
 481:Drivers/lvgl/src/misc/lv_tlsf.c ****     block_set_prev_used(next);
 513              		.loc 1 481 5 is_stmt 1 view .LVU105
 514 0008 FFF7FEFF 		bl	block_set_prev_used
 515              	.LVL39:
 482:Drivers/lvgl/src/misc/lv_tlsf.c ****     block_set_used(block);
 516              		.loc 1 482 5 view .LVU106
 517 000c 2046     		mov	r0, r4
 518 000e FFF7FEFF 		bl	block_set_used
 519              	.LVL40:
ARM GAS  /var/folders/0z/tsy30v1j4xl4_7kw94k978ww0000gn/T//ccByTTYT.s 			page 18


 483:Drivers/lvgl/src/misc/lv_tlsf.c **** }
 520              		.loc 1 483 1 is_stmt 0 view .LVU107
 521 0012 10BD     		pop	{r4, pc}
 522              		.loc 1 483 1 view .LVU108
 523              		.cfi_endproc
 524              	.LFE19:
 526              		.section	.text.align_up,"ax",%progbits
 527              		.align	1
 528              		.syntax unified
 529              		.thumb
 530              		.thumb_func
 532              	align_up:
 533              	.LVL41:
 534              	.LFB20:
 484:Drivers/lvgl/src/misc/lv_tlsf.c **** 
 485:Drivers/lvgl/src/misc/lv_tlsf.c **** static size_t align_up(size_t x, size_t align)
 486:Drivers/lvgl/src/misc/lv_tlsf.c **** {
 535              		.loc 1 486 1 is_stmt 1 view -0
 536              		.cfi_startproc
 537              		@ args = 0, pretend = 0, frame = 0
 538              		@ frame_needed = 0, uses_anonymous_args = 0
 539              		@ link register save eliminated.
 487:Drivers/lvgl/src/misc/lv_tlsf.c ****     tlsf_assert(0 == (align & (align - 1)) && "must align to a power of two");
 540              		.loc 1 487 5 view .LVU110
 541              		.loc 1 487 5 view .LVU111
 542 0000 4B1E     		subs	r3, r1, #1
 543 0002 0B42     		tst	r3, r1
 544 0004 00D0     		beq	.L29
 545              	.L30:
 546              		.loc 1 487 5 discriminator 1 view .LVU112
 547              		.loc 1 487 5 discriminator 1 view .LVU113
 548              		.loc 1 487 5 discriminator 1 view .LVU114
 549              		.loc 1 487 5 discriminator 1 view .LVU115
 550              		.loc 1 487 5 discriminator 1 view .LVU116
 551 0006 FEE7     		b	.L30
 552              	.L29:
 553              		.loc 1 487 5 discriminator 2 view .LVU117
 488:Drivers/lvgl/src/misc/lv_tlsf.c ****     return (x + (align - 1)) & ~(align - 1);
 554              		.loc 1 488 5 discriminator 2 view .LVU118
 555              		.loc 1 488 15 is_stmt 0 discriminator 2 view .LVU119
 556 0008 0844     		add	r0, r0, r1
 557              	.LVL42:
 558              		.loc 1 488 15 discriminator 2 view .LVU120
 559 000a 0138     		subs	r0, r0, #1
 560              		.loc 1 488 32 discriminator 2 view .LVU121
 561 000c 4942     		rsbs	r1, r1, #0
 562              	.LVL43:
 489:Drivers/lvgl/src/misc/lv_tlsf.c **** }
 563              		.loc 1 489 1 discriminator 2 view .LVU122
 564 000e 0840     		ands	r0, r0, r1
 565 0010 7047     		bx	lr
 566              		.cfi_endproc
 567              	.LFE20:
 569              		.section	.text.align_down,"ax",%progbits
 570              		.align	1
 571              		.syntax unified
 572              		.thumb
ARM GAS  /var/folders/0z/tsy30v1j4xl4_7kw94k978ww0000gn/T//ccByTTYT.s 			page 19


 573              		.thumb_func
 575              	align_down:
 576              	.LVL44:
 577              	.LFB21:
 490:Drivers/lvgl/src/misc/lv_tlsf.c **** 
 491:Drivers/lvgl/src/misc/lv_tlsf.c **** static size_t align_down(size_t x, size_t align)
 492:Drivers/lvgl/src/misc/lv_tlsf.c **** {
 578              		.loc 1 492 1 is_stmt 1 view -0
 579              		.cfi_startproc
 580              		@ args = 0, pretend = 0, frame = 0
 581              		@ frame_needed = 0, uses_anonymous_args = 0
 582              		@ link register save eliminated.
 493:Drivers/lvgl/src/misc/lv_tlsf.c ****     tlsf_assert(0 == (align & (align - 1)) && "must align to a power of two");
 583              		.loc 1 493 5 view .LVU124
 584              		.loc 1 493 5 view .LVU125
 585 0000 4B1E     		subs	r3, r1, #1
 586 0002 0B42     		tst	r3, r1
 587 0004 00D0     		beq	.L32
 588              	.L33:
 589              		.loc 1 493 5 discriminator 1 view .LVU126
 590              		.loc 1 493 5 discriminator 1 view .LVU127
 591              		.loc 1 493 5 discriminator 1 view .LVU128
 592              		.loc 1 493 5 discriminator 1 view .LVU129
 593              		.loc 1 493 5 discriminator 1 view .LVU130
 594 0006 FEE7     		b	.L33
 595              	.L32:
 596              		.loc 1 493 5 discriminator 2 view .LVU131
 494:Drivers/lvgl/src/misc/lv_tlsf.c ****     return x - (x & (align - 1));
 597              		.loc 1 494 5 discriminator 2 view .LVU132
 598              		.loc 1 494 14 is_stmt 0 discriminator 2 view .LVU133
 599 0008 4942     		rsbs	r1, r1, #0
 600              	.LVL45:
 495:Drivers/lvgl/src/misc/lv_tlsf.c **** }
 601              		.loc 1 495 1 discriminator 2 view .LVU134
 602 000a 0840     		ands	r0, r0, r1
 603              	.LVL46:
 604              		.loc 1 495 1 discriminator 2 view .LVU135
 605 000c 7047     		bx	lr
 606              		.cfi_endproc
 607              	.LFE21:
 609              		.section	.text.align_ptr,"ax",%progbits
 610              		.align	1
 611              		.syntax unified
 612              		.thumb
 613              		.thumb_func
 615              	align_ptr:
 616              	.LVL47:
 617              	.LFB22:
 496:Drivers/lvgl/src/misc/lv_tlsf.c **** 
 497:Drivers/lvgl/src/misc/lv_tlsf.c **** static void * align_ptr(const void * ptr, size_t align)
 498:Drivers/lvgl/src/misc/lv_tlsf.c **** {
 618              		.loc 1 498 1 is_stmt 1 view -0
 619              		.cfi_startproc
 620              		@ args = 0, pretend = 0, frame = 0
 621              		@ frame_needed = 0, uses_anonymous_args = 0
 622              		@ link register save eliminated.
 499:Drivers/lvgl/src/misc/lv_tlsf.c ****     const tlsfptr_t aligned =
ARM GAS  /var/folders/0z/tsy30v1j4xl4_7kw94k978ww0000gn/T//ccByTTYT.s 			page 20


 623              		.loc 1 499 5 view .LVU137
 500:Drivers/lvgl/src/misc/lv_tlsf.c ****         (tlsf_cast(tlsfptr_t, ptr) + (align - 1)) & ~(align - 1);
 624              		.loc 1 500 36 is_stmt 0 view .LVU138
 625 0000 0844     		add	r0, r0, r1
 626              	.LVL48:
 627              		.loc 1 500 36 view .LVU139
 628 0002 0138     		subs	r0, r0, #1
 629              		.loc 1 500 53 view .LVU140
 630 0004 4B42     		rsbs	r3, r1, #0
 631              		.loc 1 500 51 view .LVU141
 632 0006 1840     		ands	r0, r0, r3
 633              	.LVL49:
 501:Drivers/lvgl/src/misc/lv_tlsf.c ****     tlsf_assert(0 == (align & (align - 1)) && "must align to a power of two");
 634              		.loc 1 501 5 is_stmt 1 view .LVU142
 635              		.loc 1 501 5 view .LVU143
 636 0008 4B1E     		subs	r3, r1, #1
 637 000a 0B42     		tst	r3, r1
 638 000c 00D0     		beq	.L35
 639              	.L36:
 640              		.loc 1 501 5 discriminator 1 view .LVU144
 641              		.loc 1 501 5 discriminator 1 view .LVU145
 642              		.loc 1 501 5 discriminator 1 view .LVU146
 643              		.loc 1 501 5 discriminator 1 view .LVU147
 644              		.loc 1 501 5 discriminator 1 view .LVU148
 645 000e FEE7     		b	.L36
 646              	.L35:
 647              		.loc 1 501 5 discriminator 2 view .LVU149
 502:Drivers/lvgl/src/misc/lv_tlsf.c ****     return tlsf_cast(void *, aligned);
 648              		.loc 1 502 5 discriminator 2 view .LVU150
 503:Drivers/lvgl/src/misc/lv_tlsf.c **** }
 649              		.loc 1 503 1 is_stmt 0 discriminator 2 view .LVU151
 650 0010 7047     		bx	lr
 651              		.cfi_endproc
 652              	.LFE22:
 654              		.section	.text.adjust_request_size,"ax",%progbits
 655              		.align	1
 656              		.syntax unified
 657              		.thumb
 658              		.thumb_func
 660              	adjust_request_size:
 661              	.LVL50:
 662              	.LFB23:
 504:Drivers/lvgl/src/misc/lv_tlsf.c **** 
 505:Drivers/lvgl/src/misc/lv_tlsf.c **** /*
 506:Drivers/lvgl/src/misc/lv_tlsf.c **** ** Adjust an allocation size to be aligned to word size, and no smaller
 507:Drivers/lvgl/src/misc/lv_tlsf.c **** ** than internal minimum.
 508:Drivers/lvgl/src/misc/lv_tlsf.c **** */
 509:Drivers/lvgl/src/misc/lv_tlsf.c **** static size_t adjust_request_size(size_t size, size_t align)
 510:Drivers/lvgl/src/misc/lv_tlsf.c **** {
 663              		.loc 1 510 1 is_stmt 1 view -0
 664              		.cfi_startproc
 665              		@ args = 0, pretend = 0, frame = 0
 666              		@ frame_needed = 0, uses_anonymous_args = 0
 667              		.loc 1 510 1 is_stmt 0 view .LVU153
 668 0000 08B5     		push	{r3, lr}
 669              		.cfi_def_cfa_offset 8
 670              		.cfi_offset 3, -8
ARM GAS  /var/folders/0z/tsy30v1j4xl4_7kw94k978ww0000gn/T//ccByTTYT.s 			page 21


 671              		.cfi_offset 14, -4
 511:Drivers/lvgl/src/misc/lv_tlsf.c ****     size_t adjust = 0;
 672              		.loc 1 511 5 is_stmt 1 view .LVU154
 673              	.LVL51:
 512:Drivers/lvgl/src/misc/lv_tlsf.c ****     if(size) {
 674              		.loc 1 512 5 view .LVU155
 675              		.loc 1 512 7 is_stmt 0 view .LVU156
 676 0002 00B9     		cbnz	r0, .L41
 677              	.LVL52:
 678              	.L38:
 513:Drivers/lvgl/src/misc/lv_tlsf.c ****         const size_t aligned = align_up(size, align);
 514:Drivers/lvgl/src/misc/lv_tlsf.c **** 
 515:Drivers/lvgl/src/misc/lv_tlsf.c ****         /* aligned sized must not exceed block_size_max or we'll go out of bounds on sl_bitmap */
 516:Drivers/lvgl/src/misc/lv_tlsf.c ****         if(aligned < block_size_max) {
 517:Drivers/lvgl/src/misc/lv_tlsf.c ****             adjust = tlsf_max(aligned, block_size_min);
 518:Drivers/lvgl/src/misc/lv_tlsf.c ****         }
 519:Drivers/lvgl/src/misc/lv_tlsf.c ****     }
 520:Drivers/lvgl/src/misc/lv_tlsf.c ****     return adjust;
 679              		.loc 1 520 5 is_stmt 1 view .LVU157
 521:Drivers/lvgl/src/misc/lv_tlsf.c **** }
 680              		.loc 1 521 1 is_stmt 0 view .LVU158
 681 0004 08BD     		pop	{r3, pc}
 682              	.LVL53:
 683              	.L41:
 684              	.LBB2:
 513:Drivers/lvgl/src/misc/lv_tlsf.c ****         const size_t aligned = align_up(size, align);
 685              		.loc 1 513 9 is_stmt 1 view .LVU159
 513:Drivers/lvgl/src/misc/lv_tlsf.c ****         const size_t aligned = align_up(size, align);
 686              		.loc 1 513 32 is_stmt 0 view .LVU160
 687 0006 FFF7FEFF 		bl	align_up
 688              	.LVL54:
 516:Drivers/lvgl/src/misc/lv_tlsf.c ****             adjust = tlsf_max(aligned, block_size_min);
 689              		.loc 1 516 9 is_stmt 1 view .LVU161
 516:Drivers/lvgl/src/misc/lv_tlsf.c ****             adjust = tlsf_max(aligned, block_size_min);
 690              		.loc 1 516 11 is_stmt 0 view .LVU162
 691 000a B0F5005F 		cmp	r0, #8192
 692 000e 03D2     		bcs	.L39
 517:Drivers/lvgl/src/misc/lv_tlsf.c ****         }
 693              		.loc 1 517 13 is_stmt 1 view .LVU163
 517:Drivers/lvgl/src/misc/lv_tlsf.c ****         }
 694              		.loc 1 517 20 is_stmt 0 view .LVU164
 695 0010 0C28     		cmp	r0, #12
 696 0012 38BF     		it	cc
 697 0014 0C20     		movcc	r0, #12
 698              	.LVL55:
 517:Drivers/lvgl/src/misc/lv_tlsf.c ****         }
 699              		.loc 1 517 20 view .LVU165
 700 0016 F5E7     		b	.L38
 701              	.LVL56:
 702              	.L39:
 517:Drivers/lvgl/src/misc/lv_tlsf.c ****         }
 703              		.loc 1 517 20 view .LVU166
 704              	.LBE2:
 511:Drivers/lvgl/src/misc/lv_tlsf.c ****     if(size) {
 705              		.loc 1 511 12 view .LVU167
 706 0018 0020     		movs	r0, #0
 707              	.LVL57:
ARM GAS  /var/folders/0z/tsy30v1j4xl4_7kw94k978ww0000gn/T//ccByTTYT.s 			page 22


 511:Drivers/lvgl/src/misc/lv_tlsf.c ****     if(size) {
 708              		.loc 1 511 12 view .LVU168
 709 001a F3E7     		b	.L38
 710              		.cfi_endproc
 711              	.LFE23:
 713              		.section	.text.remove_free_block,"ax",%progbits
 714              		.align	1
 715              		.syntax unified
 716              		.thumb
 717              		.thumb_func
 719              	remove_free_block:
 720              	.LVL58:
 721              	.LFB27:
 522:Drivers/lvgl/src/misc/lv_tlsf.c **** 
 523:Drivers/lvgl/src/misc/lv_tlsf.c **** /*
 524:Drivers/lvgl/src/misc/lv_tlsf.c **** ** TLSF utility functions. In most cases, these are direct translations of
 525:Drivers/lvgl/src/misc/lv_tlsf.c **** ** the documentation found in the white paper.
 526:Drivers/lvgl/src/misc/lv_tlsf.c **** */
 527:Drivers/lvgl/src/misc/lv_tlsf.c **** 
 528:Drivers/lvgl/src/misc/lv_tlsf.c **** static void mapping_insert(size_t size, int * fli, int * sli)
 529:Drivers/lvgl/src/misc/lv_tlsf.c **** {
 530:Drivers/lvgl/src/misc/lv_tlsf.c ****     int fl, sl;
 531:Drivers/lvgl/src/misc/lv_tlsf.c ****     if(size < SMALL_BLOCK_SIZE) {
 532:Drivers/lvgl/src/misc/lv_tlsf.c ****         /* Store small blocks in first list. */
 533:Drivers/lvgl/src/misc/lv_tlsf.c ****         fl = 0;
 534:Drivers/lvgl/src/misc/lv_tlsf.c ****         sl = tlsf_cast(int, size) / (SMALL_BLOCK_SIZE / SL_INDEX_COUNT);
 535:Drivers/lvgl/src/misc/lv_tlsf.c ****     }
 536:Drivers/lvgl/src/misc/lv_tlsf.c ****     else {
 537:Drivers/lvgl/src/misc/lv_tlsf.c ****         fl = tlsf_fls_sizet(size);
 538:Drivers/lvgl/src/misc/lv_tlsf.c ****         sl = tlsf_cast(int, size >> (fl - SL_INDEX_COUNT_LOG2)) ^ (1 << SL_INDEX_COUNT_LOG2);
 539:Drivers/lvgl/src/misc/lv_tlsf.c ****         fl -= (FL_INDEX_SHIFT - 1);
 540:Drivers/lvgl/src/misc/lv_tlsf.c ****     }
 541:Drivers/lvgl/src/misc/lv_tlsf.c ****     *fli = fl;
 542:Drivers/lvgl/src/misc/lv_tlsf.c ****     *sli = sl;
 543:Drivers/lvgl/src/misc/lv_tlsf.c **** }
 544:Drivers/lvgl/src/misc/lv_tlsf.c **** 
 545:Drivers/lvgl/src/misc/lv_tlsf.c **** /* This version rounds up to the next block size (for allocations) */
 546:Drivers/lvgl/src/misc/lv_tlsf.c **** static void mapping_search(size_t size, int * fli, int * sli)
 547:Drivers/lvgl/src/misc/lv_tlsf.c **** {
 548:Drivers/lvgl/src/misc/lv_tlsf.c ****     if(size >= SMALL_BLOCK_SIZE) {
 549:Drivers/lvgl/src/misc/lv_tlsf.c ****         const size_t round = (1 << (tlsf_fls_sizet(size) - SL_INDEX_COUNT_LOG2)) - 1;
 550:Drivers/lvgl/src/misc/lv_tlsf.c ****         size += round;
 551:Drivers/lvgl/src/misc/lv_tlsf.c ****     }
 552:Drivers/lvgl/src/misc/lv_tlsf.c ****     mapping_insert(size, fli, sli);
 553:Drivers/lvgl/src/misc/lv_tlsf.c **** }
 554:Drivers/lvgl/src/misc/lv_tlsf.c **** 
 555:Drivers/lvgl/src/misc/lv_tlsf.c **** static block_header_t * search_suitable_block(control_t * control, int * fli, int * sli)
 556:Drivers/lvgl/src/misc/lv_tlsf.c **** {
 557:Drivers/lvgl/src/misc/lv_tlsf.c ****     int fl = *fli;
 558:Drivers/lvgl/src/misc/lv_tlsf.c ****     int sl = *sli;
 559:Drivers/lvgl/src/misc/lv_tlsf.c **** 
 560:Drivers/lvgl/src/misc/lv_tlsf.c ****     /*
 561:Drivers/lvgl/src/misc/lv_tlsf.c ****     ** First, search for a block in the list associated with the given
 562:Drivers/lvgl/src/misc/lv_tlsf.c ****     ** fl/sl index.
 563:Drivers/lvgl/src/misc/lv_tlsf.c ****     */
 564:Drivers/lvgl/src/misc/lv_tlsf.c ****     unsigned int sl_map = control->sl_bitmap[fl] & (~0U << sl);
 565:Drivers/lvgl/src/misc/lv_tlsf.c ****     if(!sl_map) {
ARM GAS  /var/folders/0z/tsy30v1j4xl4_7kw94k978ww0000gn/T//ccByTTYT.s 			page 23


 566:Drivers/lvgl/src/misc/lv_tlsf.c ****         /* No block exists. Search in the next largest first-level list. */
 567:Drivers/lvgl/src/misc/lv_tlsf.c ****         const unsigned int fl_map = control->fl_bitmap & (~0U << (fl + 1));
 568:Drivers/lvgl/src/misc/lv_tlsf.c ****         if(!fl_map) {
 569:Drivers/lvgl/src/misc/lv_tlsf.c ****             /* No free blocks available, memory has been exhausted. */
 570:Drivers/lvgl/src/misc/lv_tlsf.c ****             return 0;
 571:Drivers/lvgl/src/misc/lv_tlsf.c ****         }
 572:Drivers/lvgl/src/misc/lv_tlsf.c **** 
 573:Drivers/lvgl/src/misc/lv_tlsf.c ****         fl = tlsf_ffs(fl_map);
 574:Drivers/lvgl/src/misc/lv_tlsf.c ****         *fli = fl;
 575:Drivers/lvgl/src/misc/lv_tlsf.c ****         sl_map = control->sl_bitmap[fl];
 576:Drivers/lvgl/src/misc/lv_tlsf.c ****     }
 577:Drivers/lvgl/src/misc/lv_tlsf.c ****     tlsf_assert(sl_map && "internal error - second level bitmap is null");
 578:Drivers/lvgl/src/misc/lv_tlsf.c ****     sl = tlsf_ffs(sl_map);
 579:Drivers/lvgl/src/misc/lv_tlsf.c ****     *sli = sl;
 580:Drivers/lvgl/src/misc/lv_tlsf.c **** 
 581:Drivers/lvgl/src/misc/lv_tlsf.c ****     /* Return the first block in the free list. */
 582:Drivers/lvgl/src/misc/lv_tlsf.c ****     return control->blocks[fl][sl];
 583:Drivers/lvgl/src/misc/lv_tlsf.c **** }
 584:Drivers/lvgl/src/misc/lv_tlsf.c **** 
 585:Drivers/lvgl/src/misc/lv_tlsf.c **** /* Remove a free block from the free list.*/
 586:Drivers/lvgl/src/misc/lv_tlsf.c **** static void remove_free_block(control_t * control, block_header_t * block, int fl, int sl)
 587:Drivers/lvgl/src/misc/lv_tlsf.c **** {
 722              		.loc 1 587 1 is_stmt 1 view -0
 723              		.cfi_startproc
 724              		@ args = 0, pretend = 0, frame = 0
 725              		@ frame_needed = 0, uses_anonymous_args = 0
 726              		.loc 1 587 1 is_stmt 0 view .LVU170
 727 0000 00B5     		push	{lr}
 728              		.cfi_def_cfa_offset 4
 729              		.cfi_offset 14, -4
 730 0002 8646     		mov	lr, r0
 731 0004 9446     		mov	ip, r2
 588:Drivers/lvgl/src/misc/lv_tlsf.c ****     block_header_t * prev = block->prev_free;
 732              		.loc 1 588 5 is_stmt 1 view .LVU171
 733              		.loc 1 588 22 is_stmt 0 view .LVU172
 734 0006 CA68     		ldr	r2, [r1, #12]
 735              	.LVL59:
 589:Drivers/lvgl/src/misc/lv_tlsf.c ****     block_header_t * next = block->next_free;
 736              		.loc 1 589 5 is_stmt 1 view .LVU173
 737              		.loc 1 589 22 is_stmt 0 view .LVU174
 738 0008 8868     		ldr	r0, [r1, #8]
 739              	.LVL60:
 590:Drivers/lvgl/src/misc/lv_tlsf.c ****     tlsf_assert(prev && "prev_free field can not be null");
 740              		.loc 1 590 5 is_stmt 1 view .LVU175
 741              		.loc 1 590 5 view .LVU176
 742 000a 5AB1     		cbz	r2, .L44
 743              		.loc 1 590 5 discriminator 2 view .LVU177
 591:Drivers/lvgl/src/misc/lv_tlsf.c ****     tlsf_assert(next && "next_free field can not be null");
 744              		.loc 1 591 5 discriminator 2 view .LVU178
 745              		.loc 1 591 5 discriminator 2 view .LVU179
 746 000c 58B1     		cbz	r0, .L46
 747              		.loc 1 591 5 discriminator 2 view .LVU180
 592:Drivers/lvgl/src/misc/lv_tlsf.c ****     next->prev_free = prev;
 748              		.loc 1 592 5 discriminator 2 view .LVU181
 749              		.loc 1 592 21 is_stmt 0 discriminator 2 view .LVU182
 750 000e C260     		str	r2, [r0, #12]
 593:Drivers/lvgl/src/misc/lv_tlsf.c ****     prev->next_free = next;
ARM GAS  /var/folders/0z/tsy30v1j4xl4_7kw94k978ww0000gn/T//ccByTTYT.s 			page 24


 751              		.loc 1 593 5 is_stmt 1 discriminator 2 view .LVU183
 752              		.loc 1 593 21 is_stmt 0 discriminator 2 view .LVU184
 753 0010 9060     		str	r0, [r2, #8]
 594:Drivers/lvgl/src/misc/lv_tlsf.c **** 
 595:Drivers/lvgl/src/misc/lv_tlsf.c ****     /* If this block is the head of the free list, set new head. */
 596:Drivers/lvgl/src/misc/lv_tlsf.c ****     if(control->blocks[fl][sl] == block) {
 754              		.loc 1 596 5 is_stmt 1 discriminator 2 view .LVU185
 755              		.loc 1 596 27 is_stmt 0 discriminator 2 view .LVU186
 756 0012 03EB4C12 		add	r2, r3, ip, lsl #5
 757              	.LVL61:
 758              		.loc 1 596 27 discriminator 2 view .LVU187
 759 0016 0C32     		adds	r2, r2, #12
 760 0018 5EF82220 		ldr	r2, [lr, r2, lsl #2]
 761              		.loc 1 596 7 discriminator 2 view .LVU188
 762 001c 8A42     		cmp	r2, r1
 763 001e 03D0     		beq	.L49
 764              	.LVL62:
 765              	.L42:
 597:Drivers/lvgl/src/misc/lv_tlsf.c ****         control->blocks[fl][sl] = next;
 598:Drivers/lvgl/src/misc/lv_tlsf.c **** 
 599:Drivers/lvgl/src/misc/lv_tlsf.c ****         /* If the new head is null, clear the bitmap. */
 600:Drivers/lvgl/src/misc/lv_tlsf.c ****         if(next == &control->block_null) {
 601:Drivers/lvgl/src/misc/lv_tlsf.c ****             control->sl_bitmap[fl] &= ~(1U << sl);
 602:Drivers/lvgl/src/misc/lv_tlsf.c **** 
 603:Drivers/lvgl/src/misc/lv_tlsf.c ****             /* If the second bitmap is now empty, clear the fl bitmap. */
 604:Drivers/lvgl/src/misc/lv_tlsf.c ****             if(!control->sl_bitmap[fl]) {
 605:Drivers/lvgl/src/misc/lv_tlsf.c ****                 control->fl_bitmap &= ~(1U << fl);
 606:Drivers/lvgl/src/misc/lv_tlsf.c ****             }
 607:Drivers/lvgl/src/misc/lv_tlsf.c ****         }
 608:Drivers/lvgl/src/misc/lv_tlsf.c ****     }
 609:Drivers/lvgl/src/misc/lv_tlsf.c **** }
 766              		.loc 1 609 1 view .LVU189
 767 0020 5DF804FB 		ldr	pc, [sp], #4
 768              	.LVL63:
 769              	.L44:
 590:Drivers/lvgl/src/misc/lv_tlsf.c ****     tlsf_assert(next && "next_free field can not be null");
 770              		.loc 1 590 5 is_stmt 1 discriminator 1 view .LVU190
 590:Drivers/lvgl/src/misc/lv_tlsf.c ****     tlsf_assert(next && "next_free field can not be null");
 771              		.loc 1 590 5 discriminator 1 view .LVU191
 590:Drivers/lvgl/src/misc/lv_tlsf.c ****     tlsf_assert(next && "next_free field can not be null");
 772              		.loc 1 590 5 discriminator 1 view .LVU192
 590:Drivers/lvgl/src/misc/lv_tlsf.c ****     tlsf_assert(next && "next_free field can not be null");
 773              		.loc 1 590 5 discriminator 1 view .LVU193
 590:Drivers/lvgl/src/misc/lv_tlsf.c ****     tlsf_assert(next && "next_free field can not be null");
 774              		.loc 1 590 5 discriminator 1 view .LVU194
 775 0024 FEE7     		b	.L44
 776              	.L46:
 591:Drivers/lvgl/src/misc/lv_tlsf.c ****     next->prev_free = prev;
 777              		.loc 1 591 5 discriminator 2 view .LVU195
 591:Drivers/lvgl/src/misc/lv_tlsf.c ****     next->prev_free = prev;
 778              		.loc 1 591 5 discriminator 2 view .LVU196
 591:Drivers/lvgl/src/misc/lv_tlsf.c ****     next->prev_free = prev;
 779              		.loc 1 591 5 discriminator 2 view .LVU197
 591:Drivers/lvgl/src/misc/lv_tlsf.c ****     next->prev_free = prev;
 780              		.loc 1 591 5 discriminator 2 view .LVU198
 591:Drivers/lvgl/src/misc/lv_tlsf.c ****     next->prev_free = prev;
 781              		.loc 1 591 5 discriminator 2 view .LVU199
ARM GAS  /var/folders/0z/tsy30v1j4xl4_7kw94k978ww0000gn/T//ccByTTYT.s 			page 25


 782 0026 FEE7     		b	.L46
 783              	.LVL64:
 784              	.L49:
 597:Drivers/lvgl/src/misc/lv_tlsf.c ****         control->blocks[fl][sl] = next;
 785              		.loc 1 597 9 view .LVU200
 597:Drivers/lvgl/src/misc/lv_tlsf.c ****         control->blocks[fl][sl] = next;
 786              		.loc 1 597 33 is_stmt 0 view .LVU201
 787 0028 03EB4C12 		add	r2, r3, ip, lsl #5
 788 002c 0C32     		adds	r2, r2, #12
 789 002e 4EF82200 		str	r0, [lr, r2, lsl #2]
 600:Drivers/lvgl/src/misc/lv_tlsf.c ****             control->sl_bitmap[fl] &= ~(1U << sl);
 790              		.loc 1 600 9 is_stmt 1 view .LVU202
 600:Drivers/lvgl/src/misc/lv_tlsf.c ****             control->sl_bitmap[fl] &= ~(1U << sl);
 791              		.loc 1 600 11 is_stmt 0 view .LVU203
 792 0032 8645     		cmp	lr, r0
 793 0034 F4D1     		bne	.L42
 601:Drivers/lvgl/src/misc/lv_tlsf.c **** 
 794              		.loc 1 601 13 is_stmt 1 view .LVU204
 601:Drivers/lvgl/src/misc/lv_tlsf.c **** 
 795              		.loc 1 601 44 is_stmt 0 view .LVU205
 796 0036 0121     		movs	r1, #1
 797              	.LVL65:
 601:Drivers/lvgl/src/misc/lv_tlsf.c **** 
 798              		.loc 1 601 44 view .LVU206
 799 0038 9940     		lsls	r1, r1, r3
 601:Drivers/lvgl/src/misc/lv_tlsf.c **** 
 800              		.loc 1 601 36 view .LVU207
 801 003a 0CF10402 		add	r2, ip, #4
 802 003e 0EEB8202 		add	r2, lr, r2, lsl #2
 803 0042 5368     		ldr	r3, [r2, #4]
 804              	.LVL66:
 601:Drivers/lvgl/src/misc/lv_tlsf.c **** 
 805              		.loc 1 601 36 view .LVU208
 806 0044 23EA0103 		bic	r3, r3, r1
 807 0048 5360     		str	r3, [r2, #4]
 604:Drivers/lvgl/src/misc/lv_tlsf.c ****                 control->fl_bitmap &= ~(1U << fl);
 808              		.loc 1 604 13 is_stmt 1 view .LVU209
 604:Drivers/lvgl/src/misc/lv_tlsf.c ****                 control->fl_bitmap &= ~(1U << fl);
 809              		.loc 1 604 15 is_stmt 0 view .LVU210
 810 004a 002B     		cmp	r3, #0
 811 004c E8D1     		bne	.L42
 605:Drivers/lvgl/src/misc/lv_tlsf.c ****             }
 812              		.loc 1 605 17 is_stmt 1 view .LVU211
 605:Drivers/lvgl/src/misc/lv_tlsf.c ****             }
 813              		.loc 1 605 44 is_stmt 0 view .LVU212
 814 004e 0122     		movs	r2, #1
 815 0050 02FA0CF2 		lsl	r2, r2, ip
 605:Drivers/lvgl/src/misc/lv_tlsf.c ****             }
 816              		.loc 1 605 36 view .LVU213
 817 0054 DEF81030 		ldr	r3, [lr, #16]
 818 0058 23EA0203 		bic	r3, r3, r2
 819 005c CEF81030 		str	r3, [lr, #16]
 820              		.loc 1 609 1 view .LVU214
 821 0060 DEE7     		b	.L42
 822              		.cfi_endproc
 823              	.LFE27:
 825              		.section	.text.insert_free_block,"ax",%progbits
ARM GAS  /var/folders/0z/tsy30v1j4xl4_7kw94k978ww0000gn/T//ccByTTYT.s 			page 26


 826              		.align	1
 827              		.syntax unified
 828              		.thumb
 829              		.thumb_func
 831              	insert_free_block:
 832              	.LVL67:
 833              	.LFB28:
 610:Drivers/lvgl/src/misc/lv_tlsf.c **** 
 611:Drivers/lvgl/src/misc/lv_tlsf.c **** /* Insert a free block into the free block list. */
 612:Drivers/lvgl/src/misc/lv_tlsf.c **** static void insert_free_block(control_t * control, block_header_t * block, int fl, int sl)
 613:Drivers/lvgl/src/misc/lv_tlsf.c **** {
 834              		.loc 1 613 1 is_stmt 1 view -0
 835              		.cfi_startproc
 836              		@ args = 0, pretend = 0, frame = 0
 837              		@ frame_needed = 0, uses_anonymous_args = 0
 838              		.loc 1 613 1 is_stmt 0 view .LVU216
 839 0000 2DE9F041 		push	{r4, r5, r6, r7, r8, lr}
 840              		.cfi_def_cfa_offset 24
 841              		.cfi_offset 4, -24
 842              		.cfi_offset 5, -20
 843              		.cfi_offset 6, -16
 844              		.cfi_offset 7, -12
 845              		.cfi_offset 8, -8
 846              		.cfi_offset 14, -4
 847 0004 1F46     		mov	r7, r3
 614:Drivers/lvgl/src/misc/lv_tlsf.c ****     block_header_t * current = control->blocks[fl][sl];
 848              		.loc 1 614 5 is_stmt 1 view .LVU217
 849              		.loc 1 614 22 is_stmt 0 view .LVU218
 850 0006 03EB4213 		add	r3, r3, r2, lsl #5
 851              	.LVL68:
 852              		.loc 1 614 22 view .LVU219
 853 000a 0C33     		adds	r3, r3, #12
 854 000c 50F82330 		ldr	r3, [r0, r3, lsl #2]
 855              	.LVL69:
 615:Drivers/lvgl/src/misc/lv_tlsf.c ****     tlsf_assert(current && "free list cannot have a null entry");
 856              		.loc 1 615 5 is_stmt 1 view .LVU220
 857              		.loc 1 615 5 view .LVU221
 858 0010 83B1     		cbz	r3, .L52
 859 0012 0546     		mov	r5, r0
 860 0014 0C46     		mov	r4, r1
 861 0016 1646     		mov	r6, r2
 862              		.loc 1 615 5 discriminator 2 view .LVU222
 616:Drivers/lvgl/src/misc/lv_tlsf.c ****     tlsf_assert(block && "cannot insert a null entry into the free list");
 863              		.loc 1 616 5 discriminator 2 view .LVU223
 864              		.loc 1 616 5 discriminator 2 view .LVU224
 865 0018 69B1     		cbz	r1, .L54
 866              		.loc 1 616 5 discriminator 2 view .LVU225
 617:Drivers/lvgl/src/misc/lv_tlsf.c ****     block->next_free = current;
 867              		.loc 1 617 5 discriminator 2 view .LVU226
 868              		.loc 1 617 22 is_stmt 0 discriminator 2 view .LVU227
 869 001a 8B60     		str	r3, [r1, #8]
 618:Drivers/lvgl/src/misc/lv_tlsf.c ****     block->prev_free = &control->block_null;
 870              		.loc 1 618 5 is_stmt 1 discriminator 2 view .LVU228
 871              		.loc 1 618 22 is_stmt 0 discriminator 2 view .LVU229
 872 001c C860     		str	r0, [r1, #12]
 619:Drivers/lvgl/src/misc/lv_tlsf.c ****     current->prev_free = block;
 873              		.loc 1 619 5 is_stmt 1 discriminator 2 view .LVU230
ARM GAS  /var/folders/0z/tsy30v1j4xl4_7kw94k978ww0000gn/T//ccByTTYT.s 			page 27


 874              		.loc 1 619 24 is_stmt 0 discriminator 2 view .LVU231
 875 001e D960     		str	r1, [r3, #12]
 620:Drivers/lvgl/src/misc/lv_tlsf.c **** 
 621:Drivers/lvgl/src/misc/lv_tlsf.c ****     tlsf_assert(block_to_ptr(block) == align_ptr(block_to_ptr(block), ALIGN_SIZE)
 876              		.loc 1 621 5 is_stmt 1 discriminator 2 view .LVU232
 877              		.loc 1 621 5 discriminator 2 view .LVU233
 878 0020 0846     		mov	r0, r1
 879              	.LVL70:
 880              		.loc 1 621 5 is_stmt 0 discriminator 2 view .LVU234
 881 0022 FFF7FEFF 		bl	block_to_ptr
 882              	.LVL71:
 883              		.loc 1 621 5 discriminator 2 view .LVU235
 884 0026 8046     		mov	r8, r0
 885 0028 0421     		movs	r1, #4
 886 002a FFF7FEFF 		bl	align_ptr
 887              	.LVL72:
 888 002e 8045     		cmp	r8, r0
 889 0030 02D0     		beq	.L55
 890              	.L56:
 891              		.loc 1 621 5 is_stmt 1 discriminator 3 view .LVU236
 892              		.loc 1 621 5 discriminator 3 view .LVU237
 893              		.loc 1 621 5 discriminator 3 view .LVU238
 894              		.loc 1 621 5 discriminator 3 view .LVU239
 895              		.loc 1 621 5 discriminator 3 view .LVU240
 896 0032 FEE7     		b	.L56
 897              	.LVL73:
 898              	.L52:
 615:Drivers/lvgl/src/misc/lv_tlsf.c ****     tlsf_assert(block && "cannot insert a null entry into the free list");
 899              		.loc 1 615 5 discriminator 1 view .LVU241
 615:Drivers/lvgl/src/misc/lv_tlsf.c ****     tlsf_assert(block && "cannot insert a null entry into the free list");
 900              		.loc 1 615 5 discriminator 1 view .LVU242
 615:Drivers/lvgl/src/misc/lv_tlsf.c ****     tlsf_assert(block && "cannot insert a null entry into the free list");
 901              		.loc 1 615 5 discriminator 1 view .LVU243
 615:Drivers/lvgl/src/misc/lv_tlsf.c ****     tlsf_assert(block && "cannot insert a null entry into the free list");
 902              		.loc 1 615 5 discriminator 1 view .LVU244
 615:Drivers/lvgl/src/misc/lv_tlsf.c ****     tlsf_assert(block && "cannot insert a null entry into the free list");
 903              		.loc 1 615 5 discriminator 1 view .LVU245
 904 0034 FEE7     		b	.L52
 905              	.L54:
 616:Drivers/lvgl/src/misc/lv_tlsf.c ****     block->next_free = current;
 906              		.loc 1 616 5 discriminator 2 view .LVU246
 616:Drivers/lvgl/src/misc/lv_tlsf.c ****     block->next_free = current;
 907              		.loc 1 616 5 discriminator 2 view .LVU247
 616:Drivers/lvgl/src/misc/lv_tlsf.c ****     block->next_free = current;
 908              		.loc 1 616 5 discriminator 2 view .LVU248
 616:Drivers/lvgl/src/misc/lv_tlsf.c ****     block->next_free = current;
 909              		.loc 1 616 5 discriminator 2 view .LVU249
 616:Drivers/lvgl/src/misc/lv_tlsf.c ****     block->next_free = current;
 910              		.loc 1 616 5 discriminator 2 view .LVU250
 911 0036 FEE7     		b	.L54
 912              	.LVL74:
 913              	.L55:
 914              		.loc 1 621 5 discriminator 2 view .LVU251
 622:Drivers/lvgl/src/misc/lv_tlsf.c ****                 && "block not aligned properly");
 623:Drivers/lvgl/src/misc/lv_tlsf.c ****     /*
 624:Drivers/lvgl/src/misc/lv_tlsf.c ****     ** Insert the new block at the head of the list, and mark the first-
 625:Drivers/lvgl/src/misc/lv_tlsf.c ****     ** and second-level bitmaps appropriately.
ARM GAS  /var/folders/0z/tsy30v1j4xl4_7kw94k978ww0000gn/T//ccByTTYT.s 			page 28


 626:Drivers/lvgl/src/misc/lv_tlsf.c ****     */
 627:Drivers/lvgl/src/misc/lv_tlsf.c ****     control->blocks[fl][sl] = block;
 915              		.loc 1 627 5 discriminator 2 view .LVU252
 916              		.loc 1 627 29 is_stmt 0 discriminator 2 view .LVU253
 917 0038 07EB4613 		add	r3, r7, r6, lsl #5
 918 003c 0C33     		adds	r3, r3, #12
 919 003e 45F82340 		str	r4, [r5, r3, lsl #2]
 628:Drivers/lvgl/src/misc/lv_tlsf.c ****     control->fl_bitmap |= (1U << fl);
 920              		.loc 1 628 5 is_stmt 1 discriminator 2 view .LVU254
 921              		.loc 1 628 31 is_stmt 0 discriminator 2 view .LVU255
 922 0042 0123     		movs	r3, #1
 923 0044 03FA06F1 		lsl	r1, r3, r6
 924              		.loc 1 628 24 discriminator 2 view .LVU256
 925 0048 2A69     		ldr	r2, [r5, #16]
 926 004a 0A43     		orrs	r2, r2, r1
 927 004c 2A61     		str	r2, [r5, #16]
 629:Drivers/lvgl/src/misc/lv_tlsf.c ****     control->sl_bitmap[fl] |= (1U << sl);
 928              		.loc 1 629 5 is_stmt 1 discriminator 2 view .LVU257
 929              		.loc 1 629 35 is_stmt 0 discriminator 2 view .LVU258
 930 004e BB40     		lsls	r3, r3, r7
 931              		.loc 1 629 28 discriminator 2 view .LVU259
 932 0050 0436     		adds	r6, r6, #4
 933              	.LVL75:
 934              		.loc 1 629 28 discriminator 2 view .LVU260
 935 0052 05EB8605 		add	r5, r5, r6, lsl #2
 936              	.LVL76:
 937              		.loc 1 629 28 discriminator 2 view .LVU261
 938 0056 6A68     		ldr	r2, [r5, #4]
 939 0058 1A43     		orrs	r2, r2, r3
 940 005a 6A60     		str	r2, [r5, #4]
 630:Drivers/lvgl/src/misc/lv_tlsf.c **** }
 941              		.loc 1 630 1 discriminator 2 view .LVU262
 942 005c BDE8F081 		pop	{r4, r5, r6, r7, r8, pc}
 943              		.loc 1 630 1 discriminator 2 view .LVU263
 944              		.cfi_endproc
 945              	.LFE28:
 947              		.section	.text.block_can_split,"ax",%progbits
 948              		.align	1
 949              		.syntax unified
 950              		.thumb
 951              		.thumb_func
 953              	block_can_split:
 954              	.LVL77:
 955              	.LFB31:
 631:Drivers/lvgl/src/misc/lv_tlsf.c **** 
 632:Drivers/lvgl/src/misc/lv_tlsf.c **** /* Remove a given block from the free list. */
 633:Drivers/lvgl/src/misc/lv_tlsf.c **** static void block_remove(control_t * control, block_header_t * block)
 634:Drivers/lvgl/src/misc/lv_tlsf.c **** {
 635:Drivers/lvgl/src/misc/lv_tlsf.c ****     int fl, sl;
 636:Drivers/lvgl/src/misc/lv_tlsf.c ****     mapping_insert(block_size(block), &fl, &sl);
 637:Drivers/lvgl/src/misc/lv_tlsf.c ****     remove_free_block(control, block, fl, sl);
 638:Drivers/lvgl/src/misc/lv_tlsf.c **** }
 639:Drivers/lvgl/src/misc/lv_tlsf.c **** 
 640:Drivers/lvgl/src/misc/lv_tlsf.c **** /* Insert a given block into the free list. */
 641:Drivers/lvgl/src/misc/lv_tlsf.c **** static void block_insert(control_t * control, block_header_t * block)
 642:Drivers/lvgl/src/misc/lv_tlsf.c **** {
 643:Drivers/lvgl/src/misc/lv_tlsf.c ****     int fl, sl;
ARM GAS  /var/folders/0z/tsy30v1j4xl4_7kw94k978ww0000gn/T//ccByTTYT.s 			page 29


 644:Drivers/lvgl/src/misc/lv_tlsf.c ****     mapping_insert(block_size(block), &fl, &sl);
 645:Drivers/lvgl/src/misc/lv_tlsf.c ****     insert_free_block(control, block, fl, sl);
 646:Drivers/lvgl/src/misc/lv_tlsf.c **** }
 647:Drivers/lvgl/src/misc/lv_tlsf.c **** 
 648:Drivers/lvgl/src/misc/lv_tlsf.c **** static int block_can_split(block_header_t * block, size_t size)
 649:Drivers/lvgl/src/misc/lv_tlsf.c **** {
 956              		.loc 1 649 1 is_stmt 1 view -0
 957              		.cfi_startproc
 958              		@ args = 0, pretend = 0, frame = 0
 959              		@ frame_needed = 0, uses_anonymous_args = 0
 960              		.loc 1 649 1 is_stmt 0 view .LVU265
 961 0000 10B5     		push	{r4, lr}
 962              		.cfi_def_cfa_offset 8
 963              		.cfi_offset 4, -8
 964              		.cfi_offset 14, -4
 965 0002 0C46     		mov	r4, r1
 650:Drivers/lvgl/src/misc/lv_tlsf.c ****     return block_size(block) >= sizeof(block_header_t) + size;
 966              		.loc 1 650 5 is_stmt 1 view .LVU266
 967              		.loc 1 650 12 is_stmt 0 view .LVU267
 968 0004 FFF7FEFF 		bl	block_size
 969              	.LVL78:
 970              		.loc 1 650 56 view .LVU268
 971 0008 1034     		adds	r4, r4, #16
 972              	.LVL79:
 651:Drivers/lvgl/src/misc/lv_tlsf.c **** }
 973              		.loc 1 651 1 view .LVU269
 974 000a A042     		cmp	r0, r4
 975 000c 34BF     		ite	cc
 976 000e 0020     		movcc	r0, #0
 977 0010 0120     		movcs	r0, #1
 978 0012 10BD     		pop	{r4, pc}
 979              		.loc 1 651 1 view .LVU270
 980              		.cfi_endproc
 981              	.LFE31:
 983              		.section	.text.block_split,"ax",%progbits
 984              		.align	1
 985              		.syntax unified
 986              		.thumb
 987              		.thumb_func
 989              	block_split:
 990              	.LVL80:
 991              	.LFB32:
 652:Drivers/lvgl/src/misc/lv_tlsf.c **** 
 653:Drivers/lvgl/src/misc/lv_tlsf.c **** /* Split a block into two, the second of which is free. */
 654:Drivers/lvgl/src/misc/lv_tlsf.c **** static block_header_t * block_split(block_header_t * block, size_t size)
 655:Drivers/lvgl/src/misc/lv_tlsf.c **** {
 992              		.loc 1 655 1 is_stmt 1 view -0
 993              		.cfi_startproc
 994              		@ args = 0, pretend = 0, frame = 0
 995              		@ frame_needed = 0, uses_anonymous_args = 0
 996              		.loc 1 655 1 is_stmt 0 view .LVU272
 997 0000 2DE9F843 		push	{r3, r4, r5, r6, r7, r8, r9, lr}
 998              		.cfi_def_cfa_offset 32
 999              		.cfi_offset 3, -32
 1000              		.cfi_offset 4, -28
 1001              		.cfi_offset 5, -24
 1002              		.cfi_offset 6, -20
ARM GAS  /var/folders/0z/tsy30v1j4xl4_7kw94k978ww0000gn/T//ccByTTYT.s 			page 30


 1003              		.cfi_offset 7, -16
 1004              		.cfi_offset 8, -12
 1005              		.cfi_offset 9, -8
 1006              		.cfi_offset 14, -4
 1007 0004 0746     		mov	r7, r0
 1008 0006 0C46     		mov	r4, r1
 656:Drivers/lvgl/src/misc/lv_tlsf.c ****     /* Calculate the amount of space left in the remaining block. */
 657:Drivers/lvgl/src/misc/lv_tlsf.c ****     block_header_t * remaining =
 1009              		.loc 1 657 5 is_stmt 1 view .LVU273
 658:Drivers/lvgl/src/misc/lv_tlsf.c ****         offset_to_block(block_to_ptr(block), size - block_header_overhead);
 1010              		.loc 1 658 25 is_stmt 0 view .LVU274
 1011 0008 FFF7FEFF 		bl	block_to_ptr
 1012              	.LVL81:
 1013              		.loc 1 658 9 view .LVU275
 1014 000c 211F     		subs	r1, r4, #4
 1015 000e FFF7FEFF 		bl	offset_to_block
 1016              	.LVL82:
 1017 0012 0546     		mov	r5, r0
 1018              	.LVL83:
 659:Drivers/lvgl/src/misc/lv_tlsf.c **** 
 660:Drivers/lvgl/src/misc/lv_tlsf.c ****     const size_t remain_size = block_size(block) - (size + block_header_overhead);
 1019              		.loc 1 660 5 is_stmt 1 view .LVU276
 1020              		.loc 1 660 32 is_stmt 0 view .LVU277
 1021 0014 3846     		mov	r0, r7
 1022              	.LVL84:
 1023              		.loc 1 660 32 view .LVU278
 1024 0016 FFF7FEFF 		bl	block_size
 1025              	.LVL85:
 1026 001a 0646     		mov	r6, r0
 1027              		.loc 1 660 50 view .LVU279
 1028 001c 031B     		subs	r3, r0, r4
 1029              		.loc 1 660 18 view .LVU280
 1030 001e A3F10409 		sub	r9, r3, #4
 1031              	.LVL86:
 661:Drivers/lvgl/src/misc/lv_tlsf.c **** 
 662:Drivers/lvgl/src/misc/lv_tlsf.c ****     tlsf_assert(block_to_ptr(remaining) == align_ptr(block_to_ptr(remaining), ALIGN_SIZE)
 1032              		.loc 1 662 5 is_stmt 1 view .LVU281
 1033              		.loc 1 662 5 view .LVU282
 1034 0022 2846     		mov	r0, r5
 1035 0024 FFF7FEFF 		bl	block_to_ptr
 1036              	.LVL87:
 1037 0028 8046     		mov	r8, r0
 1038 002a 0421     		movs	r1, #4
 1039 002c FFF7FEFF 		bl	align_ptr
 1040              	.LVL88:
 1041 0030 8045     		cmp	r8, r0
 1042 0032 00D0     		beq	.L61
 1043              	.L62:
 1044              		.loc 1 662 5 discriminator 1 view .LVU283
 1045              		.loc 1 662 5 discriminator 1 view .LVU284
 1046              		.loc 1 662 5 discriminator 1 view .LVU285
 1047              		.loc 1 662 5 discriminator 1 view .LVU286
 1048              		.loc 1 662 5 discriminator 1 view .LVU287
 1049 0034 FEE7     		b	.L62
 1050              	.L61:
 1051              		.loc 1 662 5 discriminator 2 view .LVU288
 663:Drivers/lvgl/src/misc/lv_tlsf.c ****                 && "remaining block not aligned properly");
ARM GAS  /var/folders/0z/tsy30v1j4xl4_7kw94k978ww0000gn/T//ccByTTYT.s 			page 31


 664:Drivers/lvgl/src/misc/lv_tlsf.c **** 
 665:Drivers/lvgl/src/misc/lv_tlsf.c ****     tlsf_assert(block_size(block) == remain_size + size + block_header_overhead);
 1052              		.loc 1 665 5 discriminator 2 view .LVU289
 1053              		.loc 1 665 5 discriminator 2 view .LVU290
 1054 0036 04EB0903 		add	r3, r4, r9
 1055 003a 0433     		adds	r3, r3, #4
 1056 003c 9E42     		cmp	r6, r3
 1057 003e 00D0     		beq	.L63
 1058              	.L64:
 1059              		.loc 1 665 5 discriminator 2 view .LVU291
 1060              		.loc 1 665 5 discriminator 2 view .LVU292
 1061              		.loc 1 665 5 discriminator 2 view .LVU293
 1062              		.loc 1 665 5 discriminator 2 view .LVU294
 1063              		.loc 1 665 5 discriminator 2 view .LVU295
 1064 0040 FEE7     		b	.L64
 1065              	.L63:
 1066              		.loc 1 665 5 discriminator 2 view .LVU296
 666:Drivers/lvgl/src/misc/lv_tlsf.c ****     block_set_size(remaining, remain_size);
 1067              		.loc 1 666 5 discriminator 2 view .LVU297
 1068 0042 4946     		mov	r1, r9
 1069 0044 2846     		mov	r0, r5
 1070 0046 FFF7FEFF 		bl	block_set_size
 1071              	.LVL89:
 667:Drivers/lvgl/src/misc/lv_tlsf.c ****     tlsf_assert(block_size(remaining) >= block_size_min && "block split with invalid size");
 1072              		.loc 1 667 5 discriminator 2 view .LVU298
 1073              		.loc 1 667 5 discriminator 2 view .LVU299
 1074 004a 2846     		mov	r0, r5
 1075 004c FFF7FEFF 		bl	block_size
 1076              	.LVL90:
 1077 0050 0B28     		cmp	r0, #11
 1078 0052 00D8     		bhi	.L65
 1079              	.L66:
 1080              		.loc 1 667 5 discriminator 3 view .LVU300
 1081              		.loc 1 667 5 discriminator 3 view .LVU301
 1082              		.loc 1 667 5 discriminator 3 view .LVU302
 1083              		.loc 1 667 5 discriminator 3 view .LVU303
 1084              		.loc 1 667 5 discriminator 3 view .LVU304
 1085 0054 FEE7     		b	.L66
 1086              	.L65:
 1087              		.loc 1 667 5 discriminator 4 view .LVU305
 668:Drivers/lvgl/src/misc/lv_tlsf.c **** 
 669:Drivers/lvgl/src/misc/lv_tlsf.c ****     block_set_size(block, size);
 1088              		.loc 1 669 5 discriminator 4 view .LVU306
 1089 0056 2146     		mov	r1, r4
 1090 0058 3846     		mov	r0, r7
 1091 005a FFF7FEFF 		bl	block_set_size
 1092              	.LVL91:
 670:Drivers/lvgl/src/misc/lv_tlsf.c ****     block_mark_as_free(remaining);
 1093              		.loc 1 670 5 discriminator 4 view .LVU307
 1094 005e 2846     		mov	r0, r5
 1095 0060 FFF7FEFF 		bl	block_mark_as_free
 1096              	.LVL92:
 671:Drivers/lvgl/src/misc/lv_tlsf.c **** 
 672:Drivers/lvgl/src/misc/lv_tlsf.c ****     return remaining;
 1097              		.loc 1 672 5 discriminator 4 view .LVU308
 673:Drivers/lvgl/src/misc/lv_tlsf.c **** }
 1098              		.loc 1 673 1 is_stmt 0 discriminator 4 view .LVU309
ARM GAS  /var/folders/0z/tsy30v1j4xl4_7kw94k978ww0000gn/T//ccByTTYT.s 			page 32


 1099 0064 2846     		mov	r0, r5
 1100 0066 BDE8F883 		pop	{r3, r4, r5, r6, r7, r8, r9, pc}
 1101              		.loc 1 673 1 discriminator 4 view .LVU310
 1102              		.cfi_endproc
 1103              	.LFE32:
 1105              		.section	.text.block_absorb,"ax",%progbits
 1106              		.align	1
 1107              		.syntax unified
 1108              		.thumb
 1109              		.thumb_func
 1111              	block_absorb:
 1112              	.LVL93:
 1113              	.LFB33:
 674:Drivers/lvgl/src/misc/lv_tlsf.c **** 
 675:Drivers/lvgl/src/misc/lv_tlsf.c **** /* Absorb a free block's storage into an adjacent previous free block. */
 676:Drivers/lvgl/src/misc/lv_tlsf.c **** static block_header_t * block_absorb(block_header_t * prev, block_header_t * block)
 677:Drivers/lvgl/src/misc/lv_tlsf.c **** {
 1114              		.loc 1 677 1 is_stmt 1 view -0
 1115              		.cfi_startproc
 1116              		@ args = 0, pretend = 0, frame = 0
 1117              		@ frame_needed = 0, uses_anonymous_args = 0
 1118              		.loc 1 677 1 is_stmt 0 view .LVU312
 1119 0000 38B5     		push	{r3, r4, r5, lr}
 1120              		.cfi_def_cfa_offset 16
 1121              		.cfi_offset 3, -16
 1122              		.cfi_offset 4, -12
 1123              		.cfi_offset 5, -8
 1124              		.cfi_offset 14, -4
 1125 0002 0446     		mov	r4, r0
 1126 0004 0D46     		mov	r5, r1
 678:Drivers/lvgl/src/misc/lv_tlsf.c ****     tlsf_assert(!block_is_last(prev) && "previous block can't be last");
 1127              		.loc 1 678 5 is_stmt 1 view .LVU313
 1128              		.loc 1 678 5 view .LVU314
 1129 0006 FFF7FEFF 		bl	block_is_last
 1130              	.LVL94:
 1131              		.loc 1 678 5 is_stmt 0 view .LVU315
 1132 000a 00B1     		cbz	r0, .L69
 1133              	.L70:
 1134              		.loc 1 678 5 is_stmt 1 discriminator 1 view .LVU316
 1135              		.loc 1 678 5 discriminator 1 view .LVU317
 1136              		.loc 1 678 5 discriminator 1 view .LVU318
 1137              		.loc 1 678 5 discriminator 1 view .LVU319
 1138              		.loc 1 678 5 discriminator 1 view .LVU320
 1139 000c FEE7     		b	.L70
 1140              	.L69:
 1141              		.loc 1 678 5 discriminator 2 view .LVU321
 679:Drivers/lvgl/src/misc/lv_tlsf.c ****     /* Note: Leaves flags untouched. */
 680:Drivers/lvgl/src/misc/lv_tlsf.c ****     prev->size += block_size(block) + block_header_overhead;
 1142              		.loc 1 680 5 discriminator 2 view .LVU322
 1143              		.loc 1 680 19 is_stmt 0 discriminator 2 view .LVU323
 1144 000e 2846     		mov	r0, r5
 1145 0010 FFF7FEFF 		bl	block_size
 1146              	.LVL95:
 1147              		.loc 1 680 37 discriminator 2 view .LVU324
 1148 0014 021D     		adds	r2, r0, #4
 1149              		.loc 1 680 16 discriminator 2 view .LVU325
 1150 0016 6368     		ldr	r3, [r4, #4]
ARM GAS  /var/folders/0z/tsy30v1j4xl4_7kw94k978ww0000gn/T//ccByTTYT.s 			page 33


 1151 0018 1344     		add	r3, r3, r2
 1152 001a 6360     		str	r3, [r4, #4]
 681:Drivers/lvgl/src/misc/lv_tlsf.c ****     block_link_next(prev);
 1153              		.loc 1 681 5 is_stmt 1 discriminator 2 view .LVU326
 1154 001c 2046     		mov	r0, r4
 1155 001e FFF7FEFF 		bl	block_link_next
 1156              	.LVL96:
 682:Drivers/lvgl/src/misc/lv_tlsf.c ****     return prev;
 1157              		.loc 1 682 5 discriminator 2 view .LVU327
 683:Drivers/lvgl/src/misc/lv_tlsf.c **** }
 1158              		.loc 1 683 1 is_stmt 0 discriminator 2 view .LVU328
 1159 0022 2046     		mov	r0, r4
 1160 0024 38BD     		pop	{r3, r4, r5, pc}
 1161              		.loc 1 683 1 discriminator 2 view .LVU329
 1162              		.cfi_endproc
 1163              	.LFE33:
 1165              		.section	.text.control_constructor,"ax",%progbits
 1166              		.align	1
 1167              		.syntax unified
 1168              		.thumb
 1169              		.thumb_func
 1171              	control_constructor:
 1172              	.LVL97:
 1173              	.LFB41:
 684:Drivers/lvgl/src/misc/lv_tlsf.c **** 
 685:Drivers/lvgl/src/misc/lv_tlsf.c **** /* Merge a just-freed block with an adjacent previous free block. */
 686:Drivers/lvgl/src/misc/lv_tlsf.c **** static block_header_t * block_merge_prev(control_t * control, block_header_t * block)
 687:Drivers/lvgl/src/misc/lv_tlsf.c **** {
 688:Drivers/lvgl/src/misc/lv_tlsf.c ****     if(block_is_prev_free(block)) {
 689:Drivers/lvgl/src/misc/lv_tlsf.c ****         block_header_t * prev = block_prev(block);
 690:Drivers/lvgl/src/misc/lv_tlsf.c ****         tlsf_assert(prev && "prev physical block can't be null");
 691:Drivers/lvgl/src/misc/lv_tlsf.c ****         tlsf_assert(block_is_free(prev) && "prev block is not free though marked as such");
 692:Drivers/lvgl/src/misc/lv_tlsf.c ****         block_remove(control, prev);
 693:Drivers/lvgl/src/misc/lv_tlsf.c ****         block = block_absorb(prev, block);
 694:Drivers/lvgl/src/misc/lv_tlsf.c ****     }
 695:Drivers/lvgl/src/misc/lv_tlsf.c **** 
 696:Drivers/lvgl/src/misc/lv_tlsf.c ****     return block;
 697:Drivers/lvgl/src/misc/lv_tlsf.c **** }
 698:Drivers/lvgl/src/misc/lv_tlsf.c **** 
 699:Drivers/lvgl/src/misc/lv_tlsf.c **** /* Merge a just-freed block with an adjacent free block. */
 700:Drivers/lvgl/src/misc/lv_tlsf.c **** static block_header_t * block_merge_next(control_t * control, block_header_t * block)
 701:Drivers/lvgl/src/misc/lv_tlsf.c **** {
 702:Drivers/lvgl/src/misc/lv_tlsf.c ****     block_header_t * next = block_next(block);
 703:Drivers/lvgl/src/misc/lv_tlsf.c ****     tlsf_assert(next && "next physical block can't be null");
 704:Drivers/lvgl/src/misc/lv_tlsf.c **** 
 705:Drivers/lvgl/src/misc/lv_tlsf.c ****     if(block_is_free(next)) {
 706:Drivers/lvgl/src/misc/lv_tlsf.c ****         tlsf_assert(!block_is_last(block) && "previous block can't be last");
 707:Drivers/lvgl/src/misc/lv_tlsf.c ****         block_remove(control, next);
 708:Drivers/lvgl/src/misc/lv_tlsf.c ****         block = block_absorb(block, next);
 709:Drivers/lvgl/src/misc/lv_tlsf.c ****     }
 710:Drivers/lvgl/src/misc/lv_tlsf.c **** 
 711:Drivers/lvgl/src/misc/lv_tlsf.c ****     return block;
 712:Drivers/lvgl/src/misc/lv_tlsf.c **** }
 713:Drivers/lvgl/src/misc/lv_tlsf.c **** 
 714:Drivers/lvgl/src/misc/lv_tlsf.c **** /* Trim any trailing block space off the end of a block, return to pool. */
 715:Drivers/lvgl/src/misc/lv_tlsf.c **** static void block_trim_free(control_t * control, block_header_t * block, size_t size)
 716:Drivers/lvgl/src/misc/lv_tlsf.c **** {
ARM GAS  /var/folders/0z/tsy30v1j4xl4_7kw94k978ww0000gn/T//ccByTTYT.s 			page 34


 717:Drivers/lvgl/src/misc/lv_tlsf.c ****     tlsf_assert(block_is_free(block) && "block must be free");
 718:Drivers/lvgl/src/misc/lv_tlsf.c ****     if(block_can_split(block, size)) {
 719:Drivers/lvgl/src/misc/lv_tlsf.c ****         block_header_t * remaining_block = block_split(block, size);
 720:Drivers/lvgl/src/misc/lv_tlsf.c ****         block_link_next(block);
 721:Drivers/lvgl/src/misc/lv_tlsf.c ****         block_set_prev_free(remaining_block);
 722:Drivers/lvgl/src/misc/lv_tlsf.c ****         block_insert(control, remaining_block);
 723:Drivers/lvgl/src/misc/lv_tlsf.c ****     }
 724:Drivers/lvgl/src/misc/lv_tlsf.c **** }
 725:Drivers/lvgl/src/misc/lv_tlsf.c **** 
 726:Drivers/lvgl/src/misc/lv_tlsf.c **** /* Trim any trailing block space off the end of a used block, return to pool. */
 727:Drivers/lvgl/src/misc/lv_tlsf.c **** static void block_trim_used(control_t * control, block_header_t * block, size_t size)
 728:Drivers/lvgl/src/misc/lv_tlsf.c **** {
 729:Drivers/lvgl/src/misc/lv_tlsf.c ****     tlsf_assert(!block_is_free(block) && "block must be used");
 730:Drivers/lvgl/src/misc/lv_tlsf.c ****     if(block_can_split(block, size)) {
 731:Drivers/lvgl/src/misc/lv_tlsf.c ****         /* If the next block is free, we must coalesce. */
 732:Drivers/lvgl/src/misc/lv_tlsf.c ****         block_header_t * remaining_block = block_split(block, size);
 733:Drivers/lvgl/src/misc/lv_tlsf.c ****         block_set_prev_used(remaining_block);
 734:Drivers/lvgl/src/misc/lv_tlsf.c **** 
 735:Drivers/lvgl/src/misc/lv_tlsf.c ****         remaining_block = block_merge_next(control, remaining_block);
 736:Drivers/lvgl/src/misc/lv_tlsf.c ****         block_insert(control, remaining_block);
 737:Drivers/lvgl/src/misc/lv_tlsf.c ****     }
 738:Drivers/lvgl/src/misc/lv_tlsf.c **** }
 739:Drivers/lvgl/src/misc/lv_tlsf.c **** 
 740:Drivers/lvgl/src/misc/lv_tlsf.c **** static block_header_t * block_trim_free_leading(control_t * control, block_header_t * block, size_t
 741:Drivers/lvgl/src/misc/lv_tlsf.c **** {
 742:Drivers/lvgl/src/misc/lv_tlsf.c ****     block_header_t * remaining_block = block;
 743:Drivers/lvgl/src/misc/lv_tlsf.c ****     if(block_can_split(block, size)) {
 744:Drivers/lvgl/src/misc/lv_tlsf.c ****         /* We want the 2nd block. */
 745:Drivers/lvgl/src/misc/lv_tlsf.c ****         remaining_block = block_split(block, size - block_header_overhead);
 746:Drivers/lvgl/src/misc/lv_tlsf.c ****         block_set_prev_free(remaining_block);
 747:Drivers/lvgl/src/misc/lv_tlsf.c **** 
 748:Drivers/lvgl/src/misc/lv_tlsf.c ****         block_link_next(block);
 749:Drivers/lvgl/src/misc/lv_tlsf.c ****         block_insert(control, block);
 750:Drivers/lvgl/src/misc/lv_tlsf.c ****     }
 751:Drivers/lvgl/src/misc/lv_tlsf.c **** 
 752:Drivers/lvgl/src/misc/lv_tlsf.c ****     return remaining_block;
 753:Drivers/lvgl/src/misc/lv_tlsf.c **** }
 754:Drivers/lvgl/src/misc/lv_tlsf.c **** 
 755:Drivers/lvgl/src/misc/lv_tlsf.c **** static block_header_t * block_locate_free(control_t * control, size_t size)
 756:Drivers/lvgl/src/misc/lv_tlsf.c **** {
 757:Drivers/lvgl/src/misc/lv_tlsf.c ****     int fl = 0, sl = 0;
 758:Drivers/lvgl/src/misc/lv_tlsf.c ****     block_header_t * block = 0;
 759:Drivers/lvgl/src/misc/lv_tlsf.c **** 
 760:Drivers/lvgl/src/misc/lv_tlsf.c ****     if(size) {
 761:Drivers/lvgl/src/misc/lv_tlsf.c ****         mapping_search(size, &fl, &sl);
 762:Drivers/lvgl/src/misc/lv_tlsf.c **** 
 763:Drivers/lvgl/src/misc/lv_tlsf.c ****         /*
 764:Drivers/lvgl/src/misc/lv_tlsf.c ****         ** mapping_search can futz with the size, so for excessively large sizes it can sometimes w
 765:Drivers/lvgl/src/misc/lv_tlsf.c ****         ** with indices that are off the end of the block array.
 766:Drivers/lvgl/src/misc/lv_tlsf.c ****         ** So, we protect against that here, since this is the only callsite of mapping_search.
 767:Drivers/lvgl/src/misc/lv_tlsf.c ****         ** Note that we don't need to check sl, since it comes from a modulo operation that guarant
 768:Drivers/lvgl/src/misc/lv_tlsf.c ****         */
 769:Drivers/lvgl/src/misc/lv_tlsf.c ****         if(fl < FL_INDEX_COUNT) {
 770:Drivers/lvgl/src/misc/lv_tlsf.c ****             block = search_suitable_block(control, &fl, &sl);
 771:Drivers/lvgl/src/misc/lv_tlsf.c ****         }
 772:Drivers/lvgl/src/misc/lv_tlsf.c ****     }
 773:Drivers/lvgl/src/misc/lv_tlsf.c **** 
ARM GAS  /var/folders/0z/tsy30v1j4xl4_7kw94k978ww0000gn/T//ccByTTYT.s 			page 35


 774:Drivers/lvgl/src/misc/lv_tlsf.c ****     if(block) {
 775:Drivers/lvgl/src/misc/lv_tlsf.c ****         tlsf_assert(block_size(block) >= size);
 776:Drivers/lvgl/src/misc/lv_tlsf.c ****         remove_free_block(control, block, fl, sl);
 777:Drivers/lvgl/src/misc/lv_tlsf.c ****     }
 778:Drivers/lvgl/src/misc/lv_tlsf.c **** 
 779:Drivers/lvgl/src/misc/lv_tlsf.c ****     return block;
 780:Drivers/lvgl/src/misc/lv_tlsf.c **** }
 781:Drivers/lvgl/src/misc/lv_tlsf.c **** 
 782:Drivers/lvgl/src/misc/lv_tlsf.c **** static void * block_prepare_used(control_t * control, block_header_t * block, size_t size)
 783:Drivers/lvgl/src/misc/lv_tlsf.c **** {
 784:Drivers/lvgl/src/misc/lv_tlsf.c ****     void * p = 0;
 785:Drivers/lvgl/src/misc/lv_tlsf.c ****     if(block) {
 786:Drivers/lvgl/src/misc/lv_tlsf.c ****         tlsf_assert(size && "size must be non-zero");
 787:Drivers/lvgl/src/misc/lv_tlsf.c ****         block_trim_free(control, block, size);
 788:Drivers/lvgl/src/misc/lv_tlsf.c ****         block_mark_as_used(block);
 789:Drivers/lvgl/src/misc/lv_tlsf.c ****         p = block_to_ptr(block);
 790:Drivers/lvgl/src/misc/lv_tlsf.c ****     }
 791:Drivers/lvgl/src/misc/lv_tlsf.c ****     return p;
 792:Drivers/lvgl/src/misc/lv_tlsf.c **** }
 793:Drivers/lvgl/src/misc/lv_tlsf.c **** 
 794:Drivers/lvgl/src/misc/lv_tlsf.c **** /* Clear structure and point all empty lists at the null block. */
 795:Drivers/lvgl/src/misc/lv_tlsf.c **** static void control_constructor(control_t * control)
 796:Drivers/lvgl/src/misc/lv_tlsf.c **** {
 1174              		.loc 1 796 1 is_stmt 1 view -0
 1175              		.cfi_startproc
 1176              		@ args = 0, pretend = 0, frame = 0
 1177              		@ frame_needed = 0, uses_anonymous_args = 0
 1178              		@ link register save eliminated.
 797:Drivers/lvgl/src/misc/lv_tlsf.c ****     int i, j;
 1179              		.loc 1 797 5 view .LVU331
 798:Drivers/lvgl/src/misc/lv_tlsf.c **** 
 799:Drivers/lvgl/src/misc/lv_tlsf.c ****     control->block_null.next_free = &control->block_null;
 1180              		.loc 1 799 5 view .LVU332
 1181              		.loc 1 799 35 is_stmt 0 view .LVU333
 1182 0000 8060     		str	r0, [r0, #8]
 800:Drivers/lvgl/src/misc/lv_tlsf.c ****     control->block_null.prev_free = &control->block_null;
 1183              		.loc 1 800 5 is_stmt 1 view .LVU334
 1184              		.loc 1 800 35 is_stmt 0 view .LVU335
 1185 0002 C060     		str	r0, [r0, #12]
 801:Drivers/lvgl/src/misc/lv_tlsf.c **** 
 802:Drivers/lvgl/src/misc/lv_tlsf.c ****     control->fl_bitmap = 0;
 1186              		.loc 1 802 5 is_stmt 1 view .LVU336
 1187              		.loc 1 802 24 is_stmt 0 view .LVU337
 1188 0004 0021     		movs	r1, #0
 1189 0006 0161     		str	r1, [r0, #16]
 803:Drivers/lvgl/src/misc/lv_tlsf.c ****     for(i = 0; i < FL_INDEX_COUNT; ++i) {
 1190              		.loc 1 803 5 is_stmt 1 view .LVU338
 1191              	.LVL98:
 1192              		.loc 1 803 5 is_stmt 0 view .LVU339
 1193 0008 08E0     		b	.L73
 1194              	.LVL99:
 1195              	.L75:
 804:Drivers/lvgl/src/misc/lv_tlsf.c ****         control->sl_bitmap[i] = 0;
 805:Drivers/lvgl/src/misc/lv_tlsf.c ****         for(j = 0; j < SL_INDEX_COUNT; ++j) {
 806:Drivers/lvgl/src/misc/lv_tlsf.c ****             control->blocks[i][j] = &control->block_null;
 1196              		.loc 1 806 13 is_stmt 1 discriminator 3 view .LVU340
 1197              		.loc 1 806 35 is_stmt 0 discriminator 3 view .LVU341
ARM GAS  /var/folders/0z/tsy30v1j4xl4_7kw94k978ww0000gn/T//ccByTTYT.s 			page 36


 1198 000a 03EB4112 		add	r2, r3, r1, lsl #5
 1199 000e 0C32     		adds	r2, r2, #12
 1200 0010 40F82200 		str	r0, [r0, r2, lsl #2]
 805:Drivers/lvgl/src/misc/lv_tlsf.c ****             control->blocks[i][j] = &control->block_null;
 1201              		.loc 1 805 40 is_stmt 1 discriminator 3 view .LVU342
 1202 0014 0133     		adds	r3, r3, #1
 1203              	.LVL100:
 1204              	.L74:
 805:Drivers/lvgl/src/misc/lv_tlsf.c ****             control->blocks[i][j] = &control->block_null;
 1205              		.loc 1 805 22 discriminator 1 view .LVU343
 1206 0016 1F2B     		cmp	r3, #31
 1207 0018 F7DD     		ble	.L75
 803:Drivers/lvgl/src/misc/lv_tlsf.c ****     for(i = 0; i < FL_INDEX_COUNT; ++i) {
 1208              		.loc 1 803 36 discriminator 2 view .LVU344
 1209 001a 0131     		adds	r1, r1, #1
 1210              	.LVL101:
 1211              	.L73:
 803:Drivers/lvgl/src/misc/lv_tlsf.c ****     for(i = 0; i < FL_INDEX_COUNT; ++i) {
 1212              		.loc 1 803 18 discriminator 1 view .LVU345
 1213 001c 0629     		cmp	r1, #6
 1214 001e 05DC     		bgt	.L77
 804:Drivers/lvgl/src/misc/lv_tlsf.c ****         control->sl_bitmap[i] = 0;
 1215              		.loc 1 804 9 view .LVU346
 804:Drivers/lvgl/src/misc/lv_tlsf.c ****         control->sl_bitmap[i] = 0;
 1216              		.loc 1 804 31 is_stmt 0 view .LVU347
 1217 0020 0A1D     		adds	r2, r1, #4
 1218 0022 00EB8202 		add	r2, r0, r2, lsl #2
 1219 0026 0023     		movs	r3, #0
 1220 0028 5360     		str	r3, [r2, #4]
 805:Drivers/lvgl/src/misc/lv_tlsf.c ****             control->blocks[i][j] = &control->block_null;
 1221              		.loc 1 805 9 is_stmt 1 view .LVU348
 1222              	.LVL102:
 805:Drivers/lvgl/src/misc/lv_tlsf.c ****             control->blocks[i][j] = &control->block_null;
 1223              		.loc 1 805 9 is_stmt 0 view .LVU349
 1224 002a F4E7     		b	.L74
 1225              	.LVL103:
 1226              	.L77:
 807:Drivers/lvgl/src/misc/lv_tlsf.c ****         }
 808:Drivers/lvgl/src/misc/lv_tlsf.c ****     }
 809:Drivers/lvgl/src/misc/lv_tlsf.c **** }
 1227              		.loc 1 809 1 view .LVU350
 1228 002c 7047     		bx	lr
 1229              		.cfi_endproc
 1230              	.LFE41:
 1232              		.section	.text.integrity_walker,"ax",%progbits
 1233              		.align	1
 1234              		.syntax unified
 1235              		.thumb
 1236              		.thumb_func
 1238              	integrity_walker:
 1239              	.LVL104:
 1240              	.LFB42:
 810:Drivers/lvgl/src/misc/lv_tlsf.c **** 
 811:Drivers/lvgl/src/misc/lv_tlsf.c **** /*
 812:Drivers/lvgl/src/misc/lv_tlsf.c **** ** Debugging utilities.
 813:Drivers/lvgl/src/misc/lv_tlsf.c **** */
 814:Drivers/lvgl/src/misc/lv_tlsf.c **** 
ARM GAS  /var/folders/0z/tsy30v1j4xl4_7kw94k978ww0000gn/T//ccByTTYT.s 			page 37


 815:Drivers/lvgl/src/misc/lv_tlsf.c **** typedef struct integrity_t {
 816:Drivers/lvgl/src/misc/lv_tlsf.c ****     int prev_status;
 817:Drivers/lvgl/src/misc/lv_tlsf.c ****     int status;
 818:Drivers/lvgl/src/misc/lv_tlsf.c **** } integrity_t;
 819:Drivers/lvgl/src/misc/lv_tlsf.c **** 
 820:Drivers/lvgl/src/misc/lv_tlsf.c **** #define tlsf_insist(x) { tlsf_assert(x); if (!(x)) { status--; } }
 821:Drivers/lvgl/src/misc/lv_tlsf.c **** 
 822:Drivers/lvgl/src/misc/lv_tlsf.c **** static void integrity_walker(void * ptr, size_t size, int used, void * user)
 823:Drivers/lvgl/src/misc/lv_tlsf.c **** {
 1241              		.loc 1 823 1 is_stmt 1 view -0
 1242              		.cfi_startproc
 1243              		@ args = 0, pretend = 0, frame = 0
 1244              		@ frame_needed = 0, uses_anonymous_args = 0
 1245              		.loc 1 823 1 is_stmt 0 view .LVU352
 1246 0000 2DE9F041 		push	{r4, r5, r6, r7, r8, lr}
 1247              		.cfi_def_cfa_offset 24
 1248              		.cfi_offset 4, -24
 1249              		.cfi_offset 5, -20
 1250              		.cfi_offset 6, -16
 1251              		.cfi_offset 7, -12
 1252              		.cfi_offset 8, -8
 1253              		.cfi_offset 14, -4
 1254 0004 0F46     		mov	r7, r1
 1255 0006 1D46     		mov	r5, r3
 824:Drivers/lvgl/src/misc/lv_tlsf.c ****     block_header_t * block = block_from_ptr(ptr);
 1256              		.loc 1 824 5 is_stmt 1 view .LVU353
 1257              		.loc 1 824 30 is_stmt 0 view .LVU354
 1258 0008 FFF7FEFF 		bl	block_from_ptr
 1259              	.LVL105:
 1260              		.loc 1 824 30 view .LVU355
 1261 000c 0446     		mov	r4, r0
 1262              	.LVL106:
 825:Drivers/lvgl/src/misc/lv_tlsf.c ****     integrity_t * integ = tlsf_cast(integrity_t *, user);
 1263              		.loc 1 825 5 is_stmt 1 view .LVU356
 826:Drivers/lvgl/src/misc/lv_tlsf.c ****     const int this_prev_status = block_is_prev_free(block) ? 1 : 0;
 1264              		.loc 1 826 5 view .LVU357
 1265              		.loc 1 826 34 is_stmt 0 view .LVU358
 1266 000e FFF7FEFF 		bl	block_is_prev_free
 1267              	.LVL107:
 1268              		.loc 1 826 64 view .LVU359
 1269 0012 061E     		subs	r6, r0, #0
 1270 0014 18BF     		it	ne
 1271 0016 0126     		movne	r6, #1
 1272              	.LVL108:
 827:Drivers/lvgl/src/misc/lv_tlsf.c ****     const int this_status = block_is_free(block) ? 1 : 0;
 1273              		.loc 1 827 5 is_stmt 1 view .LVU360
 1274              		.loc 1 827 29 is_stmt 0 view .LVU361
 1275 0018 2046     		mov	r0, r4
 1276 001a FFF7FEFF 		bl	block_is_free
 1277              	.LVL109:
 1278              		.loc 1 827 54 view .LVU362
 1279 001e B0F10008 		subs	r8, r0, #0
 1280 0022 18BF     		it	ne
 1281 0024 4FF00108 		movne	r8, #1
 1282              	.LVL110:
 828:Drivers/lvgl/src/misc/lv_tlsf.c ****     const size_t this_block_size = block_size(block);
 1283              		.loc 1 828 5 is_stmt 1 view .LVU363
ARM GAS  /var/folders/0z/tsy30v1j4xl4_7kw94k978ww0000gn/T//ccByTTYT.s 			page 38


 1284              		.loc 1 828 36 is_stmt 0 view .LVU364
 1285 0028 2046     		mov	r0, r4
 1286 002a FFF7FEFF 		bl	block_size
 1287              	.LVL111:
 829:Drivers/lvgl/src/misc/lv_tlsf.c **** 
 830:Drivers/lvgl/src/misc/lv_tlsf.c ****     int status = 0;
 1288              		.loc 1 830 5 is_stmt 1 view .LVU365
 831:Drivers/lvgl/src/misc/lv_tlsf.c ****     LV_UNUSED(used);
 1289              		.loc 1 831 5 view .LVU366
 832:Drivers/lvgl/src/misc/lv_tlsf.c ****     tlsf_insist(integ->prev_status == this_prev_status && "prev status incorrect");
 1290              		.loc 1 832 5 view .LVU367
 1291              		.loc 1 832 5 view .LVU368
 1292 002e 2B68     		ldr	r3, [r5]
 1293 0030 B342     		cmp	r3, r6
 1294 0032 00D0     		beq	.L79
 1295              	.L80:
 1296              		.loc 1 832 5 discriminator 1 view .LVU369
 1297              		.loc 1 832 5 discriminator 1 view .LVU370
 1298              		.loc 1 832 5 discriminator 1 view .LVU371
 1299              		.loc 1 832 5 discriminator 1 view .LVU372
 1300              		.loc 1 832 5 discriminator 1 view .LVU373
 1301 0034 FEE7     		b	.L80
 1302              	.L79:
 1303              		.loc 1 832 5 discriminator 5 view .LVU374
 1304              		.loc 1 832 5 discriminator 5 view .LVU375
 1305              		.loc 1 832 83 discriminator 5 view .LVU376
 833:Drivers/lvgl/src/misc/lv_tlsf.c ****     tlsf_insist(size == this_block_size && "block size incorrect");
 1306              		.loc 1 833 5 discriminator 5 view .LVU377
 1307              		.loc 1 833 5 discriminator 5 view .LVU378
 1308 0036 B842     		cmp	r0, r7
 1309 0038 00D0     		beq	.L81
 1310              	.L82:
 1311              		.loc 1 833 5 discriminator 2 view .LVU379
 1312              		.loc 1 833 5 discriminator 2 view .LVU380
 1313              		.loc 1 833 5 discriminator 2 view .LVU381
 1314              		.loc 1 833 5 discriminator 2 view .LVU382
 1315              		.loc 1 833 5 discriminator 2 view .LVU383
 1316 003a FEE7     		b	.L82
 1317              	.L81:
 1318              		.loc 1 833 5 discriminator 5 view .LVU384
 1319              		.loc 1 833 5 discriminator 5 view .LVU385
 1320              		.loc 1 833 67 discriminator 5 view .LVU386
 834:Drivers/lvgl/src/misc/lv_tlsf.c **** 
 835:Drivers/lvgl/src/misc/lv_tlsf.c ****     integ->prev_status = this_status;
 1321              		.loc 1 835 5 discriminator 5 view .LVU387
 1322              		.loc 1 835 24 is_stmt 0 discriminator 5 view .LVU388
 1323 003c C5F80080 		str	r8, [r5]
 836:Drivers/lvgl/src/misc/lv_tlsf.c ****     integ->status += status;
 1324              		.loc 1 836 5 is_stmt 1 discriminator 5 view .LVU389
 837:Drivers/lvgl/src/misc/lv_tlsf.c **** }
 1325              		.loc 1 837 1 is_stmt 0 discriminator 5 view .LVU390
 1326 0040 BDE8F081 		pop	{r4, r5, r6, r7, r8, pc}
 1327              		.loc 1 837 1 discriminator 5 view .LVU391
 1328              		.cfi_endproc
 1329              	.LFE42:
 1331              		.section	.text.default_walker,"ax",%progbits
 1332              		.align	1
ARM GAS  /var/folders/0z/tsy30v1j4xl4_7kw94k978ww0000gn/T//ccByTTYT.s 			page 39


 1333              		.syntax unified
 1334              		.thumb
 1335              		.thumb_func
 1337              	default_walker:
 1338              	.LVL112:
 1339              	.LFB44:
 838:Drivers/lvgl/src/misc/lv_tlsf.c **** 
 839:Drivers/lvgl/src/misc/lv_tlsf.c **** int lv_tlsf_check(lv_tlsf_t tlsf)
 840:Drivers/lvgl/src/misc/lv_tlsf.c **** {
 841:Drivers/lvgl/src/misc/lv_tlsf.c ****     int i, j;
 842:Drivers/lvgl/src/misc/lv_tlsf.c **** 
 843:Drivers/lvgl/src/misc/lv_tlsf.c ****     control_t * control = tlsf_cast(control_t *, tlsf);
 844:Drivers/lvgl/src/misc/lv_tlsf.c ****     int status = 0;
 845:Drivers/lvgl/src/misc/lv_tlsf.c **** 
 846:Drivers/lvgl/src/misc/lv_tlsf.c ****     /* Check that the free lists and bitmaps are accurate. */
 847:Drivers/lvgl/src/misc/lv_tlsf.c ****     for(i = 0; i < FL_INDEX_COUNT; ++i) {
 848:Drivers/lvgl/src/misc/lv_tlsf.c ****         for(j = 0; j < SL_INDEX_COUNT; ++j) {
 849:Drivers/lvgl/src/misc/lv_tlsf.c ****             const int fl_map = control->fl_bitmap & (1U << i);
 850:Drivers/lvgl/src/misc/lv_tlsf.c ****             const int sl_list = control->sl_bitmap[i];
 851:Drivers/lvgl/src/misc/lv_tlsf.c ****             const int sl_map = sl_list & (1U << j);
 852:Drivers/lvgl/src/misc/lv_tlsf.c ****             const block_header_t * block = control->blocks[i][j];
 853:Drivers/lvgl/src/misc/lv_tlsf.c **** 
 854:Drivers/lvgl/src/misc/lv_tlsf.c ****             /* Check that first- and second-level lists agree. */
 855:Drivers/lvgl/src/misc/lv_tlsf.c ****             if(!fl_map) {
 856:Drivers/lvgl/src/misc/lv_tlsf.c ****                 tlsf_insist(!sl_map && "second-level map must be null");
 857:Drivers/lvgl/src/misc/lv_tlsf.c ****             }
 858:Drivers/lvgl/src/misc/lv_tlsf.c **** 
 859:Drivers/lvgl/src/misc/lv_tlsf.c ****             if(!sl_map) {
 860:Drivers/lvgl/src/misc/lv_tlsf.c ****                 tlsf_insist(block == &control->block_null && "block list must be null");
 861:Drivers/lvgl/src/misc/lv_tlsf.c ****                 continue;
 862:Drivers/lvgl/src/misc/lv_tlsf.c ****             }
 863:Drivers/lvgl/src/misc/lv_tlsf.c **** 
 864:Drivers/lvgl/src/misc/lv_tlsf.c ****             /* Check that there is at least one free block. */
 865:Drivers/lvgl/src/misc/lv_tlsf.c ****             tlsf_insist(sl_list && "no free blocks in second-level map");
 866:Drivers/lvgl/src/misc/lv_tlsf.c ****             tlsf_insist(block != &control->block_null && "block should not be null");
 867:Drivers/lvgl/src/misc/lv_tlsf.c **** 
 868:Drivers/lvgl/src/misc/lv_tlsf.c ****             while(block != &control->block_null) {
 869:Drivers/lvgl/src/misc/lv_tlsf.c ****                 int fli, sli;
 870:Drivers/lvgl/src/misc/lv_tlsf.c ****                 tlsf_insist(block_is_free(block) && "block should be free");
 871:Drivers/lvgl/src/misc/lv_tlsf.c ****                 tlsf_insist(!block_is_prev_free(block) && "blocks should have coalesced");
 872:Drivers/lvgl/src/misc/lv_tlsf.c ****                 tlsf_insist(!block_is_free(block_next(block)) && "blocks should have coalesced");
 873:Drivers/lvgl/src/misc/lv_tlsf.c ****                 tlsf_insist(block_is_prev_free(block_next(block)) && "block should be free");
 874:Drivers/lvgl/src/misc/lv_tlsf.c ****                 tlsf_insist(block_size(block) >= block_size_min && "block not minimum size");
 875:Drivers/lvgl/src/misc/lv_tlsf.c **** 
 876:Drivers/lvgl/src/misc/lv_tlsf.c ****                 mapping_insert(block_size(block), &fli, &sli);
 877:Drivers/lvgl/src/misc/lv_tlsf.c ****                 tlsf_insist(fli == i && sli == j && "block size indexed in wrong list");
 878:Drivers/lvgl/src/misc/lv_tlsf.c ****                 block = block->next_free;
 879:Drivers/lvgl/src/misc/lv_tlsf.c ****             }
 880:Drivers/lvgl/src/misc/lv_tlsf.c ****         }
 881:Drivers/lvgl/src/misc/lv_tlsf.c ****     }
 882:Drivers/lvgl/src/misc/lv_tlsf.c **** 
 883:Drivers/lvgl/src/misc/lv_tlsf.c ****     return status;
 884:Drivers/lvgl/src/misc/lv_tlsf.c **** }
 885:Drivers/lvgl/src/misc/lv_tlsf.c **** 
 886:Drivers/lvgl/src/misc/lv_tlsf.c **** #undef tlsf_insist
 887:Drivers/lvgl/src/misc/lv_tlsf.c **** 
 888:Drivers/lvgl/src/misc/lv_tlsf.c **** static void default_walker(void * ptr, size_t size, int used, void * user)
ARM GAS  /var/folders/0z/tsy30v1j4xl4_7kw94k978ww0000gn/T//ccByTTYT.s 			page 40


 889:Drivers/lvgl/src/misc/lv_tlsf.c **** {
 1340              		.loc 1 889 1 is_stmt 1 view -0
 1341              		.cfi_startproc
 1342              		@ args = 0, pretend = 0, frame = 0
 1343              		@ frame_needed = 0, uses_anonymous_args = 0
 1344              		@ link register save eliminated.
 890:Drivers/lvgl/src/misc/lv_tlsf.c ****     LV_UNUSED(user);
 1345              		.loc 1 890 5 view .LVU393
 891:Drivers/lvgl/src/misc/lv_tlsf.c ****     printf("\t%p %s size: %x (%p)\n", ptr, used ? "used" : "free", (unsigned int)size, (void *)bloc
 1346              		.loc 1 891 5 view .LVU394
 1347              		.loc 1 891 5 view .LVU395
 1348              		.loc 1 891 5 view .LVU396
 892:Drivers/lvgl/src/misc/lv_tlsf.c **** }
 1349              		.loc 1 892 1 is_stmt 0 view .LVU397
 1350 0000 7047     		bx	lr
 1351              		.cfi_endproc
 1352              	.LFE44:
 1354              		.section	.text.tlsf_fls,"ax",%progbits
 1355              		.align	1
 1356              		.syntax unified
 1357              		.thumb
 1358              		.thumb_func
 1360              	tlsf_fls:
 1361              	.LVL113:
 1362              	.LFB2:
 102:Drivers/lvgl/src/misc/lv_tlsf.c ****     const int bit = word ? 32 - __builtin_clz(word) : 0;
 1363              		.loc 1 102 1 is_stmt 1 view -0
 1364              		.cfi_startproc
 1365              		@ args = 0, pretend = 0, frame = 0
 1366              		@ frame_needed = 0, uses_anonymous_args = 0
 1367              		@ link register save eliminated.
 103:Drivers/lvgl/src/misc/lv_tlsf.c ****     return bit - 1;
 1368              		.loc 1 103 5 view .LVU399
 103:Drivers/lvgl/src/misc/lv_tlsf.c ****     return bit - 1;
 1369              		.loc 1 103 53 is_stmt 0 view .LVU400
 1370 0000 28B1     		cbz	r0, .L87
 103:Drivers/lvgl/src/misc/lv_tlsf.c ****     return bit - 1;
 1371              		.loc 1 103 33 discriminator 1 view .LVU401
 1372 0002 B0FA80F0 		clz	r0, r0
 1373              	.LVL114:
 103:Drivers/lvgl/src/misc/lv_tlsf.c ****     return bit - 1;
 1374              		.loc 1 103 53 discriminator 1 view .LVU402
 1375 0006 C0F12000 		rsb	r0, r0, #32
 1376              	.L86:
 1377              	.LVL115:
 104:Drivers/lvgl/src/misc/lv_tlsf.c **** }
 1378              		.loc 1 104 5 is_stmt 1 discriminator 4 view .LVU403
 105:Drivers/lvgl/src/misc/lv_tlsf.c **** 
 1379              		.loc 1 105 1 is_stmt 0 discriminator 4 view .LVU404
 1380 000a 0138     		subs	r0, r0, #1
 1381              	.LVL116:
 105:Drivers/lvgl/src/misc/lv_tlsf.c **** 
 1382              		.loc 1 105 1 discriminator 4 view .LVU405
 1383 000c 7047     		bx	lr
 1384              	.LVL117:
 1385              	.L87:
 103:Drivers/lvgl/src/misc/lv_tlsf.c ****     return bit - 1;
ARM GAS  /var/folders/0z/tsy30v1j4xl4_7kw94k978ww0000gn/T//ccByTTYT.s 			page 41


 1386              		.loc 1 103 53 view .LVU406
 1387 000e 0020     		movs	r0, #0
 1388              	.LVL118:
 103:Drivers/lvgl/src/misc/lv_tlsf.c ****     return bit - 1;
 1389              		.loc 1 103 53 view .LVU407
 1390 0010 FBE7     		b	.L86
 1391              		.cfi_endproc
 1392              	.LFE2:
 1394              		.section	.text.mapping_insert,"ax",%progbits
 1395              		.align	1
 1396              		.syntax unified
 1397              		.thumb
 1398              		.thumb_func
 1400              	mapping_insert:
 1401              	.LVL119:
 1402              	.LFB24:
 529:Drivers/lvgl/src/misc/lv_tlsf.c ****     int fl, sl;
 1403              		.loc 1 529 1 is_stmt 1 view -0
 1404              		.cfi_startproc
 1405              		@ args = 0, pretend = 0, frame = 0
 1406              		@ frame_needed = 0, uses_anonymous_args = 0
 529:Drivers/lvgl/src/misc/lv_tlsf.c ****     int fl, sl;
 1407              		.loc 1 529 1 is_stmt 0 view .LVU409
 1408 0000 70B5     		push	{r4, r5, r6, lr}
 1409              		.cfi_def_cfa_offset 16
 1410              		.cfi_offset 4, -16
 1411              		.cfi_offset 5, -12
 1412              		.cfi_offset 6, -8
 1413              		.cfi_offset 14, -4
 1414 0002 0446     		mov	r4, r0
 1415 0004 0D46     		mov	r5, r1
 1416 0006 1646     		mov	r6, r2
 530:Drivers/lvgl/src/misc/lv_tlsf.c ****     if(size < SMALL_BLOCK_SIZE) {
 1417              		.loc 1 530 5 is_stmt 1 view .LVU410
 531:Drivers/lvgl/src/misc/lv_tlsf.c ****         /* Store small blocks in first list. */
 1418              		.loc 1 531 5 view .LVU411
 531:Drivers/lvgl/src/misc/lv_tlsf.c ****         /* Store small blocks in first list. */
 1419              		.loc 1 531 7 is_stmt 0 view .LVU412
 1420 0008 7F28     		cmp	r0, #127
 1421 000a 09D8     		bhi	.L89
 533:Drivers/lvgl/src/misc/lv_tlsf.c ****         sl = tlsf_cast(int, size) / (SMALL_BLOCK_SIZE / SL_INDEX_COUNT);
 1422              		.loc 1 533 9 is_stmt 1 view .LVU413
 1423              	.LVL120:
 534:Drivers/lvgl/src/misc/lv_tlsf.c ****     }
 1424              		.loc 1 534 9 view .LVU414
 534:Drivers/lvgl/src/misc/lv_tlsf.c ****     }
 1425              		.loc 1 534 12 is_stmt 0 view .LVU415
 1426 000c 0346     		mov	r3, r0
 1427 000e 0028     		cmp	r0, #0
 1428 0010 04DB     		blt	.L93
 1429              	.L90:
 534:Drivers/lvgl/src/misc/lv_tlsf.c ****     }
 1430              		.loc 1 534 12 view .LVU416
 1431 0012 9C10     		asrs	r4, r3, #2
 1432              	.LVL121:
 533:Drivers/lvgl/src/misc/lv_tlsf.c ****         sl = tlsf_cast(int, size) / (SMALL_BLOCK_SIZE / SL_INDEX_COUNT);
 1433              		.loc 1 533 12 view .LVU417
ARM GAS  /var/folders/0z/tsy30v1j4xl4_7kw94k978ww0000gn/T//ccByTTYT.s 			page 42


 1434 0014 0020     		movs	r0, #0
 1435              	.LVL122:
 1436              	.L91:
 541:Drivers/lvgl/src/misc/lv_tlsf.c ****     *sli = sl;
 1437              		.loc 1 541 5 is_stmt 1 view .LVU418
 541:Drivers/lvgl/src/misc/lv_tlsf.c ****     *sli = sl;
 1438              		.loc 1 541 10 is_stmt 0 view .LVU419
 1439 0016 2860     		str	r0, [r5]
 542:Drivers/lvgl/src/misc/lv_tlsf.c **** }
 1440              		.loc 1 542 5 is_stmt 1 view .LVU420
 542:Drivers/lvgl/src/misc/lv_tlsf.c **** }
 1441              		.loc 1 542 10 is_stmt 0 view .LVU421
 1442 0018 3460     		str	r4, [r6]
 543:Drivers/lvgl/src/misc/lv_tlsf.c **** 
 1443              		.loc 1 543 1 view .LVU422
 1444 001a 70BD     		pop	{r4, r5, r6, pc}
 1445              	.LVL123:
 1446              	.L93:
 534:Drivers/lvgl/src/misc/lv_tlsf.c ****     }
 1447              		.loc 1 534 12 view .LVU423
 1448 001c C31C     		adds	r3, r0, #3
 1449 001e F8E7     		b	.L90
 1450              	.LVL124:
 1451              	.L89:
 537:Drivers/lvgl/src/misc/lv_tlsf.c ****         sl = tlsf_cast(int, size >> (fl - SL_INDEX_COUNT_LOG2)) ^ (1 << SL_INDEX_COUNT_LOG2);
 1452              		.loc 1 537 9 is_stmt 1 view .LVU424
 537:Drivers/lvgl/src/misc/lv_tlsf.c ****         sl = tlsf_cast(int, size >> (fl - SL_INDEX_COUNT_LOG2)) ^ (1 << SL_INDEX_COUNT_LOG2);
 1453              		.loc 1 537 14 is_stmt 0 view .LVU425
 1454 0020 FFF7FEFF 		bl	tlsf_fls
 1455              	.LVL125:
 538:Drivers/lvgl/src/misc/lv_tlsf.c ****         fl -= (FL_INDEX_SHIFT - 1);
 1456              		.loc 1 538 9 is_stmt 1 view .LVU426
 538:Drivers/lvgl/src/misc/lv_tlsf.c ****         fl -= (FL_INDEX_SHIFT - 1);
 1457              		.loc 1 538 14 is_stmt 0 view .LVU427
 1458 0024 431F     		subs	r3, r0, #5
 1459 0026 DC40     		lsrs	r4, r4, r3
 1460              	.LVL126:
 538:Drivers/lvgl/src/misc/lv_tlsf.c ****         fl -= (FL_INDEX_SHIFT - 1);
 1461              		.loc 1 538 12 view .LVU428
 1462 0028 84F02004 		eor	r4, r4, #32
 1463              	.LVL127:
 539:Drivers/lvgl/src/misc/lv_tlsf.c ****     }
 1464              		.loc 1 539 9 is_stmt 1 view .LVU429
 539:Drivers/lvgl/src/misc/lv_tlsf.c ****     }
 1465              		.loc 1 539 12 is_stmt 0 view .LVU430
 1466 002c 0638     		subs	r0, r0, #6
 1467              	.LVL128:
 539:Drivers/lvgl/src/misc/lv_tlsf.c ****     }
 1468              		.loc 1 539 12 view .LVU431
 1469 002e F2E7     		b	.L91
 1470              		.cfi_endproc
 1471              	.LFE24:
 1473              		.section	.text.block_insert,"ax",%progbits
 1474              		.align	1
 1475              		.syntax unified
 1476              		.thumb
 1477              		.thumb_func
ARM GAS  /var/folders/0z/tsy30v1j4xl4_7kw94k978ww0000gn/T//ccByTTYT.s 			page 43


 1479              	block_insert:
 1480              	.LVL129:
 1481              	.LFB30:
 642:Drivers/lvgl/src/misc/lv_tlsf.c ****     int fl, sl;
 1482              		.loc 1 642 1 is_stmt 1 view -0
 1483              		.cfi_startproc
 1484              		@ args = 0, pretend = 0, frame = 8
 1485              		@ frame_needed = 0, uses_anonymous_args = 0
 642:Drivers/lvgl/src/misc/lv_tlsf.c ****     int fl, sl;
 1486              		.loc 1 642 1 is_stmt 0 view .LVU433
 1487 0000 30B5     		push	{r4, r5, lr}
 1488              		.cfi_def_cfa_offset 12
 1489              		.cfi_offset 4, -12
 1490              		.cfi_offset 5, -8
 1491              		.cfi_offset 14, -4
 1492 0002 83B0     		sub	sp, sp, #12
 1493              		.cfi_def_cfa_offset 24
 1494 0004 0546     		mov	r5, r0
 1495 0006 0C46     		mov	r4, r1
 643:Drivers/lvgl/src/misc/lv_tlsf.c ****     mapping_insert(block_size(block), &fl, &sl);
 1496              		.loc 1 643 5 is_stmt 1 view .LVU434
 644:Drivers/lvgl/src/misc/lv_tlsf.c ****     insert_free_block(control, block, fl, sl);
 1497              		.loc 1 644 5 view .LVU435
 1498 0008 0846     		mov	r0, r1
 1499              	.LVL130:
 644:Drivers/lvgl/src/misc/lv_tlsf.c ****     insert_free_block(control, block, fl, sl);
 1500              		.loc 1 644 5 is_stmt 0 view .LVU436
 1501 000a FFF7FEFF 		bl	block_size
 1502              	.LVL131:
 644:Drivers/lvgl/src/misc/lv_tlsf.c ****     insert_free_block(control, block, fl, sl);
 1503              		.loc 1 644 5 view .LVU437
 1504 000e 6A46     		mov	r2, sp
 1505 0010 01A9     		add	r1, sp, #4
 1506 0012 FFF7FEFF 		bl	mapping_insert
 1507              	.LVL132:
 645:Drivers/lvgl/src/misc/lv_tlsf.c **** }
 1508              		.loc 1 645 5 is_stmt 1 view .LVU438
 1509 0016 009B     		ldr	r3, [sp]
 1510 0018 019A     		ldr	r2, [sp, #4]
 1511 001a 2146     		mov	r1, r4
 1512 001c 2846     		mov	r0, r5
 1513 001e FFF7FEFF 		bl	insert_free_block
 1514              	.LVL133:
 646:Drivers/lvgl/src/misc/lv_tlsf.c **** 
 1515              		.loc 1 646 1 is_stmt 0 view .LVU439
 1516 0022 03B0     		add	sp, sp, #12
 1517              		.cfi_def_cfa_offset 12
 1518              		@ sp needed
 1519 0024 30BD     		pop	{r4, r5, pc}
 646:Drivers/lvgl/src/misc/lv_tlsf.c **** 
 1520              		.loc 1 646 1 view .LVU440
 1521              		.cfi_endproc
 1522              	.LFE30:
 1524              		.section	.text.block_trim_free,"ax",%progbits
 1525              		.align	1
 1526              		.syntax unified
 1527              		.thumb
ARM GAS  /var/folders/0z/tsy30v1j4xl4_7kw94k978ww0000gn/T//ccByTTYT.s 			page 44


 1528              		.thumb_func
 1530              	block_trim_free:
 1531              	.LVL134:
 1532              	.LFB36:
 716:Drivers/lvgl/src/misc/lv_tlsf.c ****     tlsf_assert(block_is_free(block) && "block must be free");
 1533              		.loc 1 716 1 is_stmt 1 view -0
 1534              		.cfi_startproc
 1535              		@ args = 0, pretend = 0, frame = 0
 1536              		@ frame_needed = 0, uses_anonymous_args = 0
 716:Drivers/lvgl/src/misc/lv_tlsf.c ****     tlsf_assert(block_is_free(block) && "block must be free");
 1537              		.loc 1 716 1 is_stmt 0 view .LVU442
 1538 0000 70B5     		push	{r4, r5, r6, lr}
 1539              		.cfi_def_cfa_offset 16
 1540              		.cfi_offset 4, -16
 1541              		.cfi_offset 5, -12
 1542              		.cfi_offset 6, -8
 1543              		.cfi_offset 14, -4
 1544 0002 0646     		mov	r6, r0
 1545 0004 0C46     		mov	r4, r1
 1546 0006 1546     		mov	r5, r2
 717:Drivers/lvgl/src/misc/lv_tlsf.c ****     if(block_can_split(block, size)) {
 1547              		.loc 1 717 5 is_stmt 1 view .LVU443
 717:Drivers/lvgl/src/misc/lv_tlsf.c ****     if(block_can_split(block, size)) {
 1548              		.loc 1 717 5 view .LVU444
 1549 0008 0846     		mov	r0, r1
 1550              	.LVL135:
 717:Drivers/lvgl/src/misc/lv_tlsf.c ****     if(block_can_split(block, size)) {
 1551              		.loc 1 717 5 is_stmt 0 view .LVU445
 1552 000a FFF7FEFF 		bl	block_is_free
 1553              	.LVL136:
 717:Drivers/lvgl/src/misc/lv_tlsf.c ****     if(block_can_split(block, size)) {
 1554              		.loc 1 717 5 view .LVU446
 1555 000e 00B9     		cbnz	r0, .L97
 1556              	.L98:
 717:Drivers/lvgl/src/misc/lv_tlsf.c ****     if(block_can_split(block, size)) {
 1557              		.loc 1 717 5 is_stmt 1 discriminator 1 view .LVU447
 717:Drivers/lvgl/src/misc/lv_tlsf.c ****     if(block_can_split(block, size)) {
 1558              		.loc 1 717 5 discriminator 1 view .LVU448
 717:Drivers/lvgl/src/misc/lv_tlsf.c ****     if(block_can_split(block, size)) {
 1559              		.loc 1 717 5 discriminator 1 view .LVU449
 717:Drivers/lvgl/src/misc/lv_tlsf.c ****     if(block_can_split(block, size)) {
 1560              		.loc 1 717 5 discriminator 1 view .LVU450
 717:Drivers/lvgl/src/misc/lv_tlsf.c ****     if(block_can_split(block, size)) {
 1561              		.loc 1 717 5 discriminator 1 view .LVU451
 1562 0010 FEE7     		b	.L98
 1563              	.L97:
 717:Drivers/lvgl/src/misc/lv_tlsf.c ****     if(block_can_split(block, size)) {
 1564              		.loc 1 717 5 discriminator 4 view .LVU452
 718:Drivers/lvgl/src/misc/lv_tlsf.c ****         block_header_t * remaining_block = block_split(block, size);
 1565              		.loc 1 718 5 discriminator 4 view .LVU453
 718:Drivers/lvgl/src/misc/lv_tlsf.c ****         block_header_t * remaining_block = block_split(block, size);
 1566              		.loc 1 718 8 is_stmt 0 discriminator 4 view .LVU454
 1567 0012 2946     		mov	r1, r5
 1568 0014 2046     		mov	r0, r4
 1569 0016 FFF7FEFF 		bl	block_can_split
 1570              	.LVL137:
 718:Drivers/lvgl/src/misc/lv_tlsf.c ****         block_header_t * remaining_block = block_split(block, size);
ARM GAS  /var/folders/0z/tsy30v1j4xl4_7kw94k978ww0000gn/T//ccByTTYT.s 			page 45


 1571              		.loc 1 718 7 discriminator 4 view .LVU455
 1572 001a 00B9     		cbnz	r0, .L101
 1573              	.LVL138:
 1574              	.L96:
 724:Drivers/lvgl/src/misc/lv_tlsf.c **** 
 1575              		.loc 1 724 1 view .LVU456
 1576 001c 70BD     		pop	{r4, r5, r6, pc}
 1577              	.LVL139:
 1578              	.L101:
 1579              	.LBB3:
 719:Drivers/lvgl/src/misc/lv_tlsf.c ****         block_link_next(block);
 1580              		.loc 1 719 9 is_stmt 1 view .LVU457
 719:Drivers/lvgl/src/misc/lv_tlsf.c ****         block_link_next(block);
 1581              		.loc 1 719 44 is_stmt 0 view .LVU458
 1582 001e 2946     		mov	r1, r5
 1583 0020 2046     		mov	r0, r4
 1584 0022 FFF7FEFF 		bl	block_split
 1585              	.LVL140:
 1586 0026 0546     		mov	r5, r0
 1587              	.LVL141:
 720:Drivers/lvgl/src/misc/lv_tlsf.c ****         block_set_prev_free(remaining_block);
 1588              		.loc 1 720 9 is_stmt 1 view .LVU459
 1589 0028 2046     		mov	r0, r4
 1590              	.LVL142:
 720:Drivers/lvgl/src/misc/lv_tlsf.c ****         block_set_prev_free(remaining_block);
 1591              		.loc 1 720 9 is_stmt 0 view .LVU460
 1592 002a FFF7FEFF 		bl	block_link_next
 1593              	.LVL143:
 721:Drivers/lvgl/src/misc/lv_tlsf.c ****         block_insert(control, remaining_block);
 1594              		.loc 1 721 9 is_stmt 1 view .LVU461
 1595 002e 2846     		mov	r0, r5
 1596 0030 FFF7FEFF 		bl	block_set_prev_free
 1597              	.LVL144:
 722:Drivers/lvgl/src/misc/lv_tlsf.c ****     }
 1598              		.loc 1 722 9 view .LVU462
 1599 0034 2946     		mov	r1, r5
 1600 0036 3046     		mov	r0, r6
 1601 0038 FFF7FEFF 		bl	block_insert
 1602              	.LVL145:
 1603              	.LBE3:
 724:Drivers/lvgl/src/misc/lv_tlsf.c **** 
 1604              		.loc 1 724 1 is_stmt 0 view .LVU463
 1605 003c EEE7     		b	.L96
 1606              		.cfi_endproc
 1607              	.LFE36:
 1609              		.section	.text.block_prepare_used,"ax",%progbits
 1610              		.align	1
 1611              		.syntax unified
 1612              		.thumb
 1613              		.thumb_func
 1615              	block_prepare_used:
 1616              	.LVL146:
 1617              	.LFB40:
 783:Drivers/lvgl/src/misc/lv_tlsf.c ****     void * p = 0;
 1618              		.loc 1 783 1 is_stmt 1 view -0
 1619              		.cfi_startproc
 1620              		@ args = 0, pretend = 0, frame = 0
ARM GAS  /var/folders/0z/tsy30v1j4xl4_7kw94k978ww0000gn/T//ccByTTYT.s 			page 46


 1621              		@ frame_needed = 0, uses_anonymous_args = 0
 783:Drivers/lvgl/src/misc/lv_tlsf.c ****     void * p = 0;
 1622              		.loc 1 783 1 is_stmt 0 view .LVU465
 1623 0000 10B5     		push	{r4, lr}
 1624              		.cfi_def_cfa_offset 8
 1625              		.cfi_offset 4, -8
 1626              		.cfi_offset 14, -4
 784:Drivers/lvgl/src/misc/lv_tlsf.c ****     if(block) {
 1627              		.loc 1 784 5 is_stmt 1 view .LVU466
 1628              	.LVL147:
 785:Drivers/lvgl/src/misc/lv_tlsf.c ****         tlsf_assert(size && "size must be non-zero");
 1629              		.loc 1 785 5 view .LVU467
 785:Drivers/lvgl/src/misc/lv_tlsf.c ****         tlsf_assert(size && "size must be non-zero");
 1630              		.loc 1 785 7 is_stmt 0 view .LVU468
 1631 0002 0C46     		mov	r4, r1
 1632 0004 51B1     		cbz	r1, .L106
 786:Drivers/lvgl/src/misc/lv_tlsf.c ****         block_trim_free(control, block, size);
 1633              		.loc 1 786 9 is_stmt 1 view .LVU469
 786:Drivers/lvgl/src/misc/lv_tlsf.c ****         block_trim_free(control, block, size);
 1634              		.loc 1 786 9 view .LVU470
 1635 0006 02B9     		cbnz	r2, .L104
 1636              	.L105:
 786:Drivers/lvgl/src/misc/lv_tlsf.c ****         block_trim_free(control, block, size);
 1637              		.loc 1 786 9 discriminator 1 view .LVU471
 786:Drivers/lvgl/src/misc/lv_tlsf.c ****         block_trim_free(control, block, size);
 1638              		.loc 1 786 9 discriminator 1 view .LVU472
 786:Drivers/lvgl/src/misc/lv_tlsf.c ****         block_trim_free(control, block, size);
 1639              		.loc 1 786 9 discriminator 1 view .LVU473
 786:Drivers/lvgl/src/misc/lv_tlsf.c ****         block_trim_free(control, block, size);
 1640              		.loc 1 786 9 discriminator 1 view .LVU474
 786:Drivers/lvgl/src/misc/lv_tlsf.c ****         block_trim_free(control, block, size);
 1641              		.loc 1 786 9 discriminator 1 view .LVU475
 1642 0008 FEE7     		b	.L105
 1643              	.L104:
 786:Drivers/lvgl/src/misc/lv_tlsf.c ****         block_trim_free(control, block, size);
 1644              		.loc 1 786 9 discriminator 2 view .LVU476
 787:Drivers/lvgl/src/misc/lv_tlsf.c ****         block_mark_as_used(block);
 1645              		.loc 1 787 9 discriminator 2 view .LVU477
 1646 000a FFF7FEFF 		bl	block_trim_free
 1647              	.LVL148:
 788:Drivers/lvgl/src/misc/lv_tlsf.c ****         p = block_to_ptr(block);
 1648              		.loc 1 788 9 discriminator 2 view .LVU478
 1649 000e 2046     		mov	r0, r4
 1650 0010 FFF7FEFF 		bl	block_mark_as_used
 1651              	.LVL149:
 789:Drivers/lvgl/src/misc/lv_tlsf.c ****     }
 1652              		.loc 1 789 9 discriminator 2 view .LVU479
 789:Drivers/lvgl/src/misc/lv_tlsf.c ****     }
 1653              		.loc 1 789 13 is_stmt 0 discriminator 2 view .LVU480
 1654 0014 2046     		mov	r0, r4
 1655 0016 FFF7FEFF 		bl	block_to_ptr
 1656              	.LVL150:
 1657              	.L102:
 792:Drivers/lvgl/src/misc/lv_tlsf.c **** 
 1658              		.loc 1 792 1 view .LVU481
 1659 001a 10BD     		pop	{r4, pc}
 1660              	.LVL151:
ARM GAS  /var/folders/0z/tsy30v1j4xl4_7kw94k978ww0000gn/T//ccByTTYT.s 			page 47


 1661              	.L106:
 784:Drivers/lvgl/src/misc/lv_tlsf.c ****     if(block) {
 1662              		.loc 1 784 12 view .LVU482
 1663 001c 0846     		mov	r0, r1
 1664              	.LVL152:
 791:Drivers/lvgl/src/misc/lv_tlsf.c **** }
 1665              		.loc 1 791 5 is_stmt 1 view .LVU483
 791:Drivers/lvgl/src/misc/lv_tlsf.c **** }
 1666              		.loc 1 791 12 is_stmt 0 view .LVU484
 1667 001e FCE7     		b	.L102
 1668              		.cfi_endproc
 1669              	.LFE40:
 1671              		.section	.text.block_trim_free_leading,"ax",%progbits
 1672              		.align	1
 1673              		.syntax unified
 1674              		.thumb
 1675              		.thumb_func
 1677              	block_trim_free_leading:
 1678              	.LVL153:
 1679              	.LFB38:
 741:Drivers/lvgl/src/misc/lv_tlsf.c ****     block_header_t * remaining_block = block;
 1680              		.loc 1 741 1 is_stmt 1 view -0
 1681              		.cfi_startproc
 1682              		@ args = 0, pretend = 0, frame = 0
 1683              		@ frame_needed = 0, uses_anonymous_args = 0
 741:Drivers/lvgl/src/misc/lv_tlsf.c ****     block_header_t * remaining_block = block;
 1684              		.loc 1 741 1 is_stmt 0 view .LVU486
 1685 0000 70B5     		push	{r4, r5, r6, lr}
 1686              		.cfi_def_cfa_offset 16
 1687              		.cfi_offset 4, -16
 1688              		.cfi_offset 5, -12
 1689              		.cfi_offset 6, -8
 1690              		.cfi_offset 14, -4
 1691 0002 0646     		mov	r6, r0
 1692 0004 0C46     		mov	r4, r1
 1693 0006 1546     		mov	r5, r2
 742:Drivers/lvgl/src/misc/lv_tlsf.c ****     if(block_can_split(block, size)) {
 1694              		.loc 1 742 5 is_stmt 1 view .LVU487
 1695              	.LVL154:
 743:Drivers/lvgl/src/misc/lv_tlsf.c ****         /* We want the 2nd block. */
 1696              		.loc 1 743 5 view .LVU488
 743:Drivers/lvgl/src/misc/lv_tlsf.c ****         /* We want the 2nd block. */
 1697              		.loc 1 743 8 is_stmt 0 view .LVU489
 1698 0008 1146     		mov	r1, r2
 1699              	.LVL155:
 743:Drivers/lvgl/src/misc/lv_tlsf.c ****         /* We want the 2nd block. */
 1700              		.loc 1 743 8 view .LVU490
 1701 000a 2046     		mov	r0, r4
 1702              	.LVL156:
 743:Drivers/lvgl/src/misc/lv_tlsf.c ****         /* We want the 2nd block. */
 1703              		.loc 1 743 8 view .LVU491
 1704 000c FFF7FEFF 		bl	block_can_split
 1705              	.LVL157:
 743:Drivers/lvgl/src/misc/lv_tlsf.c ****         /* We want the 2nd block. */
 1706              		.loc 1 743 7 view .LVU492
 1707 0010 08B9     		cbnz	r0, .L111
 1708              	.LVL158:
ARM GAS  /var/folders/0z/tsy30v1j4xl4_7kw94k978ww0000gn/T//ccByTTYT.s 			page 48


 1709              	.L109:
 752:Drivers/lvgl/src/misc/lv_tlsf.c **** }
 1710              		.loc 1 752 5 is_stmt 1 view .LVU493
 753:Drivers/lvgl/src/misc/lv_tlsf.c **** 
 1711              		.loc 1 753 1 is_stmt 0 view .LVU494
 1712 0012 2046     		mov	r0, r4
 1713 0014 70BD     		pop	{r4, r5, r6, pc}
 1714              	.LVL159:
 1715              	.L111:
 745:Drivers/lvgl/src/misc/lv_tlsf.c ****         block_set_prev_free(remaining_block);
 1716              		.loc 1 745 9 is_stmt 1 view .LVU495
 745:Drivers/lvgl/src/misc/lv_tlsf.c ****         block_set_prev_free(remaining_block);
 1717              		.loc 1 745 27 is_stmt 0 view .LVU496
 1718 0016 291F     		subs	r1, r5, #4
 1719 0018 2046     		mov	r0, r4
 1720 001a FFF7FEFF 		bl	block_split
 1721              	.LVL160:
 1722 001e 0546     		mov	r5, r0
 1723              	.LVL161:
 746:Drivers/lvgl/src/misc/lv_tlsf.c **** 
 1724              		.loc 1 746 9 is_stmt 1 view .LVU497
 1725 0020 FFF7FEFF 		bl	block_set_prev_free
 1726              	.LVL162:
 748:Drivers/lvgl/src/misc/lv_tlsf.c ****         block_insert(control, block);
 1727              		.loc 1 748 9 view .LVU498
 1728 0024 2046     		mov	r0, r4
 1729 0026 FFF7FEFF 		bl	block_link_next
 1730              	.LVL163:
 749:Drivers/lvgl/src/misc/lv_tlsf.c ****     }
 1731              		.loc 1 749 9 view .LVU499
 1732 002a 2146     		mov	r1, r4
 1733 002c 3046     		mov	r0, r6
 1734 002e FFF7FEFF 		bl	block_insert
 1735              	.LVL164:
 745:Drivers/lvgl/src/misc/lv_tlsf.c ****         block_set_prev_free(remaining_block);
 1736              		.loc 1 745 27 is_stmt 0 view .LVU500
 1737 0032 2C46     		mov	r4, r5
 1738              	.LVL165:
 745:Drivers/lvgl/src/misc/lv_tlsf.c ****         block_set_prev_free(remaining_block);
 1739              		.loc 1 745 27 view .LVU501
 1740 0034 EDE7     		b	.L109
 1741              		.cfi_endproc
 1742              	.LFE38:
 1744              		.section	.text.block_remove,"ax",%progbits
 1745              		.align	1
 1746              		.syntax unified
 1747              		.thumb
 1748              		.thumb_func
 1750              	block_remove:
 1751              	.LVL166:
 1752              	.LFB29:
 634:Drivers/lvgl/src/misc/lv_tlsf.c ****     int fl, sl;
 1753              		.loc 1 634 1 is_stmt 1 view -0
 1754              		.cfi_startproc
 1755              		@ args = 0, pretend = 0, frame = 8
 1756              		@ frame_needed = 0, uses_anonymous_args = 0
 634:Drivers/lvgl/src/misc/lv_tlsf.c ****     int fl, sl;
ARM GAS  /var/folders/0z/tsy30v1j4xl4_7kw94k978ww0000gn/T//ccByTTYT.s 			page 49


 1757              		.loc 1 634 1 is_stmt 0 view .LVU503
 1758 0000 30B5     		push	{r4, r5, lr}
 1759              		.cfi_def_cfa_offset 12
 1760              		.cfi_offset 4, -12
 1761              		.cfi_offset 5, -8
 1762              		.cfi_offset 14, -4
 1763 0002 83B0     		sub	sp, sp, #12
 1764              		.cfi_def_cfa_offset 24
 1765 0004 0546     		mov	r5, r0
 1766 0006 0C46     		mov	r4, r1
 635:Drivers/lvgl/src/misc/lv_tlsf.c ****     mapping_insert(block_size(block), &fl, &sl);
 1767              		.loc 1 635 5 is_stmt 1 view .LVU504
 636:Drivers/lvgl/src/misc/lv_tlsf.c ****     remove_free_block(control, block, fl, sl);
 1768              		.loc 1 636 5 view .LVU505
 1769 0008 0846     		mov	r0, r1
 1770              	.LVL167:
 636:Drivers/lvgl/src/misc/lv_tlsf.c ****     remove_free_block(control, block, fl, sl);
 1771              		.loc 1 636 5 is_stmt 0 view .LVU506
 1772 000a FFF7FEFF 		bl	block_size
 1773              	.LVL168:
 636:Drivers/lvgl/src/misc/lv_tlsf.c ****     remove_free_block(control, block, fl, sl);
 1774              		.loc 1 636 5 view .LVU507
 1775 000e 6A46     		mov	r2, sp
 1776 0010 01A9     		add	r1, sp, #4
 1777 0012 FFF7FEFF 		bl	mapping_insert
 1778              	.LVL169:
 637:Drivers/lvgl/src/misc/lv_tlsf.c **** }
 1779              		.loc 1 637 5 is_stmt 1 view .LVU508
 1780 0016 009B     		ldr	r3, [sp]
 1781 0018 019A     		ldr	r2, [sp, #4]
 1782 001a 2146     		mov	r1, r4
 1783 001c 2846     		mov	r0, r5
 1784 001e FFF7FEFF 		bl	remove_free_block
 1785              	.LVL170:
 638:Drivers/lvgl/src/misc/lv_tlsf.c **** 
 1786              		.loc 1 638 1 is_stmt 0 view .LVU509
 1787 0022 03B0     		add	sp, sp, #12
 1788              		.cfi_def_cfa_offset 12
 1789              		@ sp needed
 1790 0024 30BD     		pop	{r4, r5, pc}
 638:Drivers/lvgl/src/misc/lv_tlsf.c **** 
 1791              		.loc 1 638 1 view .LVU510
 1792              		.cfi_endproc
 1793              	.LFE29:
 1795              		.section	.text.block_merge_prev,"ax",%progbits
 1796              		.align	1
 1797              		.syntax unified
 1798              		.thumb
 1799              		.thumb_func
 1801              	block_merge_prev:
 1802              	.LVL171:
 1803              	.LFB34:
 687:Drivers/lvgl/src/misc/lv_tlsf.c ****     if(block_is_prev_free(block)) {
 1804              		.loc 1 687 1 is_stmt 1 view -0
 1805              		.cfi_startproc
 1806              		@ args = 0, pretend = 0, frame = 0
 1807              		@ frame_needed = 0, uses_anonymous_args = 0
ARM GAS  /var/folders/0z/tsy30v1j4xl4_7kw94k978ww0000gn/T//ccByTTYT.s 			page 50


 687:Drivers/lvgl/src/misc/lv_tlsf.c ****     if(block_is_prev_free(block)) {
 1808              		.loc 1 687 1 is_stmt 0 view .LVU512
 1809 0000 70B5     		push	{r4, r5, r6, lr}
 1810              		.cfi_def_cfa_offset 16
 1811              		.cfi_offset 4, -16
 1812              		.cfi_offset 5, -12
 1813              		.cfi_offset 6, -8
 1814              		.cfi_offset 14, -4
 1815 0002 0546     		mov	r5, r0
 1816 0004 0C46     		mov	r4, r1
 688:Drivers/lvgl/src/misc/lv_tlsf.c ****         block_header_t * prev = block_prev(block);
 1817              		.loc 1 688 5 is_stmt 1 view .LVU513
 688:Drivers/lvgl/src/misc/lv_tlsf.c ****         block_header_t * prev = block_prev(block);
 1818              		.loc 1 688 8 is_stmt 0 view .LVU514
 1819 0006 0846     		mov	r0, r1
 1820              	.LVL172:
 688:Drivers/lvgl/src/misc/lv_tlsf.c ****         block_header_t * prev = block_prev(block);
 1821              		.loc 1 688 8 view .LVU515
 1822 0008 FFF7FEFF 		bl	block_is_prev_free
 1823              	.LVL173:
 688:Drivers/lvgl/src/misc/lv_tlsf.c ****         block_header_t * prev = block_prev(block);
 1824              		.loc 1 688 7 view .LVU516
 1825 000c 08B9     		cbnz	r0, .L121
 1826              	.L115:
 696:Drivers/lvgl/src/misc/lv_tlsf.c **** }
 1827              		.loc 1 696 5 is_stmt 1 view .LVU517
 697:Drivers/lvgl/src/misc/lv_tlsf.c **** 
 1828              		.loc 1 697 1 is_stmt 0 view .LVU518
 1829 000e 2046     		mov	r0, r4
 1830 0010 70BD     		pop	{r4, r5, r6, pc}
 1831              	.LVL174:
 1832              	.L121:
 1833              	.LBB4:
 689:Drivers/lvgl/src/misc/lv_tlsf.c ****         tlsf_assert(prev && "prev physical block can't be null");
 1834              		.loc 1 689 9 is_stmt 1 view .LVU519
 689:Drivers/lvgl/src/misc/lv_tlsf.c ****         tlsf_assert(prev && "prev physical block can't be null");
 1835              		.loc 1 689 33 is_stmt 0 view .LVU520
 1836 0012 2046     		mov	r0, r4
 1837 0014 FFF7FEFF 		bl	block_prev
 1838              	.LVL175:
 690:Drivers/lvgl/src/misc/lv_tlsf.c ****         tlsf_assert(block_is_free(prev) && "prev block is not free though marked as such");
 1839              		.loc 1 690 9 is_stmt 1 view .LVU521
 690:Drivers/lvgl/src/misc/lv_tlsf.c ****         tlsf_assert(block_is_free(prev) && "prev block is not free though marked as such");
 1840              		.loc 1 690 9 view .LVU522
 1841 0018 0646     		mov	r6, r0
 1842 001a 18B1     		cbz	r0, .L117
 690:Drivers/lvgl/src/misc/lv_tlsf.c ****         tlsf_assert(block_is_free(prev) && "prev block is not free though marked as such");
 1843              		.loc 1 690 9 discriminator 2 view .LVU523
 691:Drivers/lvgl/src/misc/lv_tlsf.c ****         block_remove(control, prev);
 1844              		.loc 1 691 9 discriminator 2 view .LVU524
 691:Drivers/lvgl/src/misc/lv_tlsf.c ****         block_remove(control, prev);
 1845              		.loc 1 691 9 discriminator 2 view .LVU525
 1846 001c FFF7FEFF 		bl	block_is_free
 1847              	.LVL176:
 691:Drivers/lvgl/src/misc/lv_tlsf.c ****         block_remove(control, prev);
 1848              		.loc 1 691 9 is_stmt 0 discriminator 2 view .LVU526
 1849 0020 08B9     		cbnz	r0, .L118
ARM GAS  /var/folders/0z/tsy30v1j4xl4_7kw94k978ww0000gn/T//ccByTTYT.s 			page 51


 1850              	.L119:
 691:Drivers/lvgl/src/misc/lv_tlsf.c ****         block_remove(control, prev);
 1851              		.loc 1 691 9 is_stmt 1 discriminator 2 view .LVU527
 691:Drivers/lvgl/src/misc/lv_tlsf.c ****         block_remove(control, prev);
 1852              		.loc 1 691 9 discriminator 2 view .LVU528
 691:Drivers/lvgl/src/misc/lv_tlsf.c ****         block_remove(control, prev);
 1853              		.loc 1 691 9 discriminator 2 view .LVU529
 691:Drivers/lvgl/src/misc/lv_tlsf.c ****         block_remove(control, prev);
 1854              		.loc 1 691 9 discriminator 2 view .LVU530
 691:Drivers/lvgl/src/misc/lv_tlsf.c ****         block_remove(control, prev);
 1855              		.loc 1 691 9 discriminator 2 view .LVU531
 1856 0022 FEE7     		b	.L119
 1857              	.LVL177:
 1858              	.L117:
 690:Drivers/lvgl/src/misc/lv_tlsf.c ****         tlsf_assert(block_is_free(prev) && "prev block is not free though marked as such");
 1859              		.loc 1 690 9 discriminator 1 view .LVU532
 690:Drivers/lvgl/src/misc/lv_tlsf.c ****         tlsf_assert(block_is_free(prev) && "prev block is not free though marked as such");
 1860              		.loc 1 690 9 discriminator 1 view .LVU533
 690:Drivers/lvgl/src/misc/lv_tlsf.c ****         tlsf_assert(block_is_free(prev) && "prev block is not free though marked as such");
 1861              		.loc 1 690 9 discriminator 1 view .LVU534
 690:Drivers/lvgl/src/misc/lv_tlsf.c ****         tlsf_assert(block_is_free(prev) && "prev block is not free though marked as such");
 1862              		.loc 1 690 9 discriminator 1 view .LVU535
 690:Drivers/lvgl/src/misc/lv_tlsf.c ****         tlsf_assert(block_is_free(prev) && "prev block is not free though marked as such");
 1863              		.loc 1 690 9 discriminator 1 view .LVU536
 1864 0024 FEE7     		b	.L117
 1865              	.LVL178:
 1866              	.L118:
 691:Drivers/lvgl/src/misc/lv_tlsf.c ****         block_remove(control, prev);
 1867              		.loc 1 691 9 discriminator 4 view .LVU537
 692:Drivers/lvgl/src/misc/lv_tlsf.c ****         block = block_absorb(prev, block);
 1868              		.loc 1 692 9 discriminator 4 view .LVU538
 1869 0026 3146     		mov	r1, r6
 1870 0028 2846     		mov	r0, r5
 1871 002a FFF7FEFF 		bl	block_remove
 1872              	.LVL179:
 693:Drivers/lvgl/src/misc/lv_tlsf.c ****     }
 1873              		.loc 1 693 9 discriminator 4 view .LVU539
 693:Drivers/lvgl/src/misc/lv_tlsf.c ****     }
 1874              		.loc 1 693 17 is_stmt 0 discriminator 4 view .LVU540
 1875 002e 2146     		mov	r1, r4
 1876 0030 3046     		mov	r0, r6
 1877 0032 FFF7FEFF 		bl	block_absorb
 1878              	.LVL180:
 1879 0036 0446     		mov	r4, r0
 1880              	.LVL181:
 693:Drivers/lvgl/src/misc/lv_tlsf.c ****     }
 1881              		.loc 1 693 17 discriminator 4 view .LVU541
 1882 0038 E9E7     		b	.L115
 1883              	.LBE4:
 1884              		.cfi_endproc
 1885              	.LFE34:
 1887              		.section	.text.block_merge_next,"ax",%progbits
 1888              		.align	1
 1889              		.syntax unified
 1890              		.thumb
 1891              		.thumb_func
 1893              	block_merge_next:
ARM GAS  /var/folders/0z/tsy30v1j4xl4_7kw94k978ww0000gn/T//ccByTTYT.s 			page 52


 1894              	.LVL182:
 1895              	.LFB35:
 701:Drivers/lvgl/src/misc/lv_tlsf.c ****     block_header_t * next = block_next(block);
 1896              		.loc 1 701 1 is_stmt 1 view -0
 1897              		.cfi_startproc
 1898              		@ args = 0, pretend = 0, frame = 0
 1899              		@ frame_needed = 0, uses_anonymous_args = 0
 701:Drivers/lvgl/src/misc/lv_tlsf.c ****     block_header_t * next = block_next(block);
 1900              		.loc 1 701 1 is_stmt 0 view .LVU543
 1901 0000 70B5     		push	{r4, r5, r6, lr}
 1902              		.cfi_def_cfa_offset 16
 1903              		.cfi_offset 4, -16
 1904              		.cfi_offset 5, -12
 1905              		.cfi_offset 6, -8
 1906              		.cfi_offset 14, -4
 1907 0002 0546     		mov	r5, r0
 1908 0004 0C46     		mov	r4, r1
 702:Drivers/lvgl/src/misc/lv_tlsf.c ****     tlsf_assert(next && "next physical block can't be null");
 1909              		.loc 1 702 5 is_stmt 1 view .LVU544
 702:Drivers/lvgl/src/misc/lv_tlsf.c ****     tlsf_assert(next && "next physical block can't be null");
 1910              		.loc 1 702 29 is_stmt 0 view .LVU545
 1911 0006 0846     		mov	r0, r1
 1912              	.LVL183:
 702:Drivers/lvgl/src/misc/lv_tlsf.c ****     tlsf_assert(next && "next physical block can't be null");
 1913              		.loc 1 702 29 view .LVU546
 1914 0008 FFF7FEFF 		bl	block_next
 1915              	.LVL184:
 703:Drivers/lvgl/src/misc/lv_tlsf.c **** 
 1916              		.loc 1 703 5 is_stmt 1 view .LVU547
 703:Drivers/lvgl/src/misc/lv_tlsf.c **** 
 1917              		.loc 1 703 5 view .LVU548
 1918 000c 40B1     		cbz	r0, .L124
 1919 000e 0646     		mov	r6, r0
 703:Drivers/lvgl/src/misc/lv_tlsf.c **** 
 1920              		.loc 1 703 5 discriminator 2 view .LVU549
 705:Drivers/lvgl/src/misc/lv_tlsf.c ****         tlsf_assert(!block_is_last(block) && "previous block can't be last");
 1921              		.loc 1 705 5 discriminator 2 view .LVU550
 705:Drivers/lvgl/src/misc/lv_tlsf.c ****         tlsf_assert(!block_is_last(block) && "previous block can't be last");
 1922              		.loc 1 705 8 is_stmt 0 discriminator 2 view .LVU551
 1923 0010 FFF7FEFF 		bl	block_is_free
 1924              	.LVL185:
 705:Drivers/lvgl/src/misc/lv_tlsf.c ****         tlsf_assert(!block_is_last(block) && "previous block can't be last");
 1925              		.loc 1 705 7 discriminator 2 view .LVU552
 1926 0014 70B1     		cbz	r0, .L125
 706:Drivers/lvgl/src/misc/lv_tlsf.c ****         block_remove(control, next);
 1927              		.loc 1 706 9 is_stmt 1 view .LVU553
 706:Drivers/lvgl/src/misc/lv_tlsf.c ****         block_remove(control, next);
 1928              		.loc 1 706 9 view .LVU554
 1929 0016 2046     		mov	r0, r4
 1930 0018 FFF7FEFF 		bl	block_is_last
 1931              	.LVL186:
 1932 001c 08B1     		cbz	r0, .L126
 1933              	.L127:
 706:Drivers/lvgl/src/misc/lv_tlsf.c ****         block_remove(control, next);
 1934              		.loc 1 706 9 discriminator 2 view .LVU555
 706:Drivers/lvgl/src/misc/lv_tlsf.c ****         block_remove(control, next);
 1935              		.loc 1 706 9 discriminator 2 view .LVU556
ARM GAS  /var/folders/0z/tsy30v1j4xl4_7kw94k978ww0000gn/T//ccByTTYT.s 			page 53


 706:Drivers/lvgl/src/misc/lv_tlsf.c ****         block_remove(control, next);
 1936              		.loc 1 706 9 discriminator 2 view .LVU557
 706:Drivers/lvgl/src/misc/lv_tlsf.c ****         block_remove(control, next);
 1937              		.loc 1 706 9 discriminator 2 view .LVU558
 706:Drivers/lvgl/src/misc/lv_tlsf.c ****         block_remove(control, next);
 1938              		.loc 1 706 9 discriminator 2 view .LVU559
 1939 001e FEE7     		b	.L127
 1940              	.LVL187:
 1941              	.L124:
 703:Drivers/lvgl/src/misc/lv_tlsf.c **** 
 1942              		.loc 1 703 5 discriminator 1 view .LVU560
 703:Drivers/lvgl/src/misc/lv_tlsf.c **** 
 1943              		.loc 1 703 5 discriminator 1 view .LVU561
 703:Drivers/lvgl/src/misc/lv_tlsf.c **** 
 1944              		.loc 1 703 5 discriminator 1 view .LVU562
 703:Drivers/lvgl/src/misc/lv_tlsf.c **** 
 1945              		.loc 1 703 5 discriminator 1 view .LVU563
 703:Drivers/lvgl/src/misc/lv_tlsf.c **** 
 1946              		.loc 1 703 5 discriminator 1 view .LVU564
 1947 0020 FEE7     		b	.L124
 1948              	.LVL188:
 1949              	.L126:
 706:Drivers/lvgl/src/misc/lv_tlsf.c ****         block_remove(control, next);
 1950              		.loc 1 706 9 discriminator 2 view .LVU565
 707:Drivers/lvgl/src/misc/lv_tlsf.c ****         block = block_absorb(block, next);
 1951              		.loc 1 707 9 discriminator 2 view .LVU566
 1952 0022 3146     		mov	r1, r6
 1953 0024 2846     		mov	r0, r5
 1954 0026 FFF7FEFF 		bl	block_remove
 1955              	.LVL189:
 708:Drivers/lvgl/src/misc/lv_tlsf.c ****     }
 1956              		.loc 1 708 9 discriminator 2 view .LVU567
 708:Drivers/lvgl/src/misc/lv_tlsf.c ****     }
 1957              		.loc 1 708 17 is_stmt 0 discriminator 2 view .LVU568
 1958 002a 3146     		mov	r1, r6
 1959 002c 2046     		mov	r0, r4
 1960 002e FFF7FEFF 		bl	block_absorb
 1961              	.LVL190:
 1962 0032 0446     		mov	r4, r0
 1963              	.LVL191:
 1964              	.L125:
 711:Drivers/lvgl/src/misc/lv_tlsf.c **** }
 1965              		.loc 1 711 5 is_stmt 1 view .LVU569
 712:Drivers/lvgl/src/misc/lv_tlsf.c **** 
 1966              		.loc 1 712 1 is_stmt 0 view .LVU570
 1967 0034 2046     		mov	r0, r4
 1968 0036 70BD     		pop	{r4, r5, r6, pc}
 712:Drivers/lvgl/src/misc/lv_tlsf.c **** 
 1969              		.loc 1 712 1 view .LVU571
 1970              		.cfi_endproc
 1971              	.LFE35:
 1973              		.section	.text.block_trim_used,"ax",%progbits
 1974              		.align	1
 1975              		.syntax unified
 1976              		.thumb
 1977              		.thumb_func
 1979              	block_trim_used:
ARM GAS  /var/folders/0z/tsy30v1j4xl4_7kw94k978ww0000gn/T//ccByTTYT.s 			page 54


 1980              	.LVL192:
 1981              	.LFB37:
 728:Drivers/lvgl/src/misc/lv_tlsf.c ****     tlsf_assert(!block_is_free(block) && "block must be used");
 1982              		.loc 1 728 1 is_stmt 1 view -0
 1983              		.cfi_startproc
 1984              		@ args = 0, pretend = 0, frame = 0
 1985              		@ frame_needed = 0, uses_anonymous_args = 0
 728:Drivers/lvgl/src/misc/lv_tlsf.c ****     tlsf_assert(!block_is_free(block) && "block must be used");
 1986              		.loc 1 728 1 is_stmt 0 view .LVU573
 1987 0000 70B5     		push	{r4, r5, r6, lr}
 1988              		.cfi_def_cfa_offset 16
 1989              		.cfi_offset 4, -16
 1990              		.cfi_offset 5, -12
 1991              		.cfi_offset 6, -8
 1992              		.cfi_offset 14, -4
 1993 0002 0646     		mov	r6, r0
 1994 0004 0C46     		mov	r4, r1
 1995 0006 1546     		mov	r5, r2
 729:Drivers/lvgl/src/misc/lv_tlsf.c ****     if(block_can_split(block, size)) {
 1996              		.loc 1 729 5 is_stmt 1 view .LVU574
 729:Drivers/lvgl/src/misc/lv_tlsf.c ****     if(block_can_split(block, size)) {
 1997              		.loc 1 729 5 view .LVU575
 1998 0008 0846     		mov	r0, r1
 1999              	.LVL193:
 729:Drivers/lvgl/src/misc/lv_tlsf.c ****     if(block_can_split(block, size)) {
 2000              		.loc 1 729 5 is_stmt 0 view .LVU576
 2001 000a FFF7FEFF 		bl	block_is_free
 2002              	.LVL194:
 729:Drivers/lvgl/src/misc/lv_tlsf.c ****     if(block_can_split(block, size)) {
 2003              		.loc 1 729 5 view .LVU577
 2004 000e 00B1     		cbz	r0, .L130
 2005              	.L131:
 729:Drivers/lvgl/src/misc/lv_tlsf.c ****     if(block_can_split(block, size)) {
 2006              		.loc 1 729 5 is_stmt 1 discriminator 1 view .LVU578
 729:Drivers/lvgl/src/misc/lv_tlsf.c ****     if(block_can_split(block, size)) {
 2007              		.loc 1 729 5 discriminator 1 view .LVU579
 729:Drivers/lvgl/src/misc/lv_tlsf.c ****     if(block_can_split(block, size)) {
 2008              		.loc 1 729 5 discriminator 1 view .LVU580
 729:Drivers/lvgl/src/misc/lv_tlsf.c ****     if(block_can_split(block, size)) {
 2009              		.loc 1 729 5 discriminator 1 view .LVU581
 729:Drivers/lvgl/src/misc/lv_tlsf.c ****     if(block_can_split(block, size)) {
 2010              		.loc 1 729 5 discriminator 1 view .LVU582
 2011 0010 FEE7     		b	.L131
 2012              	.L130:
 729:Drivers/lvgl/src/misc/lv_tlsf.c ****     if(block_can_split(block, size)) {
 2013              		.loc 1 729 5 discriminator 2 view .LVU583
 730:Drivers/lvgl/src/misc/lv_tlsf.c ****         /* If the next block is free, we must coalesce. */
 2014              		.loc 1 730 5 discriminator 2 view .LVU584
 730:Drivers/lvgl/src/misc/lv_tlsf.c ****         /* If the next block is free, we must coalesce. */
 2015              		.loc 1 730 8 is_stmt 0 discriminator 2 view .LVU585
 2016 0012 2946     		mov	r1, r5
 2017 0014 2046     		mov	r0, r4
 2018 0016 FFF7FEFF 		bl	block_can_split
 2019              	.LVL195:
 730:Drivers/lvgl/src/misc/lv_tlsf.c ****         /* If the next block is free, we must coalesce. */
 2020              		.loc 1 730 7 discriminator 2 view .LVU586
 2021 001a 00B9     		cbnz	r0, .L134
ARM GAS  /var/folders/0z/tsy30v1j4xl4_7kw94k978ww0000gn/T//ccByTTYT.s 			page 55


 2022              	.LVL196:
 2023              	.L129:
 738:Drivers/lvgl/src/misc/lv_tlsf.c **** 
 2024              		.loc 1 738 1 view .LVU587
 2025 001c 70BD     		pop	{r4, r5, r6, pc}
 2026              	.LVL197:
 2027              	.L134:
 2028              	.LBB5:
 732:Drivers/lvgl/src/misc/lv_tlsf.c ****         block_set_prev_used(remaining_block);
 2029              		.loc 1 732 9 is_stmt 1 view .LVU588
 732:Drivers/lvgl/src/misc/lv_tlsf.c ****         block_set_prev_used(remaining_block);
 2030              		.loc 1 732 44 is_stmt 0 view .LVU589
 2031 001e 2946     		mov	r1, r5
 2032 0020 2046     		mov	r0, r4
 2033 0022 FFF7FEFF 		bl	block_split
 2034              	.LVL198:
 2035 0026 0446     		mov	r4, r0
 2036              	.LVL199:
 733:Drivers/lvgl/src/misc/lv_tlsf.c **** 
 2037              		.loc 1 733 9 is_stmt 1 view .LVU590
 2038 0028 FFF7FEFF 		bl	block_set_prev_used
 2039              	.LVL200:
 735:Drivers/lvgl/src/misc/lv_tlsf.c ****         block_insert(control, remaining_block);
 2040              		.loc 1 735 9 view .LVU591
 735:Drivers/lvgl/src/misc/lv_tlsf.c ****         block_insert(control, remaining_block);
 2041              		.loc 1 735 27 is_stmt 0 view .LVU592
 2042 002c 2146     		mov	r1, r4
 2043 002e 3046     		mov	r0, r6
 2044 0030 FFF7FEFF 		bl	block_merge_next
 2045              	.LVL201:
 2046 0034 0146     		mov	r1, r0
 2047              	.LVL202:
 736:Drivers/lvgl/src/misc/lv_tlsf.c ****     }
 2048              		.loc 1 736 9 is_stmt 1 view .LVU593
 2049 0036 3046     		mov	r0, r6
 2050              	.LVL203:
 736:Drivers/lvgl/src/misc/lv_tlsf.c ****     }
 2051              		.loc 1 736 9 is_stmt 0 view .LVU594
 2052 0038 FFF7FEFF 		bl	block_insert
 2053              	.LVL204:
 736:Drivers/lvgl/src/misc/lv_tlsf.c ****     }
 2054              		.loc 1 736 9 view .LVU595
 2055              	.LBE5:
 738:Drivers/lvgl/src/misc/lv_tlsf.c **** 
 2056              		.loc 1 738 1 view .LVU596
 2057 003c EEE7     		b	.L129
 2058              		.cfi_endproc
 2059              	.LFE37:
 2061              		.section	.text.mapping_search,"ax",%progbits
 2062              		.align	1
 2063              		.syntax unified
 2064              		.thumb
 2065              		.thumb_func
 2067              	mapping_search:
 2068              	.LVL205:
 2069              	.LFB25:
 547:Drivers/lvgl/src/misc/lv_tlsf.c ****     if(size >= SMALL_BLOCK_SIZE) {
ARM GAS  /var/folders/0z/tsy30v1j4xl4_7kw94k978ww0000gn/T//ccByTTYT.s 			page 56


 2070              		.loc 1 547 1 is_stmt 1 view -0
 2071              		.cfi_startproc
 2072              		@ args = 0, pretend = 0, frame = 0
 2073              		@ frame_needed = 0, uses_anonymous_args = 0
 547:Drivers/lvgl/src/misc/lv_tlsf.c ****     if(size >= SMALL_BLOCK_SIZE) {
 2074              		.loc 1 547 1 is_stmt 0 view .LVU598
 2075 0000 70B5     		push	{r4, r5, r6, lr}
 2076              		.cfi_def_cfa_offset 16
 2077              		.cfi_offset 4, -16
 2078              		.cfi_offset 5, -12
 2079              		.cfi_offset 6, -8
 2080              		.cfi_offset 14, -4
 2081 0002 0446     		mov	r4, r0
 2082 0004 0D46     		mov	r5, r1
 2083 0006 1646     		mov	r6, r2
 548:Drivers/lvgl/src/misc/lv_tlsf.c ****         const size_t round = (1 << (tlsf_fls_sizet(size) - SL_INDEX_COUNT_LOG2)) - 1;
 2084              		.loc 1 548 5 is_stmt 1 view .LVU599
 548:Drivers/lvgl/src/misc/lv_tlsf.c ****         const size_t round = (1 << (tlsf_fls_sizet(size) - SL_INDEX_COUNT_LOG2)) - 1;
 2085              		.loc 1 548 7 is_stmt 0 view .LVU600
 2086 0008 7F28     		cmp	r0, #127
 2087 000a 06D9     		bls	.L136
 2088              	.LBB6:
 549:Drivers/lvgl/src/misc/lv_tlsf.c ****         size += round;
 2089              		.loc 1 549 9 is_stmt 1 view .LVU601
 549:Drivers/lvgl/src/misc/lv_tlsf.c ****         size += round;
 2090              		.loc 1 549 37 is_stmt 0 view .LVU602
 2091 000c FFF7FEFF 		bl	tlsf_fls
 2092              	.LVL206:
 549:Drivers/lvgl/src/misc/lv_tlsf.c ****         size += round;
 2093              		.loc 1 549 58 view .LVU603
 2094 0010 0538     		subs	r0, r0, #5
 549:Drivers/lvgl/src/misc/lv_tlsf.c ****         size += round;
 2095              		.loc 1 549 33 view .LVU604
 2096 0012 0123     		movs	r3, #1
 2097 0014 8340     		lsls	r3, r3, r0
 549:Drivers/lvgl/src/misc/lv_tlsf.c ****         size += round;
 2098              		.loc 1 549 82 view .LVU605
 2099 0016 013B     		subs	r3, r3, #1
 2100              	.LVL207:
 550:Drivers/lvgl/src/misc/lv_tlsf.c ****     }
 2101              		.loc 1 550 9 is_stmt 1 view .LVU606
 550:Drivers/lvgl/src/misc/lv_tlsf.c ****     }
 2102              		.loc 1 550 14 is_stmt 0 view .LVU607
 2103 0018 1C44     		add	r4, r4, r3
 2104              	.LVL208:
 2105              	.L136:
 550:Drivers/lvgl/src/misc/lv_tlsf.c ****     }
 2106              		.loc 1 550 14 view .LVU608
 2107              	.LBE6:
 552:Drivers/lvgl/src/misc/lv_tlsf.c **** }
 2108              		.loc 1 552 5 is_stmt 1 view .LVU609
 2109 001a 3246     		mov	r2, r6
 2110 001c 2946     		mov	r1, r5
 2111 001e 2046     		mov	r0, r4
 2112 0020 FFF7FEFF 		bl	mapping_insert
 2113              	.LVL209:
 553:Drivers/lvgl/src/misc/lv_tlsf.c **** 
ARM GAS  /var/folders/0z/tsy30v1j4xl4_7kw94k978ww0000gn/T//ccByTTYT.s 			page 57


 2114              		.loc 1 553 1 is_stmt 0 view .LVU610
 2115 0024 70BD     		pop	{r4, r5, r6, pc}
 553:Drivers/lvgl/src/misc/lv_tlsf.c **** 
 2116              		.loc 1 553 1 view .LVU611
 2117              		.cfi_endproc
 2118              	.LFE25:
 2120              		.section	.text.tlsf_ffs,"ax",%progbits
 2121              		.align	1
 2122              		.syntax unified
 2123              		.thumb
 2124              		.thumb_func
 2126              	tlsf_ffs:
 2127              	.LVL210:
 2128              	.LFB1:
  95:Drivers/lvgl/src/misc/lv_tlsf.c ****     return __builtin_ffs(word) - 1;
 2129              		.loc 1 95 1 is_stmt 1 view -0
 2130              		.cfi_startproc
 2131              		@ args = 0, pretend = 0, frame = 0
 2132              		@ frame_needed = 0, uses_anonymous_args = 0
 2133              		@ link register save eliminated.
  95:Drivers/lvgl/src/misc/lv_tlsf.c ****     return __builtin_ffs(word) - 1;
 2134              		.loc 1 95 1 is_stmt 0 view .LVU613
 2135 0000 0346     		mov	r3, r0
  96:Drivers/lvgl/src/misc/lv_tlsf.c **** }
 2136              		.loc 1 96 5 is_stmt 1 view .LVU614
  96:Drivers/lvgl/src/misc/lv_tlsf.c **** }
 2137              		.loc 1 96 12 is_stmt 0 view .LVU615
 2138 0002 90FAA0F0 		rbit	r0, r0
 2139              	.LVL211:
  96:Drivers/lvgl/src/misc/lv_tlsf.c **** }
 2140              		.loc 1 96 12 view .LVU616
 2141 0006 B0FA80F0 		clz	r0, r0
 2142 000a 0BB9     		cbnz	r3, .L139
 2143 000c 4FF0FF30 		mov	r0, #-1
 2144              	.L139:
  97:Drivers/lvgl/src/misc/lv_tlsf.c **** 
 2145              		.loc 1 97 1 view .LVU617
 2146 0010 7047     		bx	lr
 2147              		.cfi_endproc
 2148              	.LFE1:
 2150              		.section	.text.search_suitable_block,"ax",%progbits
 2151              		.align	1
 2152              		.syntax unified
 2153              		.thumb
 2154              		.thumb_func
 2156              	search_suitable_block:
 2157              	.LVL212:
 2158              	.LFB26:
 556:Drivers/lvgl/src/misc/lv_tlsf.c ****     int fl = *fli;
 2159              		.loc 1 556 1 is_stmt 1 view -0
 2160              		.cfi_startproc
 2161              		@ args = 0, pretend = 0, frame = 0
 2162              		@ frame_needed = 0, uses_anonymous_args = 0
 556:Drivers/lvgl/src/misc/lv_tlsf.c ****     int fl = *fli;
 2163              		.loc 1 556 1 is_stmt 0 view .LVU619
 2164 0000 F8B5     		push	{r3, r4, r5, r6, r7, lr}
 2165              		.cfi_def_cfa_offset 24
ARM GAS  /var/folders/0z/tsy30v1j4xl4_7kw94k978ww0000gn/T//ccByTTYT.s 			page 58


 2166              		.cfi_offset 3, -24
 2167              		.cfi_offset 4, -20
 2168              		.cfi_offset 5, -16
 2169              		.cfi_offset 6, -12
 2170              		.cfi_offset 7, -8
 2171              		.cfi_offset 14, -4
 2172 0002 0546     		mov	r5, r0
 2173 0004 1646     		mov	r6, r2
 557:Drivers/lvgl/src/misc/lv_tlsf.c ****     int sl = *sli;
 2174              		.loc 1 557 5 is_stmt 1 view .LVU620
 557:Drivers/lvgl/src/misc/lv_tlsf.c ****     int sl = *sli;
 2175              		.loc 1 557 9 is_stmt 0 view .LVU621
 2176 0006 0C68     		ldr	r4, [r1]
 2177              	.LVL213:
 558:Drivers/lvgl/src/misc/lv_tlsf.c **** 
 2178              		.loc 1 558 5 is_stmt 1 view .LVU622
 558:Drivers/lvgl/src/misc/lv_tlsf.c **** 
 2179              		.loc 1 558 9 is_stmt 0 view .LVU623
 2180 0008 1268     		ldr	r2, [r2]
 2181              	.LVL214:
 564:Drivers/lvgl/src/misc/lv_tlsf.c ****     if(!sl_map) {
 2182              		.loc 1 564 5 is_stmt 1 view .LVU624
 564:Drivers/lvgl/src/misc/lv_tlsf.c ****     if(!sl_map) {
 2183              		.loc 1 564 45 is_stmt 0 view .LVU625
 2184 000a 231D     		adds	r3, r4, #4
 2185 000c 00EB8303 		add	r3, r0, r3, lsl #2
 2186 0010 5B68     		ldr	r3, [r3, #4]
 564:Drivers/lvgl/src/misc/lv_tlsf.c ****     if(!sl_map) {
 2187              		.loc 1 564 57 view .LVU626
 2188 0012 4FF0FF30 		mov	r0, #-1
 2189              	.LVL215:
 564:Drivers/lvgl/src/misc/lv_tlsf.c ****     if(!sl_map) {
 2190              		.loc 1 564 57 view .LVU627
 2191 0016 9040     		lsls	r0, r0, r2
 2192              	.LVL216:
 565:Drivers/lvgl/src/misc/lv_tlsf.c ****         /* No block exists. Search in the next largest first-level list. */
 2193              		.loc 1 565 5 is_stmt 1 view .LVU628
 565:Drivers/lvgl/src/misc/lv_tlsf.c ****         /* No block exists. Search in the next largest first-level list. */
 2194              		.loc 1 565 7 is_stmt 0 view .LVU629
 2195 0018 1840     		ands	r0, r3, r0
 2196              	.LVL217:
 565:Drivers/lvgl/src/misc/lv_tlsf.c ****         /* No block exists. Search in the next largest first-level list. */
 2197              		.loc 1 565 7 view .LVU630
 2198 001a 10D1     		bne	.L141
 2199 001c 0F46     		mov	r7, r1
 2200              	.LBB7:
 567:Drivers/lvgl/src/misc/lv_tlsf.c ****         if(!fl_map) {
 2201              		.loc 1 567 9 is_stmt 1 view .LVU631
 567:Drivers/lvgl/src/misc/lv_tlsf.c ****         if(!fl_map) {
 2202              		.loc 1 567 44 is_stmt 0 view .LVU632
 2203 001e 2A69     		ldr	r2, [r5, #16]
 2204              	.LVL218:
 567:Drivers/lvgl/src/misc/lv_tlsf.c ****         if(!fl_map) {
 2205              		.loc 1 567 70 view .LVU633
 2206 0020 0134     		adds	r4, r4, #1
 2207              	.LVL219:
 567:Drivers/lvgl/src/misc/lv_tlsf.c ****         if(!fl_map) {
ARM GAS  /var/folders/0z/tsy30v1j4xl4_7kw94k978ww0000gn/T//ccByTTYT.s 			page 59


 2208              		.loc 1 567 63 view .LVU634
 2209 0022 4FF0FF33 		mov	r3, #-1
 2210 0026 A340     		lsls	r3, r3, r4
 2211              	.LVL220:
 568:Drivers/lvgl/src/misc/lv_tlsf.c ****             /* No free blocks available, memory has been exhausted. */
 2212              		.loc 1 568 9 is_stmt 1 view .LVU635
 568:Drivers/lvgl/src/misc/lv_tlsf.c ****             /* No free blocks available, memory has been exhausted. */
 2213              		.loc 1 568 11 is_stmt 0 view .LVU636
 2214 0028 12EA0300 		ands	r0, r2, r3
 2215              	.LVL221:
 568:Drivers/lvgl/src/misc/lv_tlsf.c ****             /* No free blocks available, memory has been exhausted. */
 2216              		.loc 1 568 11 view .LVU637
 2217 002c 12D0     		beq	.L145
 573:Drivers/lvgl/src/misc/lv_tlsf.c ****         *fli = fl;
 2218              		.loc 1 573 9 is_stmt 1 view .LVU638
 573:Drivers/lvgl/src/misc/lv_tlsf.c ****         *fli = fl;
 2219              		.loc 1 573 14 is_stmt 0 view .LVU639
 2220 002e FFF7FEFF 		bl	tlsf_ffs
 2221              	.LVL222:
 573:Drivers/lvgl/src/misc/lv_tlsf.c ****         *fli = fl;
 2222              		.loc 1 573 14 view .LVU640
 2223 0032 0446     		mov	r4, r0
 2224              	.LVL223:
 574:Drivers/lvgl/src/misc/lv_tlsf.c ****         sl_map = control->sl_bitmap[fl];
 2225              		.loc 1 574 9 is_stmt 1 view .LVU641
 574:Drivers/lvgl/src/misc/lv_tlsf.c ****         sl_map = control->sl_bitmap[fl];
 2226              		.loc 1 574 14 is_stmt 0 view .LVU642
 2227 0034 3860     		str	r0, [r7]
 575:Drivers/lvgl/src/misc/lv_tlsf.c ****     }
 2228              		.loc 1 575 9 is_stmt 1 view .LVU643
 575:Drivers/lvgl/src/misc/lv_tlsf.c ****     }
 2229              		.loc 1 575 16 is_stmt 0 view .LVU644
 2230 0036 031D     		adds	r3, r0, #4
 2231 0038 05EB8303 		add	r3, r5, r3, lsl #2
 2232 003c 5868     		ldr	r0, [r3, #4]
 2233              	.LVL224:
 2234              	.L141:
 575:Drivers/lvgl/src/misc/lv_tlsf.c ****     }
 2235              		.loc 1 575 16 view .LVU645
 2236              	.LBE7:
 577:Drivers/lvgl/src/misc/lv_tlsf.c ****     sl = tlsf_ffs(sl_map);
 2237              		.loc 1 577 5 is_stmt 1 view .LVU646
 577:Drivers/lvgl/src/misc/lv_tlsf.c ****     sl = tlsf_ffs(sl_map);
 2238              		.loc 1 577 5 view .LVU647
 2239 003e 00B9     		cbnz	r0, .L143
 2240              	.L144:
 577:Drivers/lvgl/src/misc/lv_tlsf.c ****     sl = tlsf_ffs(sl_map);
 2241              		.loc 1 577 5 discriminator 1 view .LVU648
 577:Drivers/lvgl/src/misc/lv_tlsf.c ****     sl = tlsf_ffs(sl_map);
 2242              		.loc 1 577 5 discriminator 1 view .LVU649
 577:Drivers/lvgl/src/misc/lv_tlsf.c ****     sl = tlsf_ffs(sl_map);
 2243              		.loc 1 577 5 discriminator 1 view .LVU650
 577:Drivers/lvgl/src/misc/lv_tlsf.c ****     sl = tlsf_ffs(sl_map);
 2244              		.loc 1 577 5 discriminator 1 view .LVU651
 577:Drivers/lvgl/src/misc/lv_tlsf.c ****     sl = tlsf_ffs(sl_map);
 2245              		.loc 1 577 5 discriminator 1 view .LVU652
 2246 0040 FEE7     		b	.L144
ARM GAS  /var/folders/0z/tsy30v1j4xl4_7kw94k978ww0000gn/T//ccByTTYT.s 			page 60


 2247              	.L143:
 577:Drivers/lvgl/src/misc/lv_tlsf.c ****     sl = tlsf_ffs(sl_map);
 2248              		.loc 1 577 5 discriminator 2 view .LVU653
 578:Drivers/lvgl/src/misc/lv_tlsf.c ****     *sli = sl;
 2249              		.loc 1 578 5 discriminator 2 view .LVU654
 578:Drivers/lvgl/src/misc/lv_tlsf.c ****     *sli = sl;
 2250              		.loc 1 578 10 is_stmt 0 discriminator 2 view .LVU655
 2251 0042 FFF7FEFF 		bl	tlsf_ffs
 2252              	.LVL225:
 579:Drivers/lvgl/src/misc/lv_tlsf.c **** 
 2253              		.loc 1 579 5 is_stmt 1 discriminator 2 view .LVU656
 579:Drivers/lvgl/src/misc/lv_tlsf.c **** 
 2254              		.loc 1 579 10 is_stmt 0 discriminator 2 view .LVU657
 2255 0046 3060     		str	r0, [r6]
 582:Drivers/lvgl/src/misc/lv_tlsf.c **** }
 2256              		.loc 1 582 5 is_stmt 1 discriminator 2 view .LVU658
 582:Drivers/lvgl/src/misc/lv_tlsf.c **** }
 2257              		.loc 1 582 31 is_stmt 0 discriminator 2 view .LVU659
 2258 0048 00EB4413 		add	r3, r0, r4, lsl #5
 2259 004c 0C33     		adds	r3, r3, #12
 2260 004e 55F82300 		ldr	r0, [r5, r3, lsl #2]
 2261              	.LVL226:
 2262              	.L140:
 583:Drivers/lvgl/src/misc/lv_tlsf.c **** 
 2263              		.loc 1 583 1 view .LVU660
 2264 0052 F8BD     		pop	{r3, r4, r5, r6, r7, pc}
 2265              	.LVL227:
 2266              	.L145:
 2267              	.LBB8:
 570:Drivers/lvgl/src/misc/lv_tlsf.c ****         }
 2268              		.loc 1 570 20 view .LVU661
 2269 0054 0020     		movs	r0, #0
 2270              	.LVL228:
 570:Drivers/lvgl/src/misc/lv_tlsf.c ****         }
 2271              		.loc 1 570 20 view .LVU662
 2272 0056 FCE7     		b	.L140
 2273              	.LBE8:
 2274              		.cfi_endproc
 2275              	.LFE26:
 2277              		.section	.text.block_locate_free,"ax",%progbits
 2278              		.align	1
 2279              		.syntax unified
 2280              		.thumb
 2281              		.thumb_func
 2283              	block_locate_free:
 2284              	.LVL229:
 2285              	.LFB39:
 756:Drivers/lvgl/src/misc/lv_tlsf.c ****     int fl = 0, sl = 0;
 2286              		.loc 1 756 1 is_stmt 1 view -0
 2287              		.cfi_startproc
 2288              		@ args = 0, pretend = 0, frame = 8
 2289              		@ frame_needed = 0, uses_anonymous_args = 0
 756:Drivers/lvgl/src/misc/lv_tlsf.c ****     int fl = 0, sl = 0;
 2290              		.loc 1 756 1 is_stmt 0 view .LVU664
 2291 0000 70B5     		push	{r4, r5, r6, lr}
 2292              		.cfi_def_cfa_offset 16
 2293              		.cfi_offset 4, -16
ARM GAS  /var/folders/0z/tsy30v1j4xl4_7kw94k978ww0000gn/T//ccByTTYT.s 			page 61


 2294              		.cfi_offset 5, -12
 2295              		.cfi_offset 6, -8
 2296              		.cfi_offset 14, -4
 2297 0002 82B0     		sub	sp, sp, #8
 2298              		.cfi_def_cfa_offset 24
 757:Drivers/lvgl/src/misc/lv_tlsf.c ****     block_header_t * block = 0;
 2299              		.loc 1 757 5 is_stmt 1 view .LVU665
 757:Drivers/lvgl/src/misc/lv_tlsf.c ****     block_header_t * block = 0;
 2300              		.loc 1 757 9 is_stmt 0 view .LVU666
 2301 0004 0023     		movs	r3, #0
 2302 0006 0193     		str	r3, [sp, #4]
 757:Drivers/lvgl/src/misc/lv_tlsf.c ****     block_header_t * block = 0;
 2303              		.loc 1 757 17 view .LVU667
 2304 0008 0093     		str	r3, [sp]
 758:Drivers/lvgl/src/misc/lv_tlsf.c **** 
 2305              		.loc 1 758 5 is_stmt 1 view .LVU668
 2306              	.LVL230:
 760:Drivers/lvgl/src/misc/lv_tlsf.c ****         mapping_search(size, &fl, &sl);
 2307              		.loc 1 760 5 view .LVU669
 760:Drivers/lvgl/src/misc/lv_tlsf.c ****         mapping_search(size, &fl, &sl);
 2308              		.loc 1 760 7 is_stmt 0 view .LVU670
 2309 000a E1B1     		cbz	r1, .L151
 2310 000c 0446     		mov	r4, r0
 2311 000e 0E46     		mov	r6, r1
 761:Drivers/lvgl/src/misc/lv_tlsf.c **** 
 2312              		.loc 1 761 9 is_stmt 1 view .LVU671
 2313 0010 6A46     		mov	r2, sp
 2314 0012 01A9     		add	r1, sp, #4
 2315              	.LVL231:
 761:Drivers/lvgl/src/misc/lv_tlsf.c **** 
 2316              		.loc 1 761 9 is_stmt 0 view .LVU672
 2317 0014 3046     		mov	r0, r6
 2318              	.LVL232:
 761:Drivers/lvgl/src/misc/lv_tlsf.c **** 
 2319              		.loc 1 761 9 view .LVU673
 2320 0016 FFF7FEFF 		bl	mapping_search
 2321              	.LVL233:
 769:Drivers/lvgl/src/misc/lv_tlsf.c ****             block = search_suitable_block(control, &fl, &sl);
 2322              		.loc 1 769 9 is_stmt 1 view .LVU674
 769:Drivers/lvgl/src/misc/lv_tlsf.c ****             block = search_suitable_block(control, &fl, &sl);
 2323              		.loc 1 769 15 is_stmt 0 view .LVU675
 2324 001a 019B     		ldr	r3, [sp, #4]
 769:Drivers/lvgl/src/misc/lv_tlsf.c ****             block = search_suitable_block(control, &fl, &sl);
 2325              		.loc 1 769 11 view .LVU676
 2326 001c 062B     		cmp	r3, #6
 2327 001e 16DC     		bgt	.L152
 770:Drivers/lvgl/src/misc/lv_tlsf.c ****         }
 2328              		.loc 1 770 13 is_stmt 1 view .LVU677
 770:Drivers/lvgl/src/misc/lv_tlsf.c ****         }
 2329              		.loc 1 770 21 is_stmt 0 view .LVU678
 2330 0020 6A46     		mov	r2, sp
 2331 0022 01A9     		add	r1, sp, #4
 2332 0024 2046     		mov	r0, r4
 2333 0026 FFF7FEFF 		bl	search_suitable_block
 2334              	.LVL234:
 774:Drivers/lvgl/src/misc/lv_tlsf.c ****         tlsf_assert(block_size(block) >= size);
 2335              		.loc 1 774 5 is_stmt 1 view .LVU679
ARM GAS  /var/folders/0z/tsy30v1j4xl4_7kw94k978ww0000gn/T//ccByTTYT.s 			page 62


 774:Drivers/lvgl/src/misc/lv_tlsf.c ****         tlsf_assert(block_size(block) >= size);
 2336              		.loc 1 774 7 is_stmt 0 view .LVU680
 2337 002a 0546     		mov	r5, r0
 2338 002c 60B1     		cbz	r0, .L147
 775:Drivers/lvgl/src/misc/lv_tlsf.c ****         remove_free_block(control, block, fl, sl);
 2339              		.loc 1 775 9 is_stmt 1 view .LVU681
 775:Drivers/lvgl/src/misc/lv_tlsf.c ****         remove_free_block(control, block, fl, sl);
 2340              		.loc 1 775 9 view .LVU682
 2341 002e FFF7FEFF 		bl	block_size
 2342              	.LVL235:
 775:Drivers/lvgl/src/misc/lv_tlsf.c ****         remove_free_block(control, block, fl, sl);
 2343              		.loc 1 775 9 is_stmt 0 view .LVU683
 2344 0032 B042     		cmp	r0, r6
 2345 0034 00D2     		bcs	.L149
 2346              	.L150:
 775:Drivers/lvgl/src/misc/lv_tlsf.c ****         remove_free_block(control, block, fl, sl);
 2347              		.loc 1 775 9 is_stmt 1 discriminator 1 view .LVU684
 775:Drivers/lvgl/src/misc/lv_tlsf.c ****         remove_free_block(control, block, fl, sl);
 2348              		.loc 1 775 9 discriminator 1 view .LVU685
 775:Drivers/lvgl/src/misc/lv_tlsf.c ****         remove_free_block(control, block, fl, sl);
 2349              		.loc 1 775 9 discriminator 1 view .LVU686
 775:Drivers/lvgl/src/misc/lv_tlsf.c ****         remove_free_block(control, block, fl, sl);
 2350              		.loc 1 775 9 discriminator 1 view .LVU687
 775:Drivers/lvgl/src/misc/lv_tlsf.c ****         remove_free_block(control, block, fl, sl);
 2351              		.loc 1 775 9 discriminator 1 view .LVU688
 2352 0036 FEE7     		b	.L150
 2353              	.L149:
 775:Drivers/lvgl/src/misc/lv_tlsf.c ****         remove_free_block(control, block, fl, sl);
 2354              		.loc 1 775 9 discriminator 2 view .LVU689
 776:Drivers/lvgl/src/misc/lv_tlsf.c ****     }
 2355              		.loc 1 776 9 discriminator 2 view .LVU690
 2356 0038 009B     		ldr	r3, [sp]
 2357 003a 019A     		ldr	r2, [sp, #4]
 2358 003c 2946     		mov	r1, r5
 2359 003e 2046     		mov	r0, r4
 2360 0040 FFF7FEFF 		bl	remove_free_block
 2361              	.LVL236:
 2362 0044 00E0     		b	.L147
 2363              	.LVL237:
 2364              	.L151:
 758:Drivers/lvgl/src/misc/lv_tlsf.c **** 
 2365              		.loc 1 758 22 is_stmt 0 view .LVU691
 2366 0046 0025     		movs	r5, #0
 2367              	.LVL238:
 2368              	.L147:
 780:Drivers/lvgl/src/misc/lv_tlsf.c **** 
 2369              		.loc 1 780 1 view .LVU692
 2370 0048 2846     		mov	r0, r5
 2371 004a 02B0     		add	sp, sp, #8
 2372              		.cfi_remember_state
 2373              		.cfi_def_cfa_offset 16
 2374              		@ sp needed
 2375 004c 70BD     		pop	{r4, r5, r6, pc}
 2376              	.LVL239:
 2377              	.L152:
 2378              		.cfi_restore_state
 758:Drivers/lvgl/src/misc/lv_tlsf.c **** 
ARM GAS  /var/folders/0z/tsy30v1j4xl4_7kw94k978ww0000gn/T//ccByTTYT.s 			page 63


 2379              		.loc 1 758 22 view .LVU693
 2380 004e 0025     		movs	r5, #0
 2381              	.LVL240:
 779:Drivers/lvgl/src/misc/lv_tlsf.c **** }
 2382              		.loc 1 779 5 is_stmt 1 view .LVU694
 779:Drivers/lvgl/src/misc/lv_tlsf.c **** }
 2383              		.loc 1 779 12 is_stmt 0 view .LVU695
 2384 0050 FAE7     		b	.L147
 2385              		.cfi_endproc
 2386              	.LFE39:
 2388              		.section	.text.lv_tlsf_check,"ax",%progbits
 2389              		.align	1
 2390              		.global	lv_tlsf_check
 2391              		.syntax unified
 2392              		.thumb
 2393              		.thumb_func
 2395              	lv_tlsf_check:
 2396              	.LVL241:
 2397              	.LFB43:
 840:Drivers/lvgl/src/misc/lv_tlsf.c ****     int i, j;
 2398              		.loc 1 840 1 is_stmt 1 view -0
 2399              		.cfi_startproc
 2400              		@ args = 0, pretend = 0, frame = 8
 2401              		@ frame_needed = 0, uses_anonymous_args = 0
 840:Drivers/lvgl/src/misc/lv_tlsf.c ****     int i, j;
 2402              		.loc 1 840 1 is_stmt 0 view .LVU697
 2403 0000 2DE9F041 		push	{r4, r5, r6, r7, r8, lr}
 2404              		.cfi_def_cfa_offset 24
 2405              		.cfi_offset 4, -24
 2406              		.cfi_offset 5, -20
 2407              		.cfi_offset 6, -16
 2408              		.cfi_offset 7, -12
 2409              		.cfi_offset 8, -8
 2410              		.cfi_offset 14, -4
 2411 0004 82B0     		sub	sp, sp, #8
 2412              		.cfi_def_cfa_offset 32
 2413 0006 0546     		mov	r5, r0
 841:Drivers/lvgl/src/misc/lv_tlsf.c **** 
 2414              		.loc 1 841 5 is_stmt 1 view .LVU698
 843:Drivers/lvgl/src/misc/lv_tlsf.c ****     int status = 0;
 2415              		.loc 1 843 5 view .LVU699
 2416              	.LVL242:
 844:Drivers/lvgl/src/misc/lv_tlsf.c **** 
 2417              		.loc 1 844 5 view .LVU700
 847:Drivers/lvgl/src/misc/lv_tlsf.c ****         for(j = 0; j < SL_INDEX_COUNT; ++j) {
 2418              		.loc 1 847 5 view .LVU701
 847:Drivers/lvgl/src/misc/lv_tlsf.c ****         for(j = 0; j < SL_INDEX_COUNT; ++j) {
 2419              		.loc 1 847 11 is_stmt 0 view .LVU702
 2420 0008 0026     		movs	r6, #0
 2421              	.LVL243:
 2422              	.L155:
 847:Drivers/lvgl/src/misc/lv_tlsf.c ****         for(j = 0; j < SL_INDEX_COUNT; ++j) {
 2423              		.loc 1 847 18 is_stmt 1 discriminator 1 view .LVU703
 2424 000a 062E     		cmp	r6, #6
 2425 000c 4FDC     		bgt	.L182
 848:Drivers/lvgl/src/misc/lv_tlsf.c ****             const int fl_map = control->fl_bitmap & (1U << i);
 2426              		.loc 1 848 15 is_stmt 0 view .LVU704
ARM GAS  /var/folders/0z/tsy30v1j4xl4_7kw94k978ww0000gn/T//ccByTTYT.s 			page 64


 2427 000e 0027     		movs	r7, #0
 2428              	.L179:
 2429              	.LVL244:
 848:Drivers/lvgl/src/misc/lv_tlsf.c ****             const int fl_map = control->fl_bitmap & (1U << i);
 2430              		.loc 1 848 22 is_stmt 1 discriminator 1 view .LVU705
 2431 0010 1F2F     		cmp	r7, #31
 2432 0012 4ADC     		bgt	.L183
 2433              	.LBB9:
 849:Drivers/lvgl/src/misc/lv_tlsf.c ****             const int sl_list = control->sl_bitmap[i];
 2434              		.loc 1 849 13 view .LVU706
 849:Drivers/lvgl/src/misc/lv_tlsf.c ****             const int sl_list = control->sl_bitmap[i];
 2435              		.loc 1 849 39 is_stmt 0 view .LVU707
 2436 0014 2A69     		ldr	r2, [r5, #16]
 849:Drivers/lvgl/src/misc/lv_tlsf.c ****             const int sl_list = control->sl_bitmap[i];
 2437              		.loc 1 849 57 view .LVU708
 2438 0016 0123     		movs	r3, #1
 2439 0018 03FA06FC 		lsl	ip, r3, r6
 2440              	.LVL245:
 850:Drivers/lvgl/src/misc/lv_tlsf.c ****             const int sl_map = sl_list & (1U << j);
 2441              		.loc 1 850 13 is_stmt 1 view .LVU709
 850:Drivers/lvgl/src/misc/lv_tlsf.c ****             const int sl_map = sl_list & (1U << j);
 2442              		.loc 1 850 51 is_stmt 0 view .LVU710
 2443 001c 311D     		adds	r1, r6, #4
 2444 001e 05EB8101 		add	r1, r5, r1, lsl #2
 2445 0022 4868     		ldr	r0, [r1, #4]
 2446              	.LVL246:
 851:Drivers/lvgl/src/misc/lv_tlsf.c ****             const block_header_t * block = control->blocks[i][j];
 2447              		.loc 1 851 13 is_stmt 1 view .LVU711
 851:Drivers/lvgl/src/misc/lv_tlsf.c ****             const block_header_t * block = control->blocks[i][j];
 2448              		.loc 1 851 46 is_stmt 0 view .LVU712
 2449 0024 BB40     		lsls	r3, r3, r7
 851:Drivers/lvgl/src/misc/lv_tlsf.c ****             const block_header_t * block = control->blocks[i][j];
 2450              		.loc 1 851 40 view .LVU713
 2451 0026 0340     		ands	r3, r3, r0
 2452              	.LVL247:
 852:Drivers/lvgl/src/misc/lv_tlsf.c **** 
 2453              		.loc 1 852 13 is_stmt 1 view .LVU714
 852:Drivers/lvgl/src/misc/lv_tlsf.c **** 
 2454              		.loc 1 852 36 is_stmt 0 view .LVU715
 2455 0028 07EB4611 		add	r1, r7, r6, lsl #5
 2456 002c 0C31     		adds	r1, r1, #12
 2457 002e 55F82140 		ldr	r4, [r5, r1, lsl #2]
 2458              	.LVL248:
 855:Drivers/lvgl/src/misc/lv_tlsf.c ****                 tlsf_insist(!sl_map && "second-level map must be null");
 2459              		.loc 1 855 13 is_stmt 1 view .LVU716
 855:Drivers/lvgl/src/misc/lv_tlsf.c ****                 tlsf_insist(!sl_map && "second-level map must be null");
 2460              		.loc 1 855 15 is_stmt 0 view .LVU717
 2461 0032 12EA0C0F 		tst	r2, ip
 2462 0036 00D1     		bne	.L156
 856:Drivers/lvgl/src/misc/lv_tlsf.c ****             }
 2463              		.loc 1 856 17 is_stmt 1 view .LVU718
 856:Drivers/lvgl/src/misc/lv_tlsf.c ****             }
 2464              		.loc 1 856 17 view .LVU719
 2465 0038 1BB9     		cbnz	r3, .L157
 2466              	.L156:
 856:Drivers/lvgl/src/misc/lv_tlsf.c ****             }
 2467              		.loc 1 856 72 discriminator 5 view .LVU720
ARM GAS  /var/folders/0z/tsy30v1j4xl4_7kw94k978ww0000gn/T//ccByTTYT.s 			page 65


 859:Drivers/lvgl/src/misc/lv_tlsf.c ****                 tlsf_insist(block == &control->block_null && "block list must be null");
 2468              		.loc 1 859 13 discriminator 5 view .LVU721
 859:Drivers/lvgl/src/misc/lv_tlsf.c ****                 tlsf_insist(block == &control->block_null && "block list must be null");
 2469              		.loc 1 859 15 is_stmt 0 discriminator 5 view .LVU722
 2470 003a 1BB9     		cbnz	r3, .L158
 860:Drivers/lvgl/src/misc/lv_tlsf.c ****                 continue;
 2471              		.loc 1 860 17 is_stmt 1 view .LVU723
 860:Drivers/lvgl/src/misc/lv_tlsf.c ****                 continue;
 2472              		.loc 1 860 17 view .LVU724
 2473 003c A542     		cmp	r5, r4
 2474 003e 32D0     		beq	.L159
 2475              	.L160:
 860:Drivers/lvgl/src/misc/lv_tlsf.c ****                 continue;
 2476              		.loc 1 860 17 discriminator 2 view .LVU725
 860:Drivers/lvgl/src/misc/lv_tlsf.c ****                 continue;
 2477              		.loc 1 860 17 discriminator 2 view .LVU726
 860:Drivers/lvgl/src/misc/lv_tlsf.c ****                 continue;
 2478              		.loc 1 860 17 discriminator 2 view .LVU727
 860:Drivers/lvgl/src/misc/lv_tlsf.c ****                 continue;
 2479              		.loc 1 860 17 discriminator 2 view .LVU728
 860:Drivers/lvgl/src/misc/lv_tlsf.c ****                 continue;
 2480              		.loc 1 860 17 discriminator 2 view .LVU729
 2481 0040 FEE7     		b	.L160
 2482              	.L157:
 856:Drivers/lvgl/src/misc/lv_tlsf.c ****             }
 2483              		.loc 1 856 17 discriminator 1 view .LVU730
 856:Drivers/lvgl/src/misc/lv_tlsf.c ****             }
 2484              		.loc 1 856 17 discriminator 1 view .LVU731
 856:Drivers/lvgl/src/misc/lv_tlsf.c ****             }
 2485              		.loc 1 856 17 discriminator 1 view .LVU732
 856:Drivers/lvgl/src/misc/lv_tlsf.c ****             }
 2486              		.loc 1 856 17 discriminator 1 view .LVU733
 856:Drivers/lvgl/src/misc/lv_tlsf.c ****             }
 2487              		.loc 1 856 17 discriminator 1 view .LVU734
 2488 0042 FEE7     		b	.L157
 2489              	.L158:
 865:Drivers/lvgl/src/misc/lv_tlsf.c ****             tlsf_insist(block != &control->block_null && "block should not be null");
 2490              		.loc 1 865 13 view .LVU735
 865:Drivers/lvgl/src/misc/lv_tlsf.c ****             tlsf_insist(block != &control->block_null && "block should not be null");
 2491              		.loc 1 865 13 view .LVU736
 2492 0044 38B3     		cbz	r0, .L162
 865:Drivers/lvgl/src/misc/lv_tlsf.c ****             tlsf_insist(block != &control->block_null && "block should not be null");
 2493              		.loc 1 865 13 discriminator 5 view .LVU737
 865:Drivers/lvgl/src/misc/lv_tlsf.c ****             tlsf_insist(block != &control->block_null && "block should not be null");
 2494              		.loc 1 865 13 discriminator 5 view .LVU738
 865:Drivers/lvgl/src/misc/lv_tlsf.c ****             tlsf_insist(block != &control->block_null && "block should not be null");
 2495              		.loc 1 865 73 discriminator 5 view .LVU739
 866:Drivers/lvgl/src/misc/lv_tlsf.c **** 
 2496              		.loc 1 866 13 discriminator 5 view .LVU740
 866:Drivers/lvgl/src/misc/lv_tlsf.c **** 
 2497              		.loc 1 866 13 discriminator 5 view .LVU741
 2498 0046 A542     		cmp	r5, r4
 2499 0048 26D0     		beq	.L164
 2500              	.LVL249:
 2501              	.L163:
 868:Drivers/lvgl/src/misc/lv_tlsf.c ****                 int fli, sli;
 2502              		.loc 1 868 25 view .LVU742
ARM GAS  /var/folders/0z/tsy30v1j4xl4_7kw94k978ww0000gn/T//ccByTTYT.s 			page 66


 2503 004a A542     		cmp	r5, r4
 2504 004c 2BD0     		beq	.L159
 2505              	.LBB10:
 869:Drivers/lvgl/src/misc/lv_tlsf.c ****                 tlsf_insist(block_is_free(block) && "block should be free");
 2506              		.loc 1 869 17 view .LVU743
 870:Drivers/lvgl/src/misc/lv_tlsf.c ****                 tlsf_insist(!block_is_prev_free(block) && "blocks should have coalesced");
 2507              		.loc 1 870 17 view .LVU744
 870:Drivers/lvgl/src/misc/lv_tlsf.c ****                 tlsf_insist(!block_is_prev_free(block) && "blocks should have coalesced");
 2508              		.loc 1 870 17 view .LVU745
 2509 004e 2046     		mov	r0, r4
 2510 0050 FFF7FEFF 		bl	block_is_free
 2511              	.LVL250:
 2512 0054 08B3     		cbz	r0, .L166
 870:Drivers/lvgl/src/misc/lv_tlsf.c ****                 tlsf_insist(!block_is_prev_free(block) && "blocks should have coalesced");
 2513              		.loc 1 870 17 discriminator 9 view .LVU746
 870:Drivers/lvgl/src/misc/lv_tlsf.c ****                 tlsf_insist(!block_is_prev_free(block) && "blocks should have coalesced");
 2514              		.loc 1 870 17 discriminator 9 view .LVU747
 870:Drivers/lvgl/src/misc/lv_tlsf.c ****                 tlsf_insist(!block_is_prev_free(block) && "blocks should have coalesced");
 2515              		.loc 1 870 76 discriminator 9 view .LVU748
 871:Drivers/lvgl/src/misc/lv_tlsf.c ****                 tlsf_insist(!block_is_free(block_next(block)) && "blocks should have coalesced");
 2516              		.loc 1 871 17 discriminator 9 view .LVU749
 871:Drivers/lvgl/src/misc/lv_tlsf.c ****                 tlsf_insist(!block_is_free(block_next(block)) && "blocks should have coalesced");
 2517              		.loc 1 871 17 discriminator 9 view .LVU750
 2518 0056 2046     		mov	r0, r4
 2519 0058 FFF7FEFF 		bl	block_is_prev_free
 2520              	.LVL251:
 2521 005c F0B9     		cbnz	r0, .L168
 871:Drivers/lvgl/src/misc/lv_tlsf.c ****                 tlsf_insist(!block_is_free(block_next(block)) && "blocks should have coalesced");
 2522              		.loc 1 871 17 discriminator 5 view .LVU751
 871:Drivers/lvgl/src/misc/lv_tlsf.c ****                 tlsf_insist(!block_is_free(block_next(block)) && "blocks should have coalesced");
 2523              		.loc 1 871 17 discriminator 5 view .LVU752
 871:Drivers/lvgl/src/misc/lv_tlsf.c ****                 tlsf_insist(!block_is_free(block_next(block)) && "blocks should have coalesced");
 2524              		.loc 1 871 90 discriminator 5 view .LVU753
 872:Drivers/lvgl/src/misc/lv_tlsf.c ****                 tlsf_insist(block_is_prev_free(block_next(block)) && "block should be free");
 2525              		.loc 1 872 17 discriminator 5 view .LVU754
 872:Drivers/lvgl/src/misc/lv_tlsf.c ****                 tlsf_insist(block_is_prev_free(block_next(block)) && "block should be free");
 2526              		.loc 1 872 17 discriminator 5 view .LVU755
 2527 005e 2046     		mov	r0, r4
 2528 0060 FFF7FEFF 		bl	block_next
 2529              	.LVL252:
 2530 0064 8046     		mov	r8, r0
 2531 0066 FFF7FEFF 		bl	block_is_free
 2532              	.LVL253:
 2533 006a C0B9     		cbnz	r0, .L170
 872:Drivers/lvgl/src/misc/lv_tlsf.c ****                 tlsf_insist(block_is_prev_free(block_next(block)) && "block should be free");
 2534              		.loc 1 872 17 discriminator 5 view .LVU756
 872:Drivers/lvgl/src/misc/lv_tlsf.c ****                 tlsf_insist(block_is_prev_free(block_next(block)) && "block should be free");
 2535              		.loc 1 872 17 discriminator 5 view .LVU757
 872:Drivers/lvgl/src/misc/lv_tlsf.c ****                 tlsf_insist(block_is_prev_free(block_next(block)) && "block should be free");
 2536              		.loc 1 872 97 discriminator 5 view .LVU758
 873:Drivers/lvgl/src/misc/lv_tlsf.c ****                 tlsf_insist(block_size(block) >= block_size_min && "block not minimum size");
 2537              		.loc 1 873 17 discriminator 5 view .LVU759
 873:Drivers/lvgl/src/misc/lv_tlsf.c ****                 tlsf_insist(block_size(block) >= block_size_min && "block not minimum size");
 2538              		.loc 1 873 17 discriminator 5 view .LVU760
 2539 006c 4046     		mov	r0, r8
 2540 006e FFF7FEFF 		bl	block_is_prev_free
 2541              	.LVL254:
ARM GAS  /var/folders/0z/tsy30v1j4xl4_7kw94k978ww0000gn/T//ccByTTYT.s 			page 67


 2542 0072 A8B1     		cbz	r0, .L172
 873:Drivers/lvgl/src/misc/lv_tlsf.c ****                 tlsf_insist(block_size(block) >= block_size_min && "block not minimum size");
 2543              		.loc 1 873 17 discriminator 9 view .LVU761
 873:Drivers/lvgl/src/misc/lv_tlsf.c ****                 tlsf_insist(block_size(block) >= block_size_min && "block not minimum size");
 2544              		.loc 1 873 17 discriminator 9 view .LVU762
 873:Drivers/lvgl/src/misc/lv_tlsf.c ****                 tlsf_insist(block_size(block) >= block_size_min && "block not minimum size");
 2545              		.loc 1 873 93 discriminator 9 view .LVU763
 874:Drivers/lvgl/src/misc/lv_tlsf.c **** 
 2546              		.loc 1 874 17 discriminator 9 view .LVU764
 874:Drivers/lvgl/src/misc/lv_tlsf.c **** 
 2547              		.loc 1 874 17 discriminator 9 view .LVU765
 2548 0074 2046     		mov	r0, r4
 2549 0076 FFF7FEFF 		bl	block_size
 2550              	.LVL255:
 2551 007a 0B28     		cmp	r0, #11
 2552 007c 11D9     		bls	.L174
 874:Drivers/lvgl/src/misc/lv_tlsf.c **** 
 2553              		.loc 1 874 17 discriminator 9 view .LVU766
 874:Drivers/lvgl/src/misc/lv_tlsf.c **** 
 2554              		.loc 1 874 17 discriminator 9 view .LVU767
 874:Drivers/lvgl/src/misc/lv_tlsf.c **** 
 2555              		.loc 1 874 93 discriminator 9 view .LVU768
 876:Drivers/lvgl/src/misc/lv_tlsf.c ****                 tlsf_insist(fli == i && sli == j && "block size indexed in wrong list");
 2556              		.loc 1 876 17 discriminator 9 view .LVU769
 2557 007e 01AA     		add	r2, sp, #4
 2558 0080 6946     		mov	r1, sp
 2559 0082 FFF7FEFF 		bl	mapping_insert
 2560              	.LVL256:
 877:Drivers/lvgl/src/misc/lv_tlsf.c ****                 block = block->next_free;
 2561              		.loc 1 877 17 discriminator 9 view .LVU770
 877:Drivers/lvgl/src/misc/lv_tlsf.c ****                 block = block->next_free;
 2562              		.loc 1 877 17 discriminator 9 view .LVU771
 2563 0086 009B     		ldr	r3, [sp]
 2564 0088 B342     		cmp	r3, r6
 2565 008a 0BD1     		bne	.L175
 877:Drivers/lvgl/src/misc/lv_tlsf.c ****                 block = block->next_free;
 2566              		.loc 1 877 17 is_stmt 0 discriminator 2 view .LVU772
 2567 008c 019B     		ldr	r3, [sp, #4]
 2568 008e BB42     		cmp	r3, r7
 2569 0090 08D1     		bne	.L175
 877:Drivers/lvgl/src/misc/lv_tlsf.c ****                 block = block->next_free;
 2570              		.loc 1 877 17 is_stmt 1 discriminator 9 view .LVU773
 877:Drivers/lvgl/src/misc/lv_tlsf.c ****                 block = block->next_free;
 2571              		.loc 1 877 17 discriminator 9 view .LVU774
 877:Drivers/lvgl/src/misc/lv_tlsf.c ****                 block = block->next_free;
 2572              		.loc 1 877 88 discriminator 9 view .LVU775
 878:Drivers/lvgl/src/misc/lv_tlsf.c ****             }
 2573              		.loc 1 878 17 discriminator 9 view .LVU776
 878:Drivers/lvgl/src/misc/lv_tlsf.c ****             }
 2574              		.loc 1 878 23 is_stmt 0 discriminator 9 view .LVU777
 2575 0092 A468     		ldr	r4, [r4, #8]
 2576              	.LVL257:
 878:Drivers/lvgl/src/misc/lv_tlsf.c ****             }
 2577              		.loc 1 878 23 discriminator 9 view .LVU778
 2578 0094 D9E7     		b	.L163
 2579              	.LVL258:
 2580              	.L162:
ARM GAS  /var/folders/0z/tsy30v1j4xl4_7kw94k978ww0000gn/T//ccByTTYT.s 			page 68


 878:Drivers/lvgl/src/misc/lv_tlsf.c ****             }
 2581              		.loc 1 878 23 discriminator 9 view .LVU779
 2582              	.LBE10:
 865:Drivers/lvgl/src/misc/lv_tlsf.c ****             tlsf_insist(block != &control->block_null && "block should not be null");
 2583              		.loc 1 865 13 is_stmt 1 discriminator 3 view .LVU780
 865:Drivers/lvgl/src/misc/lv_tlsf.c ****             tlsf_insist(block != &control->block_null && "block should not be null");
 2584              		.loc 1 865 13 discriminator 3 view .LVU781
 865:Drivers/lvgl/src/misc/lv_tlsf.c ****             tlsf_insist(block != &control->block_null && "block should not be null");
 2585              		.loc 1 865 13 discriminator 3 view .LVU782
 865:Drivers/lvgl/src/misc/lv_tlsf.c ****             tlsf_insist(block != &control->block_null && "block should not be null");
 2586              		.loc 1 865 13 discriminator 3 view .LVU783
 865:Drivers/lvgl/src/misc/lv_tlsf.c ****             tlsf_insist(block != &control->block_null && "block should not be null");
 2587              		.loc 1 865 13 discriminator 3 view .LVU784
 2588 0096 FEE7     		b	.L162
 2589              	.L164:
 866:Drivers/lvgl/src/misc/lv_tlsf.c **** 
 2590              		.loc 1 866 13 discriminator 4 view .LVU785
 866:Drivers/lvgl/src/misc/lv_tlsf.c **** 
 2591              		.loc 1 866 13 discriminator 4 view .LVU786
 866:Drivers/lvgl/src/misc/lv_tlsf.c **** 
 2592              		.loc 1 866 13 discriminator 4 view .LVU787
 866:Drivers/lvgl/src/misc/lv_tlsf.c **** 
 2593              		.loc 1 866 13 discriminator 4 view .LVU788
 866:Drivers/lvgl/src/misc/lv_tlsf.c **** 
 2594              		.loc 1 866 13 discriminator 4 view .LVU789
 2595 0098 FEE7     		b	.L164
 2596              	.LVL259:
 2597              	.L166:
 2598              	.LBB11:
 870:Drivers/lvgl/src/misc/lv_tlsf.c ****                 tlsf_insist(!block_is_prev_free(block) && "blocks should have coalesced");
 2599              		.loc 1 870 17 discriminator 5 view .LVU790
 870:Drivers/lvgl/src/misc/lv_tlsf.c ****                 tlsf_insist(!block_is_prev_free(block) && "blocks should have coalesced");
 2600              		.loc 1 870 17 discriminator 5 view .LVU791
 870:Drivers/lvgl/src/misc/lv_tlsf.c ****                 tlsf_insist(!block_is_prev_free(block) && "blocks should have coalesced");
 2601              		.loc 1 870 17 discriminator 5 view .LVU792
 870:Drivers/lvgl/src/misc/lv_tlsf.c ****                 tlsf_insist(!block_is_prev_free(block) && "blocks should have coalesced");
 2602              		.loc 1 870 17 discriminator 5 view .LVU793
 870:Drivers/lvgl/src/misc/lv_tlsf.c ****                 tlsf_insist(!block_is_prev_free(block) && "blocks should have coalesced");
 2603              		.loc 1 870 17 discriminator 5 view .LVU794
 2604 009a FEE7     		b	.L166
 2605              	.L168:
 871:Drivers/lvgl/src/misc/lv_tlsf.c ****                 tlsf_insist(!block_is_free(block_next(block)) && "blocks should have coalesced");
 2606              		.loc 1 871 17 discriminator 6 view .LVU795
 871:Drivers/lvgl/src/misc/lv_tlsf.c ****                 tlsf_insist(!block_is_free(block_next(block)) && "blocks should have coalesced");
 2607              		.loc 1 871 17 discriminator 6 view .LVU796
 871:Drivers/lvgl/src/misc/lv_tlsf.c ****                 tlsf_insist(!block_is_free(block_next(block)) && "blocks should have coalesced");
 2608              		.loc 1 871 17 discriminator 6 view .LVU797
 871:Drivers/lvgl/src/misc/lv_tlsf.c ****                 tlsf_insist(!block_is_free(block_next(block)) && "blocks should have coalesced");
 2609              		.loc 1 871 17 discriminator 6 view .LVU798
 871:Drivers/lvgl/src/misc/lv_tlsf.c ****                 tlsf_insist(!block_is_free(block_next(block)) && "blocks should have coalesced");
 2610              		.loc 1 871 17 discriminator 6 view .LVU799
 2611 009c FEE7     		b	.L168
 2612              	.L170:
 872:Drivers/lvgl/src/misc/lv_tlsf.c ****                 tlsf_insist(block_is_prev_free(block_next(block)) && "block should be free");
 2613              		.loc 1 872 17 discriminator 7 view .LVU800
 872:Drivers/lvgl/src/misc/lv_tlsf.c ****                 tlsf_insist(block_is_prev_free(block_next(block)) && "block should be free");
 2614              		.loc 1 872 17 discriminator 7 view .LVU801
ARM GAS  /var/folders/0z/tsy30v1j4xl4_7kw94k978ww0000gn/T//ccByTTYT.s 			page 69


 872:Drivers/lvgl/src/misc/lv_tlsf.c ****                 tlsf_insist(block_is_prev_free(block_next(block)) && "block should be free");
 2615              		.loc 1 872 17 discriminator 7 view .LVU802
 872:Drivers/lvgl/src/misc/lv_tlsf.c ****                 tlsf_insist(block_is_prev_free(block_next(block)) && "block should be free");
 2616              		.loc 1 872 17 discriminator 7 view .LVU803
 872:Drivers/lvgl/src/misc/lv_tlsf.c ****                 tlsf_insist(block_is_prev_free(block_next(block)) && "block should be free");
 2617              		.loc 1 872 17 discriminator 7 view .LVU804
 2618 009e FEE7     		b	.L170
 2619              	.L172:
 873:Drivers/lvgl/src/misc/lv_tlsf.c ****                 tlsf_insist(block_size(block) >= block_size_min && "block not minimum size");
 2620              		.loc 1 873 17 discriminator 8 view .LVU805
 873:Drivers/lvgl/src/misc/lv_tlsf.c ****                 tlsf_insist(block_size(block) >= block_size_min && "block not minimum size");
 2621              		.loc 1 873 17 discriminator 8 view .LVU806
 873:Drivers/lvgl/src/misc/lv_tlsf.c ****                 tlsf_insist(block_size(block) >= block_size_min && "block not minimum size");
 2622              		.loc 1 873 17 discriminator 8 view .LVU807
 873:Drivers/lvgl/src/misc/lv_tlsf.c ****                 tlsf_insist(block_size(block) >= block_size_min && "block not minimum size");
 2623              		.loc 1 873 17 discriminator 8 view .LVU808
 873:Drivers/lvgl/src/misc/lv_tlsf.c ****                 tlsf_insist(block_size(block) >= block_size_min && "block not minimum size");
 2624              		.loc 1 873 17 discriminator 8 view .LVU809
 2625 00a0 FEE7     		b	.L172
 2626              	.L174:
 874:Drivers/lvgl/src/misc/lv_tlsf.c **** 
 2627              		.loc 1 874 17 discriminator 9 view .LVU810
 874:Drivers/lvgl/src/misc/lv_tlsf.c **** 
 2628              		.loc 1 874 17 discriminator 9 view .LVU811
 874:Drivers/lvgl/src/misc/lv_tlsf.c **** 
 2629              		.loc 1 874 17 discriminator 9 view .LVU812
 874:Drivers/lvgl/src/misc/lv_tlsf.c **** 
 2630              		.loc 1 874 17 discriminator 9 view .LVU813
 874:Drivers/lvgl/src/misc/lv_tlsf.c **** 
 2631              		.loc 1 874 17 discriminator 9 view .LVU814
 2632 00a2 FEE7     		b	.L174
 2633              	.L175:
 877:Drivers/lvgl/src/misc/lv_tlsf.c ****                 block = block->next_free;
 2634              		.loc 1 877 17 discriminator 10 view .LVU815
 877:Drivers/lvgl/src/misc/lv_tlsf.c ****                 block = block->next_free;
 2635              		.loc 1 877 17 discriminator 10 view .LVU816
 877:Drivers/lvgl/src/misc/lv_tlsf.c ****                 block = block->next_free;
 2636              		.loc 1 877 17 discriminator 10 view .LVU817
 877:Drivers/lvgl/src/misc/lv_tlsf.c ****                 block = block->next_free;
 2637              		.loc 1 877 17 discriminator 10 view .LVU818
 877:Drivers/lvgl/src/misc/lv_tlsf.c ****                 block = block->next_free;
 2638              		.loc 1 877 17 discriminator 10 view .LVU819
 2639 00a4 FEE7     		b	.L175
 2640              	.L159:
 877:Drivers/lvgl/src/misc/lv_tlsf.c ****                 block = block->next_free;
 2641              		.loc 1 877 17 is_stmt 0 discriminator 10 view .LVU820
 2642              	.LBE11:
 2643              	.LBE9:
 848:Drivers/lvgl/src/misc/lv_tlsf.c ****             const int fl_map = control->fl_bitmap & (1U << i);
 2644              		.loc 1 848 40 is_stmt 1 discriminator 2 view .LVU821
 2645 00a6 0137     		adds	r7, r7, #1
 2646              	.LVL260:
 848:Drivers/lvgl/src/misc/lv_tlsf.c ****             const int fl_map = control->fl_bitmap & (1U << i);
 2647              		.loc 1 848 40 is_stmt 0 discriminator 2 view .LVU822
 2648 00a8 B2E7     		b	.L179
 2649              	.LVL261:
 2650              	.L183:
ARM GAS  /var/folders/0z/tsy30v1j4xl4_7kw94k978ww0000gn/T//ccByTTYT.s 			page 70


 847:Drivers/lvgl/src/misc/lv_tlsf.c ****         for(j = 0; j < SL_INDEX_COUNT; ++j) {
 2651              		.loc 1 847 36 is_stmt 1 discriminator 2 view .LVU823
 2652 00aa 0136     		adds	r6, r6, #1
 2653              	.LVL262:
 847:Drivers/lvgl/src/misc/lv_tlsf.c ****         for(j = 0; j < SL_INDEX_COUNT; ++j) {
 2654              		.loc 1 847 36 is_stmt 0 discriminator 2 view .LVU824
 2655 00ac ADE7     		b	.L155
 2656              	.LVL263:
 2657              	.L182:
 883:Drivers/lvgl/src/misc/lv_tlsf.c **** }
 2658              		.loc 1 883 5 is_stmt 1 view .LVU825
 884:Drivers/lvgl/src/misc/lv_tlsf.c **** 
 2659              		.loc 1 884 1 is_stmt 0 view .LVU826
 2660 00ae 0020     		movs	r0, #0
 2661 00b0 02B0     		add	sp, sp, #8
 2662              		.cfi_def_cfa_offset 24
 2663              		@ sp needed
 2664 00b2 BDE8F081 		pop	{r4, r5, r6, r7, r8, pc}
 884:Drivers/lvgl/src/misc/lv_tlsf.c **** 
 2665              		.loc 1 884 1 view .LVU827
 2666              		.cfi_endproc
 2667              	.LFE43:
 2669              		.section	.text.lv_tlsf_walk_pool,"ax",%progbits
 2670              		.align	1
 2671              		.global	lv_tlsf_walk_pool
 2672              		.syntax unified
 2673              		.thumb
 2674              		.thumb_func
 2676              	lv_tlsf_walk_pool:
 2677              	.LVL264:
 2678              	.LFB45:
 893:Drivers/lvgl/src/misc/lv_tlsf.c **** 
 894:Drivers/lvgl/src/misc/lv_tlsf.c **** void lv_tlsf_walk_pool(lv_pool_t pool, lv_tlsf_walker walker, void * user)
 895:Drivers/lvgl/src/misc/lv_tlsf.c **** {
 2679              		.loc 1 895 1 is_stmt 1 view -0
 2680              		.cfi_startproc
 2681              		@ args = 0, pretend = 0, frame = 0
 2682              		@ frame_needed = 0, uses_anonymous_args = 0
 2683              		.loc 1 895 1 is_stmt 0 view .LVU829
 2684 0000 2DE9F041 		push	{r4, r5, r6, r7, r8, lr}
 2685              		.cfi_def_cfa_offset 24
 2686              		.cfi_offset 4, -24
 2687              		.cfi_offset 5, -20
 2688              		.cfi_offset 6, -16
 2689              		.cfi_offset 7, -12
 2690              		.cfi_offset 8, -8
 2691              		.cfi_offset 14, -4
 2692 0004 1746     		mov	r7, r2
 896:Drivers/lvgl/src/misc/lv_tlsf.c ****     lv_tlsf_walker pool_walker = walker ? walker : default_walker;
 2693              		.loc 1 896 5 is_stmt 1 view .LVU830
 2694              		.loc 1 896 50 is_stmt 0 view .LVU831
 2695 0006 8846     		mov	r8, r1
 2696 0008 29B1     		cbz	r1, .L191
 2697              	.L185:
 2698              	.LVL265:
 897:Drivers/lvgl/src/misc/lv_tlsf.c ****     block_header_t * block =
 2699              		.loc 1 897 5 is_stmt 1 discriminator 4 view .LVU832
ARM GAS  /var/folders/0z/tsy30v1j4xl4_7kw94k978ww0000gn/T//ccByTTYT.s 			page 71


 898:Drivers/lvgl/src/misc/lv_tlsf.c ****         offset_to_block(pool, -(int)block_header_overhead);
 2700              		.loc 1 898 9 is_stmt 0 discriminator 4 view .LVU833
 2701 000a 6FF00301 		mvn	r1, #3
 2702              	.LVL266:
 2703              		.loc 1 898 9 discriminator 4 view .LVU834
 2704 000e FFF7FEFF 		bl	offset_to_block
 2705              	.LVL267:
 2706              		.loc 1 898 9 discriminator 4 view .LVU835
 2707 0012 0446     		mov	r4, r0
 2708              	.LVL268:
 899:Drivers/lvgl/src/misc/lv_tlsf.c **** 
 900:Drivers/lvgl/src/misc/lv_tlsf.c ****     while(block && !block_is_last(block)) {
 2709              		.loc 1 900 5 is_stmt 1 discriminator 4 view .LVU836
 2710              		.loc 1 900 10 is_stmt 0 discriminator 4 view .LVU837
 2711 0014 18E0     		b	.L186
 2712              	.LVL269:
 2713              	.L191:
 896:Drivers/lvgl/src/misc/lv_tlsf.c ****     block_header_t * block =
 2714              		.loc 1 896 50 view .LVU838
 2715 0016 DFF84080 		ldr	r8, .L192
 2716 001a F6E7     		b	.L185
 2717              	.LVL270:
 2718              	.L188:
 901:Drivers/lvgl/src/misc/lv_tlsf.c ****         pool_walker(
 2719              		.loc 1 901 9 is_stmt 1 view .LVU839
 2720 001c 2046     		mov	r0, r4
 2721 001e FFF7FEFF 		bl	block_to_ptr
 2722              	.LVL271:
 2723 0022 0546     		mov	r5, r0
 2724 0024 2046     		mov	r0, r4
 2725 0026 FFF7FEFF 		bl	block_size
 2726              	.LVL272:
 2727 002a 0646     		mov	r6, r0
 902:Drivers/lvgl/src/misc/lv_tlsf.c ****             block_to_ptr(block),
 903:Drivers/lvgl/src/misc/lv_tlsf.c ****             block_size(block),
 904:Drivers/lvgl/src/misc/lv_tlsf.c ****             !block_is_free(block),
 2728              		.loc 1 904 14 is_stmt 0 view .LVU840
 2729 002c 2046     		mov	r0, r4
 2730 002e FFF7FEFF 		bl	block_is_free
 2731              	.LVL273:
 901:Drivers/lvgl/src/misc/lv_tlsf.c ****         pool_walker(
 2732              		.loc 1 901 9 view .LVU841
 2733 0032 3B46     		mov	r3, r7
 2734 0034 B0FA80F2 		clz	r2, r0
 2735 0038 5209     		lsrs	r2, r2, #5
 2736 003a 3146     		mov	r1, r6
 2737 003c 2846     		mov	r0, r5
 2738 003e C047     		blx	r8
 2739              	.LVL274:
 905:Drivers/lvgl/src/misc/lv_tlsf.c ****             user);
 906:Drivers/lvgl/src/misc/lv_tlsf.c ****         block = block_next(block);
 2740              		.loc 1 906 9 is_stmt 1 view .LVU842
 2741              		.loc 1 906 17 is_stmt 0 view .LVU843
 2742 0040 2046     		mov	r0, r4
 2743 0042 FFF7FEFF 		bl	block_next
 2744              	.LVL275:
 2745 0046 0446     		mov	r4, r0
ARM GAS  /var/folders/0z/tsy30v1j4xl4_7kw94k978ww0000gn/T//ccByTTYT.s 			page 72


 2746              	.LVL276:
 2747              	.L186:
 900:Drivers/lvgl/src/misc/lv_tlsf.c ****         pool_walker(
 2748              		.loc 1 900 17 is_stmt 1 view .LVU844
 2749 0048 24B1     		cbz	r4, .L184
 900:Drivers/lvgl/src/misc/lv_tlsf.c ****         pool_walker(
 2750              		.loc 1 900 21 is_stmt 0 discriminator 1 view .LVU845
 2751 004a 2046     		mov	r0, r4
 900:Drivers/lvgl/src/misc/lv_tlsf.c ****         pool_walker(
 2752              		.loc 1 900 21 discriminator 1 view .LVU846
 2753 004c FFF7FEFF 		bl	block_is_last
 2754              	.LVL277:
 900:Drivers/lvgl/src/misc/lv_tlsf.c ****         pool_walker(
 2755              		.loc 1 900 17 discriminator 1 view .LVU847
 2756 0050 0028     		cmp	r0, #0
 2757 0052 E3D0     		beq	.L188
 2758              	.L184:
 907:Drivers/lvgl/src/misc/lv_tlsf.c ****     }
 908:Drivers/lvgl/src/misc/lv_tlsf.c **** }
 2759              		.loc 1 908 1 view .LVU848
 2760 0054 BDE8F081 		pop	{r4, r5, r6, r7, r8, pc}
 2761              	.LVL278:
 2762              	.L193:
 2763              		.loc 1 908 1 view .LVU849
 2764              		.align	2
 2765              	.L192:
 2766 0058 00000000 		.word	default_walker
 2767              		.cfi_endproc
 2768              	.LFE45:
 2770              		.section	.text.lv_tlsf_block_size,"ax",%progbits
 2771              		.align	1
 2772              		.global	lv_tlsf_block_size
 2773              		.syntax unified
 2774              		.thumb
 2775              		.thumb_func
 2777              	lv_tlsf_block_size:
 2778              	.LVL279:
 2779              	.LFB46:
 909:Drivers/lvgl/src/misc/lv_tlsf.c **** 
 910:Drivers/lvgl/src/misc/lv_tlsf.c **** size_t lv_tlsf_block_size(void * ptr)
 911:Drivers/lvgl/src/misc/lv_tlsf.c **** {
 2780              		.loc 1 911 1 is_stmt 1 view -0
 2781              		.cfi_startproc
 2782              		@ args = 0, pretend = 0, frame = 0
 2783              		@ frame_needed = 0, uses_anonymous_args = 0
 912:Drivers/lvgl/src/misc/lv_tlsf.c ****     size_t size = 0;
 2784              		.loc 1 912 5 view .LVU851
 913:Drivers/lvgl/src/misc/lv_tlsf.c ****     if(ptr) {
 2785              		.loc 1 913 5 view .LVU852
 2786              		.loc 1 913 7 is_stmt 0 view .LVU853
 2787 0000 28B1     		cbz	r0, .L196
 911:Drivers/lvgl/src/misc/lv_tlsf.c ****     size_t size = 0;
 2788              		.loc 1 911 1 view .LVU854
 2789 0002 08B5     		push	{r3, lr}
 2790              		.cfi_def_cfa_offset 8
 2791              		.cfi_offset 3, -8
 2792              		.cfi_offset 14, -4
ARM GAS  /var/folders/0z/tsy30v1j4xl4_7kw94k978ww0000gn/T//ccByTTYT.s 			page 73


 2793              	.LBB12:
 914:Drivers/lvgl/src/misc/lv_tlsf.c ****         const block_header_t * block = block_from_ptr(ptr);
 2794              		.loc 1 914 9 is_stmt 1 view .LVU855
 2795              		.loc 1 914 40 is_stmt 0 view .LVU856
 2796 0004 FFF7FEFF 		bl	block_from_ptr
 2797              	.LVL280:
 915:Drivers/lvgl/src/misc/lv_tlsf.c ****         size = block_size(block);
 2798              		.loc 1 915 9 is_stmt 1 view .LVU857
 2799              		.loc 1 915 16 is_stmt 0 view .LVU858
 2800 0008 FFF7FEFF 		bl	block_size
 2801              	.LVL281:
 2802              		.loc 1 915 16 view .LVU859
 2803              	.LBE12:
 916:Drivers/lvgl/src/misc/lv_tlsf.c ****     }
 917:Drivers/lvgl/src/misc/lv_tlsf.c ****     return size;
 918:Drivers/lvgl/src/misc/lv_tlsf.c **** }
 2804              		.loc 1 918 1 view .LVU860
 2805 000c 08BD     		pop	{r3, pc}
 2806              	.LVL282:
 2807              	.L196:
 2808              		.cfi_def_cfa_offset 0
 2809              		.cfi_restore 3
 2810              		.cfi_restore 14
 912:Drivers/lvgl/src/misc/lv_tlsf.c ****     if(ptr) {
 2811              		.loc 1 912 12 view .LVU861
 2812 000e 0020     		movs	r0, #0
 2813              	.LVL283:
 917:Drivers/lvgl/src/misc/lv_tlsf.c **** }
 2814              		.loc 1 917 5 is_stmt 1 view .LVU862
 2815              		.loc 1 918 1 is_stmt 0 view .LVU863
 2816 0010 7047     		bx	lr
 2817              		.cfi_endproc
 2818              	.LFE46:
 2820              		.section	.text.lv_tlsf_check_pool,"ax",%progbits
 2821              		.align	1
 2822              		.global	lv_tlsf_check_pool
 2823              		.syntax unified
 2824              		.thumb
 2825              		.thumb_func
 2827              	lv_tlsf_check_pool:
 2828              	.LVL284:
 2829              	.LFB47:
 919:Drivers/lvgl/src/misc/lv_tlsf.c **** 
 920:Drivers/lvgl/src/misc/lv_tlsf.c **** int lv_tlsf_check_pool(lv_pool_t pool)
 921:Drivers/lvgl/src/misc/lv_tlsf.c **** {
 2830              		.loc 1 921 1 is_stmt 1 view -0
 2831              		.cfi_startproc
 2832              		@ args = 0, pretend = 0, frame = 8
 2833              		@ frame_needed = 0, uses_anonymous_args = 0
 2834              		.loc 1 921 1 is_stmt 0 view .LVU865
 2835 0000 00B5     		push	{lr}
 2836              		.cfi_def_cfa_offset 4
 2837              		.cfi_offset 14, -4
 2838 0002 83B0     		sub	sp, sp, #12
 2839              		.cfi_def_cfa_offset 16
 922:Drivers/lvgl/src/misc/lv_tlsf.c ****     /* Check that the blocks are physically correct. */
 923:Drivers/lvgl/src/misc/lv_tlsf.c ****     integrity_t integ = { 0, 0 };
ARM GAS  /var/folders/0z/tsy30v1j4xl4_7kw94k978ww0000gn/T//ccByTTYT.s 			page 74


 2840              		.loc 1 923 5 is_stmt 1 view .LVU866
 2841              		.loc 1 923 17 is_stmt 0 view .LVU867
 2842 0004 0023     		movs	r3, #0
 2843 0006 0093     		str	r3, [sp]
 2844 0008 0193     		str	r3, [sp, #4]
 924:Drivers/lvgl/src/misc/lv_tlsf.c ****     lv_tlsf_walk_pool(pool, integrity_walker, &integ);
 2845              		.loc 1 924 5 is_stmt 1 view .LVU868
 2846 000a 6A46     		mov	r2, sp
 2847 000c 0349     		ldr	r1, .L203
 2848 000e FFF7FEFF 		bl	lv_tlsf_walk_pool
 2849              	.LVL285:
 925:Drivers/lvgl/src/misc/lv_tlsf.c **** 
 926:Drivers/lvgl/src/misc/lv_tlsf.c ****     return integ.status;
 2850              		.loc 1 926 5 view .LVU869
 927:Drivers/lvgl/src/misc/lv_tlsf.c **** }
 2851              		.loc 1 927 1 is_stmt 0 view .LVU870
 2852 0012 0198     		ldr	r0, [sp, #4]
 2853 0014 03B0     		add	sp, sp, #12
 2854              		.cfi_def_cfa_offset 4
 2855              		@ sp needed
 2856 0016 5DF804FB 		ldr	pc, [sp], #4
 2857              	.L204:
 2858 001a 00BF     		.align	2
 2859              	.L203:
 2860 001c 00000000 		.word	integrity_walker
 2861              		.cfi_endproc
 2862              	.LFE47:
 2864              		.section	.text.lv_tlsf_size,"ax",%progbits
 2865              		.align	1
 2866              		.global	lv_tlsf_size
 2867              		.syntax unified
 2868              		.thumb
 2869              		.thumb_func
 2871              	lv_tlsf_size:
 2872              	.LFB48:
 928:Drivers/lvgl/src/misc/lv_tlsf.c **** 
 929:Drivers/lvgl/src/misc/lv_tlsf.c **** /*
 930:Drivers/lvgl/src/misc/lv_tlsf.c **** ** Size of the TLSF structures in a given memory block passed to
 931:Drivers/lvgl/src/misc/lv_tlsf.c **** ** lv_tlsf_create, equal to the size of a control_t
 932:Drivers/lvgl/src/misc/lv_tlsf.c **** */
 933:Drivers/lvgl/src/misc/lv_tlsf.c **** size_t lv_tlsf_size(void)
 934:Drivers/lvgl/src/misc/lv_tlsf.c **** {
 2873              		.loc 1 934 1 is_stmt 1 view -0
 2874              		.cfi_startproc
 2875              		@ args = 0, pretend = 0, frame = 0
 2876              		@ frame_needed = 0, uses_anonymous_args = 0
 2877              		@ link register save eliminated.
 935:Drivers/lvgl/src/misc/lv_tlsf.c ****     return sizeof(control_t);
 2878              		.loc 1 935 5 view .LVU872
 936:Drivers/lvgl/src/misc/lv_tlsf.c **** }
 2879              		.loc 1 936 1 is_stmt 0 view .LVU873
 2880 0000 4FF46C70 		mov	r0, #944
 2881 0004 7047     		bx	lr
 2882              		.cfi_endproc
 2883              	.LFE48:
 2885              		.section	.text.lv_tlsf_align_size,"ax",%progbits
 2886              		.align	1
ARM GAS  /var/folders/0z/tsy30v1j4xl4_7kw94k978ww0000gn/T//ccByTTYT.s 			page 75


 2887              		.global	lv_tlsf_align_size
 2888              		.syntax unified
 2889              		.thumb
 2890              		.thumb_func
 2892              	lv_tlsf_align_size:
 2893              	.LFB49:
 937:Drivers/lvgl/src/misc/lv_tlsf.c **** 
 938:Drivers/lvgl/src/misc/lv_tlsf.c **** size_t lv_tlsf_align_size(void)
 939:Drivers/lvgl/src/misc/lv_tlsf.c **** {
 2894              		.loc 1 939 1 is_stmt 1 view -0
 2895              		.cfi_startproc
 2896              		@ args = 0, pretend = 0, frame = 0
 2897              		@ frame_needed = 0, uses_anonymous_args = 0
 2898              		@ link register save eliminated.
 940:Drivers/lvgl/src/misc/lv_tlsf.c ****     return ALIGN_SIZE;
 2899              		.loc 1 940 5 view .LVU875
 941:Drivers/lvgl/src/misc/lv_tlsf.c **** }
 2900              		.loc 1 941 1 is_stmt 0 view .LVU876
 2901 0000 0420     		movs	r0, #4
 2902 0002 7047     		bx	lr
 2903              		.cfi_endproc
 2904              	.LFE49:
 2906              		.section	.text.lv_tlsf_block_size_min,"ax",%progbits
 2907              		.align	1
 2908              		.global	lv_tlsf_block_size_min
 2909              		.syntax unified
 2910              		.thumb
 2911              		.thumb_func
 2913              	lv_tlsf_block_size_min:
 2914              	.LFB50:
 942:Drivers/lvgl/src/misc/lv_tlsf.c **** 
 943:Drivers/lvgl/src/misc/lv_tlsf.c **** size_t lv_tlsf_block_size_min(void)
 944:Drivers/lvgl/src/misc/lv_tlsf.c **** {
 2915              		.loc 1 944 1 is_stmt 1 view -0
 2916              		.cfi_startproc
 2917              		@ args = 0, pretend = 0, frame = 0
 2918              		@ frame_needed = 0, uses_anonymous_args = 0
 2919              		@ link register save eliminated.
 945:Drivers/lvgl/src/misc/lv_tlsf.c ****     return block_size_min;
 2920              		.loc 1 945 5 view .LVU878
 946:Drivers/lvgl/src/misc/lv_tlsf.c **** }
 2921              		.loc 1 946 1 is_stmt 0 view .LVU879
 2922 0000 0C20     		movs	r0, #12
 2923 0002 7047     		bx	lr
 2924              		.cfi_endproc
 2925              	.LFE50:
 2927              		.section	.text.lv_tlsf_block_size_max,"ax",%progbits
 2928              		.align	1
 2929              		.global	lv_tlsf_block_size_max
 2930              		.syntax unified
 2931              		.thumb
 2932              		.thumb_func
 2934              	lv_tlsf_block_size_max:
 2935              	.LFB51:
 947:Drivers/lvgl/src/misc/lv_tlsf.c **** 
 948:Drivers/lvgl/src/misc/lv_tlsf.c **** size_t lv_tlsf_block_size_max(void)
 949:Drivers/lvgl/src/misc/lv_tlsf.c **** {
ARM GAS  /var/folders/0z/tsy30v1j4xl4_7kw94k978ww0000gn/T//ccByTTYT.s 			page 76


 2936              		.loc 1 949 1 is_stmt 1 view -0
 2937              		.cfi_startproc
 2938              		@ args = 0, pretend = 0, frame = 0
 2939              		@ frame_needed = 0, uses_anonymous_args = 0
 2940              		@ link register save eliminated.
 950:Drivers/lvgl/src/misc/lv_tlsf.c ****     return block_size_max;
 2941              		.loc 1 950 5 view .LVU881
 951:Drivers/lvgl/src/misc/lv_tlsf.c **** }
 2942              		.loc 1 951 1 is_stmt 0 view .LVU882
 2943 0000 4FF40050 		mov	r0, #8192
 2944 0004 7047     		bx	lr
 2945              		.cfi_endproc
 2946              	.LFE51:
 2948              		.section	.text.lv_tlsf_pool_overhead,"ax",%progbits
 2949              		.align	1
 2950              		.global	lv_tlsf_pool_overhead
 2951              		.syntax unified
 2952              		.thumb
 2953              		.thumb_func
 2955              	lv_tlsf_pool_overhead:
 2956              	.LFB52:
 952:Drivers/lvgl/src/misc/lv_tlsf.c **** 
 953:Drivers/lvgl/src/misc/lv_tlsf.c **** /*
 954:Drivers/lvgl/src/misc/lv_tlsf.c **** ** Overhead of the TLSF structures in a given memory block passed to
 955:Drivers/lvgl/src/misc/lv_tlsf.c **** ** lv_tlsf_add_pool, equal to the overhead of a free block and the
 956:Drivers/lvgl/src/misc/lv_tlsf.c **** ** sentinel block.
 957:Drivers/lvgl/src/misc/lv_tlsf.c **** */
 958:Drivers/lvgl/src/misc/lv_tlsf.c **** size_t lv_tlsf_pool_overhead(void)
 959:Drivers/lvgl/src/misc/lv_tlsf.c **** {
 2957              		.loc 1 959 1 is_stmt 1 view -0
 2958              		.cfi_startproc
 2959              		@ args = 0, pretend = 0, frame = 0
 2960              		@ frame_needed = 0, uses_anonymous_args = 0
 2961              		@ link register save eliminated.
 960:Drivers/lvgl/src/misc/lv_tlsf.c ****     return 2 * block_header_overhead;
 2962              		.loc 1 960 5 view .LVU884
 961:Drivers/lvgl/src/misc/lv_tlsf.c **** }
 2963              		.loc 1 961 1 is_stmt 0 view .LVU885
 2964 0000 0820     		movs	r0, #8
 2965 0002 7047     		bx	lr
 2966              		.cfi_endproc
 2967              	.LFE52:
 2969              		.section	.text.lv_tlsf_alloc_overhead,"ax",%progbits
 2970              		.align	1
 2971              		.global	lv_tlsf_alloc_overhead
 2972              		.syntax unified
 2973              		.thumb
 2974              		.thumb_func
 2976              	lv_tlsf_alloc_overhead:
 2977              	.LFB53:
 962:Drivers/lvgl/src/misc/lv_tlsf.c **** 
 963:Drivers/lvgl/src/misc/lv_tlsf.c **** size_t lv_tlsf_alloc_overhead(void)
 964:Drivers/lvgl/src/misc/lv_tlsf.c **** {
 2978              		.loc 1 964 1 is_stmt 1 view -0
 2979              		.cfi_startproc
 2980              		@ args = 0, pretend = 0, frame = 0
 2981              		@ frame_needed = 0, uses_anonymous_args = 0
ARM GAS  /var/folders/0z/tsy30v1j4xl4_7kw94k978ww0000gn/T//ccByTTYT.s 			page 77


 2982              		@ link register save eliminated.
 965:Drivers/lvgl/src/misc/lv_tlsf.c ****     return block_header_overhead;
 2983              		.loc 1 965 5 view .LVU887
 966:Drivers/lvgl/src/misc/lv_tlsf.c **** }
 2984              		.loc 1 966 1 is_stmt 0 view .LVU888
 2985 0000 0420     		movs	r0, #4
 2986 0002 7047     		bx	lr
 2987              		.cfi_endproc
 2988              	.LFE53:
 2990              		.section	.text.lv_tlsf_add_pool,"ax",%progbits
 2991              		.align	1
 2992              		.global	lv_tlsf_add_pool
 2993              		.syntax unified
 2994              		.thumb
 2995              		.thumb_func
 2997              	lv_tlsf_add_pool:
 2998              	.LVL286:
 2999              	.LFB54:
 967:Drivers/lvgl/src/misc/lv_tlsf.c **** 
 968:Drivers/lvgl/src/misc/lv_tlsf.c **** lv_pool_t lv_tlsf_add_pool(lv_tlsf_t tlsf, void * mem, size_t bytes)
 969:Drivers/lvgl/src/misc/lv_tlsf.c **** {
 3000              		.loc 1 969 1 is_stmt 1 view -0
 3001              		.cfi_startproc
 3002              		@ args = 0, pretend = 0, frame = 0
 3003              		@ frame_needed = 0, uses_anonymous_args = 0
 3004              		.loc 1 969 1 is_stmt 0 view .LVU890
 3005 0000 F8B5     		push	{r3, r4, r5, r6, r7, lr}
 3006              		.cfi_def_cfa_offset 24
 3007              		.cfi_offset 3, -24
 3008              		.cfi_offset 4, -20
 3009              		.cfi_offset 5, -16
 3010              		.cfi_offset 6, -12
 3011              		.cfi_offset 7, -8
 3012              		.cfi_offset 14, -4
 3013 0002 0746     		mov	r7, r0
 3014 0004 0C46     		mov	r4, r1
 3015 0006 1546     		mov	r5, r2
 970:Drivers/lvgl/src/misc/lv_tlsf.c ****     block_header_t * block;
 3016              		.loc 1 970 5 is_stmt 1 view .LVU891
 971:Drivers/lvgl/src/misc/lv_tlsf.c ****     block_header_t * next;
 3017              		.loc 1 971 5 view .LVU892
 972:Drivers/lvgl/src/misc/lv_tlsf.c **** 
 973:Drivers/lvgl/src/misc/lv_tlsf.c ****     const size_t pool_overhead = lv_tlsf_pool_overhead();
 3018              		.loc 1 973 5 view .LVU893
 3019              		.loc 1 973 34 is_stmt 0 view .LVU894
 3020 0008 FFF7FEFF 		bl	lv_tlsf_pool_overhead
 3021              	.LVL287:
 974:Drivers/lvgl/src/misc/lv_tlsf.c ****     const size_t pool_bytes = align_down(bytes - pool_overhead, ALIGN_SIZE);
 3022              		.loc 1 974 5 is_stmt 1 view .LVU895
 3023              		.loc 1 974 31 is_stmt 0 view .LVU896
 3024 000c 0421     		movs	r1, #4
 3025 000e 281A     		subs	r0, r5, r0
 3026              	.LVL288:
 3027              		.loc 1 974 31 view .LVU897
 3028 0010 FFF7FEFF 		bl	align_down
 3029              	.LVL289:
 975:Drivers/lvgl/src/misc/lv_tlsf.c **** 
ARM GAS  /var/folders/0z/tsy30v1j4xl4_7kw94k978ww0000gn/T//ccByTTYT.s 			page 78


 976:Drivers/lvgl/src/misc/lv_tlsf.c ****     if(((ptrdiff_t)mem % ALIGN_SIZE) != 0) {
 3030              		.loc 1 976 5 is_stmt 1 view .LVU898
 3031              		.loc 1 976 7 is_stmt 0 view .LVU899
 3032 0014 14F0030F 		tst	r4, #3
 3033 0018 28D1     		bne	.L213
 3034 001a 0546     		mov	r5, r0
 3035              	.LVL290:
 977:Drivers/lvgl/src/misc/lv_tlsf.c ****         printf("lv_tlsf_add_pool: Memory must be aligned by %u bytes.\n",
 978:Drivers/lvgl/src/misc/lv_tlsf.c ****                (unsigned int)ALIGN_SIZE);
 979:Drivers/lvgl/src/misc/lv_tlsf.c ****         return 0;
 980:Drivers/lvgl/src/misc/lv_tlsf.c ****     }
 981:Drivers/lvgl/src/misc/lv_tlsf.c **** 
 982:Drivers/lvgl/src/misc/lv_tlsf.c ****     if(pool_bytes < block_size_min || pool_bytes > block_size_max) {
 3036              		.loc 1 982 5 is_stmt 1 view .LVU900
 3037              		.loc 1 982 36 is_stmt 0 view .LVU901
 3038 001c A0F10C02 		sub	r2, r0, #12
 3039              		.loc 1 982 7 view .LVU902
 3040 0020 41F6F473 		movw	r3, #8180
 3041 0024 9A42     		cmp	r2, r3
 3042 0026 23D8     		bhi	.L214
 983:Drivers/lvgl/src/misc/lv_tlsf.c **** #if defined (TLSF_64BIT)
 984:Drivers/lvgl/src/misc/lv_tlsf.c ****         printf("lv_tlsf_add_pool: Memory size must be between 0x%x and 0x%x00 bytes.\n",
 985:Drivers/lvgl/src/misc/lv_tlsf.c ****                (unsigned int)(pool_overhead + block_size_min),
 986:Drivers/lvgl/src/misc/lv_tlsf.c ****                (unsigned int)((pool_overhead + block_size_max) / 256));
 987:Drivers/lvgl/src/misc/lv_tlsf.c **** #else
 988:Drivers/lvgl/src/misc/lv_tlsf.c ****         printf("lv_tlsf_add_pool: Memory size must be between %u and %u bytes.\n",
 989:Drivers/lvgl/src/misc/lv_tlsf.c ****                (unsigned int)(pool_overhead + block_size_min),
 990:Drivers/lvgl/src/misc/lv_tlsf.c ****                (unsigned int)(pool_overhead + block_size_max));
 991:Drivers/lvgl/src/misc/lv_tlsf.c **** #endif
 992:Drivers/lvgl/src/misc/lv_tlsf.c ****         return 0;
 993:Drivers/lvgl/src/misc/lv_tlsf.c ****     }
 994:Drivers/lvgl/src/misc/lv_tlsf.c **** 
 995:Drivers/lvgl/src/misc/lv_tlsf.c ****     /*
 996:Drivers/lvgl/src/misc/lv_tlsf.c ****     ** Create the main free block. Offset the start of the block slightly
 997:Drivers/lvgl/src/misc/lv_tlsf.c ****     ** so that the prev_phys_block field falls outside of the pool -
 998:Drivers/lvgl/src/misc/lv_tlsf.c ****     ** it will never be used.
 999:Drivers/lvgl/src/misc/lv_tlsf.c ****     */
1000:Drivers/lvgl/src/misc/lv_tlsf.c ****     block = offset_to_block(mem, -(tlsfptr_t)block_header_overhead);
 3043              		.loc 1 1000 5 is_stmt 1 view .LVU903
 3044              		.loc 1 1000 13 is_stmt 0 view .LVU904
 3045 0028 6FF00301 		mvn	r1, #3
 3046 002c 2046     		mov	r0, r4
 3047              	.LVL291:
 3048              		.loc 1 1000 13 view .LVU905
 3049 002e FFF7FEFF 		bl	offset_to_block
 3050              	.LVL292:
 3051 0032 0646     		mov	r6, r0
 3052              	.LVL293:
1001:Drivers/lvgl/src/misc/lv_tlsf.c ****     block_set_size(block, pool_bytes);
 3053              		.loc 1 1001 5 is_stmt 1 view .LVU906
 3054 0034 2946     		mov	r1, r5
 3055 0036 FFF7FEFF 		bl	block_set_size
 3056              	.LVL294:
1002:Drivers/lvgl/src/misc/lv_tlsf.c ****     block_set_free(block);
 3057              		.loc 1 1002 5 view .LVU907
 3058 003a 3046     		mov	r0, r6
 3059 003c FFF7FEFF 		bl	block_set_free
ARM GAS  /var/folders/0z/tsy30v1j4xl4_7kw94k978ww0000gn/T//ccByTTYT.s 			page 79


 3060              	.LVL295:
1003:Drivers/lvgl/src/misc/lv_tlsf.c ****     block_set_prev_used(block);
 3061              		.loc 1 1003 5 view .LVU908
 3062 0040 3046     		mov	r0, r6
 3063 0042 FFF7FEFF 		bl	block_set_prev_used
 3064              	.LVL296:
1004:Drivers/lvgl/src/misc/lv_tlsf.c ****     block_insert(tlsf_cast(control_t *, tlsf), block);
 3065              		.loc 1 1004 5 view .LVU909
 3066 0046 3146     		mov	r1, r6
 3067 0048 3846     		mov	r0, r7
 3068 004a FFF7FEFF 		bl	block_insert
 3069              	.LVL297:
1005:Drivers/lvgl/src/misc/lv_tlsf.c **** 
1006:Drivers/lvgl/src/misc/lv_tlsf.c ****     /* Split the block to create a zero-size sentinel block. */
1007:Drivers/lvgl/src/misc/lv_tlsf.c ****     next = block_link_next(block);
 3070              		.loc 1 1007 5 view .LVU910
 3071              		.loc 1 1007 12 is_stmt 0 view .LVU911
 3072 004e 3046     		mov	r0, r6
 3073 0050 FFF7FEFF 		bl	block_link_next
 3074              	.LVL298:
 3075 0054 0546     		mov	r5, r0
 3076              	.LVL299:
1008:Drivers/lvgl/src/misc/lv_tlsf.c ****     block_set_size(next, 0);
 3077              		.loc 1 1008 5 is_stmt 1 view .LVU912
 3078 0056 0021     		movs	r1, #0
 3079 0058 FFF7FEFF 		bl	block_set_size
 3080              	.LVL300:
1009:Drivers/lvgl/src/misc/lv_tlsf.c ****     block_set_used(next);
 3081              		.loc 1 1009 5 view .LVU913
 3082 005c 2846     		mov	r0, r5
 3083 005e FFF7FEFF 		bl	block_set_used
 3084              	.LVL301:
1010:Drivers/lvgl/src/misc/lv_tlsf.c ****     block_set_prev_free(next);
 3085              		.loc 1 1010 5 view .LVU914
 3086 0062 2846     		mov	r0, r5
 3087 0064 FFF7FEFF 		bl	block_set_prev_free
 3088              	.LVL302:
1011:Drivers/lvgl/src/misc/lv_tlsf.c **** 
1012:Drivers/lvgl/src/misc/lv_tlsf.c ****     return mem;
 3089              		.loc 1 1012 5 view .LVU915
 3090              		.loc 1 1012 12 is_stmt 0 view .LVU916
 3091 0068 2046     		mov	r0, r4
 3092              	.LVL303:
 3093              	.L211:
1013:Drivers/lvgl/src/misc/lv_tlsf.c **** }
 3094              		.loc 1 1013 1 view .LVU917
 3095 006a F8BD     		pop	{r3, r4, r5, r6, r7, pc}
 3096              	.LVL304:
 3097              	.L213:
 979:Drivers/lvgl/src/misc/lv_tlsf.c ****     }
 3098              		.loc 1 979 16 view .LVU918
 3099 006c 0020     		movs	r0, #0
 3100              	.LVL305:
 979:Drivers/lvgl/src/misc/lv_tlsf.c ****     }
 3101              		.loc 1 979 16 view .LVU919
 3102 006e FCE7     		b	.L211
 3103              	.LVL306:
ARM GAS  /var/folders/0z/tsy30v1j4xl4_7kw94k978ww0000gn/T//ccByTTYT.s 			page 80


 3104              	.L214:
 992:Drivers/lvgl/src/misc/lv_tlsf.c ****     }
 3105              		.loc 1 992 16 view .LVU920
 3106 0070 0020     		movs	r0, #0
 3107              	.LVL307:
 992:Drivers/lvgl/src/misc/lv_tlsf.c ****     }
 3108              		.loc 1 992 16 view .LVU921
 3109 0072 FAE7     		b	.L211
 3110              		.cfi_endproc
 3111              	.LFE54:
 3113              		.section	.text.lv_tlsf_remove_pool,"ax",%progbits
 3114              		.align	1
 3115              		.global	lv_tlsf_remove_pool
 3116              		.syntax unified
 3117              		.thumb
 3118              		.thumb_func
 3120              	lv_tlsf_remove_pool:
 3121              	.LVL308:
 3122              	.LFB55:
1014:Drivers/lvgl/src/misc/lv_tlsf.c **** 
1015:Drivers/lvgl/src/misc/lv_tlsf.c **** void lv_tlsf_remove_pool(lv_tlsf_t tlsf, lv_pool_t pool)
1016:Drivers/lvgl/src/misc/lv_tlsf.c **** {
 3123              		.loc 1 1016 1 is_stmt 1 view -0
 3124              		.cfi_startproc
 3125              		@ args = 0, pretend = 0, frame = 8
 3126              		@ frame_needed = 0, uses_anonymous_args = 0
 3127              		.loc 1 1016 1 is_stmt 0 view .LVU923
 3128 0000 70B5     		push	{r4, r5, r6, lr}
 3129              		.cfi_def_cfa_offset 16
 3130              		.cfi_offset 4, -16
 3131              		.cfi_offset 5, -12
 3132              		.cfi_offset 6, -8
 3133              		.cfi_offset 14, -4
 3134 0002 82B0     		sub	sp, sp, #8
 3135              		.cfi_def_cfa_offset 24
 3136 0004 0546     		mov	r5, r0
 3137 0006 0846     		mov	r0, r1
 3138              	.LVL309:
1017:Drivers/lvgl/src/misc/lv_tlsf.c ****     control_t * control = tlsf_cast(control_t *, tlsf);
 3139              		.loc 1 1017 5 is_stmt 1 view .LVU924
1018:Drivers/lvgl/src/misc/lv_tlsf.c ****     block_header_t * block = offset_to_block(pool, -(int)block_header_overhead);
 3140              		.loc 1 1018 5 view .LVU925
 3141              		.loc 1 1018 30 is_stmt 0 view .LVU926
 3142 0008 6FF00301 		mvn	r1, #3
 3143              	.LVL310:
 3144              		.loc 1 1018 30 view .LVU927
 3145 000c FFF7FEFF 		bl	offset_to_block
 3146              	.LVL311:
 3147              		.loc 1 1018 30 view .LVU928
 3148 0010 0446     		mov	r4, r0
 3149              	.LVL312:
1019:Drivers/lvgl/src/misc/lv_tlsf.c **** 
1020:Drivers/lvgl/src/misc/lv_tlsf.c ****     int fl = 0, sl = 0;
 3150              		.loc 1 1020 5 is_stmt 1 view .LVU929
 3151              		.loc 1 1020 9 is_stmt 0 view .LVU930
 3152 0012 0023     		movs	r3, #0
 3153 0014 0193     		str	r3, [sp, #4]
ARM GAS  /var/folders/0z/tsy30v1j4xl4_7kw94k978ww0000gn/T//ccByTTYT.s 			page 81


 3154              		.loc 1 1020 17 view .LVU931
 3155 0016 0093     		str	r3, [sp]
1021:Drivers/lvgl/src/misc/lv_tlsf.c **** 
1022:Drivers/lvgl/src/misc/lv_tlsf.c ****     tlsf_assert(block_is_free(block) && "block should be free");
 3156              		.loc 1 1022 5 is_stmt 1 view .LVU932
 3157              		.loc 1 1022 5 view .LVU933
 3158 0018 FFF7FEFF 		bl	block_is_free
 3159              	.LVL313:
 3160              		.loc 1 1022 5 is_stmt 0 view .LVU934
 3161 001c 00B9     		cbnz	r0, .L217
 3162              	.L218:
 3163              		.loc 1 1022 5 is_stmt 1 discriminator 1 view .LVU935
 3164              		.loc 1 1022 5 discriminator 1 view .LVU936
 3165              		.loc 1 1022 5 discriminator 1 view .LVU937
 3166              		.loc 1 1022 5 discriminator 1 view .LVU938
 3167              		.loc 1 1022 5 discriminator 1 view .LVU939
 3168 001e FEE7     		b	.L218
 3169              	.L217:
 3170              		.loc 1 1022 5 discriminator 4 view .LVU940
1023:Drivers/lvgl/src/misc/lv_tlsf.c ****     tlsf_assert(!block_is_free(block_next(block)) && "next block should not be free");
 3171              		.loc 1 1023 5 discriminator 4 view .LVU941
 3172              		.loc 1 1023 5 discriminator 4 view .LVU942
 3173 0020 2046     		mov	r0, r4
 3174 0022 FFF7FEFF 		bl	block_next
 3175              	.LVL314:
 3176 0026 0646     		mov	r6, r0
 3177 0028 FFF7FEFF 		bl	block_is_free
 3178              	.LVL315:
 3179 002c 00B1     		cbz	r0, .L219
 3180              	.L220:
 3181              		.loc 1 1023 5 discriminator 2 view .LVU943
 3182              		.loc 1 1023 5 discriminator 2 view .LVU944
 3183              		.loc 1 1023 5 discriminator 2 view .LVU945
 3184              		.loc 1 1023 5 discriminator 2 view .LVU946
 3185              		.loc 1 1023 5 discriminator 2 view .LVU947
 3186 002e FEE7     		b	.L220
 3187              	.L219:
 3188              		.loc 1 1023 5 discriminator 2 view .LVU948
1024:Drivers/lvgl/src/misc/lv_tlsf.c ****     tlsf_assert(block_size(block_next(block)) == 0 && "next block size should be zero");
 3189              		.loc 1 1024 5 discriminator 2 view .LVU949
 3190              		.loc 1 1024 5 discriminator 2 view .LVU950
 3191 0030 3046     		mov	r0, r6
 3192 0032 FFF7FEFF 		bl	block_size
 3193              	.LVL316:
 3194 0036 00B1     		cbz	r0, .L221
 3195              	.L222:
 3196              		.loc 1 1024 5 discriminator 3 view .LVU951
 3197              		.loc 1 1024 5 discriminator 3 view .LVU952
 3198              		.loc 1 1024 5 discriminator 3 view .LVU953
 3199              		.loc 1 1024 5 discriminator 3 view .LVU954
 3200              		.loc 1 1024 5 discriminator 3 view .LVU955
 3201 0038 FEE7     		b	.L222
 3202              	.L221:
 3203              		.loc 1 1024 5 discriminator 2 view .LVU956
1025:Drivers/lvgl/src/misc/lv_tlsf.c **** 
1026:Drivers/lvgl/src/misc/lv_tlsf.c ****     mapping_insert(block_size(block), &fl, &sl);
 3204              		.loc 1 1026 5 discriminator 2 view .LVU957
ARM GAS  /var/folders/0z/tsy30v1j4xl4_7kw94k978ww0000gn/T//ccByTTYT.s 			page 82


 3205 003a 2046     		mov	r0, r4
 3206 003c FFF7FEFF 		bl	block_size
 3207              	.LVL317:
 3208 0040 6A46     		mov	r2, sp
 3209 0042 01A9     		add	r1, sp, #4
 3210 0044 FFF7FEFF 		bl	mapping_insert
 3211              	.LVL318:
1027:Drivers/lvgl/src/misc/lv_tlsf.c ****     remove_free_block(control, block, fl, sl);
 3212              		.loc 1 1027 5 discriminator 2 view .LVU958
 3213 0048 009B     		ldr	r3, [sp]
 3214 004a 019A     		ldr	r2, [sp, #4]
 3215 004c 2146     		mov	r1, r4
 3216 004e 2846     		mov	r0, r5
 3217 0050 FFF7FEFF 		bl	remove_free_block
 3218              	.LVL319:
1028:Drivers/lvgl/src/misc/lv_tlsf.c **** }
 3219              		.loc 1 1028 1 is_stmt 0 discriminator 2 view .LVU959
 3220 0054 02B0     		add	sp, sp, #8
 3221              		.cfi_def_cfa_offset 16
 3222              		@ sp needed
 3223 0056 70BD     		pop	{r4, r5, r6, pc}
 3224              		.loc 1 1028 1 discriminator 2 view .LVU960
 3225              		.cfi_endproc
 3226              	.LFE55:
 3228              		.section	.text.lv_tlsf_create,"ax",%progbits
 3229              		.align	1
 3230              		.global	lv_tlsf_create
 3231              		.syntax unified
 3232              		.thumb
 3233              		.thumb_func
 3235              	lv_tlsf_create:
 3236              	.LVL320:
 3237              	.LFB56:
1029:Drivers/lvgl/src/misc/lv_tlsf.c **** 
1030:Drivers/lvgl/src/misc/lv_tlsf.c **** /*
1031:Drivers/lvgl/src/misc/lv_tlsf.c **** ** TLSF main interface.
1032:Drivers/lvgl/src/misc/lv_tlsf.c **** */
1033:Drivers/lvgl/src/misc/lv_tlsf.c **** 
1034:Drivers/lvgl/src/misc/lv_tlsf.c **** #if _DEBUG
1035:Drivers/lvgl/src/misc/lv_tlsf.c **** int test_ffs_fls()
1036:Drivers/lvgl/src/misc/lv_tlsf.c **** {
1037:Drivers/lvgl/src/misc/lv_tlsf.c ****     /* Verify ffs/fls work properly. */
1038:Drivers/lvgl/src/misc/lv_tlsf.c ****     int rv = 0;
1039:Drivers/lvgl/src/misc/lv_tlsf.c ****     rv += (tlsf_ffs(0) == -1) ? 0 : 0x1;
1040:Drivers/lvgl/src/misc/lv_tlsf.c ****     rv += (tlsf_fls(0) == -1) ? 0 : 0x2;
1041:Drivers/lvgl/src/misc/lv_tlsf.c ****     rv += (tlsf_ffs(1) == 0) ? 0 : 0x4;
1042:Drivers/lvgl/src/misc/lv_tlsf.c ****     rv += (tlsf_fls(1) == 0) ? 0 : 0x8;
1043:Drivers/lvgl/src/misc/lv_tlsf.c ****     rv += (tlsf_ffs(0x80000000) == 31) ? 0 : 0x10;
1044:Drivers/lvgl/src/misc/lv_tlsf.c ****     rv += (tlsf_ffs(0x80008000) == 15) ? 0 : 0x20;
1045:Drivers/lvgl/src/misc/lv_tlsf.c ****     rv += (tlsf_fls(0x80000008) == 31) ? 0 : 0x40;
1046:Drivers/lvgl/src/misc/lv_tlsf.c ****     rv += (tlsf_fls(0x7FFFFFFF) == 30) ? 0 : 0x80;
1047:Drivers/lvgl/src/misc/lv_tlsf.c **** 
1048:Drivers/lvgl/src/misc/lv_tlsf.c **** #if defined (TLSF_64BIT)
1049:Drivers/lvgl/src/misc/lv_tlsf.c ****     rv += (tlsf_fls_sizet(0x80000000) == 31) ? 0 : 0x100;
1050:Drivers/lvgl/src/misc/lv_tlsf.c ****     rv += (tlsf_fls_sizet(0x100000000) == 32) ? 0 : 0x200;
1051:Drivers/lvgl/src/misc/lv_tlsf.c ****     rv += (tlsf_fls_sizet(0xffffffffffffffff) == 63) ? 0 : 0x400;
1052:Drivers/lvgl/src/misc/lv_tlsf.c **** #endif
ARM GAS  /var/folders/0z/tsy30v1j4xl4_7kw94k978ww0000gn/T//ccByTTYT.s 			page 83


1053:Drivers/lvgl/src/misc/lv_tlsf.c **** 
1054:Drivers/lvgl/src/misc/lv_tlsf.c ****     if(rv) {
1055:Drivers/lvgl/src/misc/lv_tlsf.c ****         printf("test_ffs_fls: %x ffs/fls tests failed.\n", rv);
1056:Drivers/lvgl/src/misc/lv_tlsf.c ****     }
1057:Drivers/lvgl/src/misc/lv_tlsf.c ****     return rv;
1058:Drivers/lvgl/src/misc/lv_tlsf.c **** }
1059:Drivers/lvgl/src/misc/lv_tlsf.c **** #endif
1060:Drivers/lvgl/src/misc/lv_tlsf.c **** 
1061:Drivers/lvgl/src/misc/lv_tlsf.c **** lv_tlsf_t lv_tlsf_create(void * mem)
1062:Drivers/lvgl/src/misc/lv_tlsf.c **** {
 3238              		.loc 1 1062 1 is_stmt 1 view -0
 3239              		.cfi_startproc
 3240              		@ args = 0, pretend = 0, frame = 0
 3241              		@ frame_needed = 0, uses_anonymous_args = 0
1063:Drivers/lvgl/src/misc/lv_tlsf.c **** #if _DEBUG
1064:Drivers/lvgl/src/misc/lv_tlsf.c ****     if(test_ffs_fls()) {
1065:Drivers/lvgl/src/misc/lv_tlsf.c ****         return 0;
1066:Drivers/lvgl/src/misc/lv_tlsf.c ****     }
1067:Drivers/lvgl/src/misc/lv_tlsf.c **** #endif
1068:Drivers/lvgl/src/misc/lv_tlsf.c **** 
1069:Drivers/lvgl/src/misc/lv_tlsf.c ****     if(((tlsfptr_t)mem % ALIGN_SIZE) != 0) {
 3242              		.loc 1 1069 5 view .LVU962
 3243              		.loc 1 1069 7 is_stmt 0 view .LVU963
 3244 0000 10F0030F 		tst	r0, #3
 3245 0004 05D1     		bne	.L226
1062:Drivers/lvgl/src/misc/lv_tlsf.c **** #if _DEBUG
 3246              		.loc 1 1062 1 view .LVU964
 3247 0006 10B5     		push	{r4, lr}
 3248              		.cfi_def_cfa_offset 8
 3249              		.cfi_offset 4, -8
 3250              		.cfi_offset 14, -4
 3251 0008 0446     		mov	r4, r0
1070:Drivers/lvgl/src/misc/lv_tlsf.c ****         printf("lv_tlsf_create: Memory must be aligned to %u bytes.\n",
1071:Drivers/lvgl/src/misc/lv_tlsf.c ****                (unsigned int)ALIGN_SIZE);
1072:Drivers/lvgl/src/misc/lv_tlsf.c ****         return 0;
1073:Drivers/lvgl/src/misc/lv_tlsf.c ****     }
1074:Drivers/lvgl/src/misc/lv_tlsf.c **** 
1075:Drivers/lvgl/src/misc/lv_tlsf.c ****     control_constructor(tlsf_cast(control_t *, mem));
 3252              		.loc 1 1075 5 is_stmt 1 view .LVU965
 3253 000a FFF7FEFF 		bl	control_constructor
 3254              	.LVL321:
1076:Drivers/lvgl/src/misc/lv_tlsf.c **** 
1077:Drivers/lvgl/src/misc/lv_tlsf.c ****     return tlsf_cast(lv_tlsf_t, mem);
 3255              		.loc 1 1077 5 view .LVU966
 3256              		.loc 1 1077 12 is_stmt 0 view .LVU967
 3257 000e 2046     		mov	r0, r4
1078:Drivers/lvgl/src/misc/lv_tlsf.c **** }
 3258              		.loc 1 1078 1 view .LVU968
 3259 0010 10BD     		pop	{r4, pc}
 3260              	.LVL322:
 3261              	.L226:
 3262              		.cfi_def_cfa_offset 0
 3263              		.cfi_restore 4
 3264              		.cfi_restore 14
1072:Drivers/lvgl/src/misc/lv_tlsf.c ****     }
 3265              		.loc 1 1072 16 view .LVU969
 3266 0012 0020     		movs	r0, #0
ARM GAS  /var/folders/0z/tsy30v1j4xl4_7kw94k978ww0000gn/T//ccByTTYT.s 			page 84


 3267              	.LVL323:
 3268              		.loc 1 1078 1 view .LVU970
 3269 0014 7047     		bx	lr
 3270              		.cfi_endproc
 3271              	.LFE56:
 3273              		.section	.text.lv_tlsf_create_with_pool,"ax",%progbits
 3274              		.align	1
 3275              		.global	lv_tlsf_create_with_pool
 3276              		.syntax unified
 3277              		.thumb
 3278              		.thumb_func
 3280              	lv_tlsf_create_with_pool:
 3281              	.LVL324:
 3282              	.LFB57:
1079:Drivers/lvgl/src/misc/lv_tlsf.c **** 
1080:Drivers/lvgl/src/misc/lv_tlsf.c **** lv_tlsf_t lv_tlsf_create_with_pool(void * mem, size_t bytes)
1081:Drivers/lvgl/src/misc/lv_tlsf.c **** {
 3283              		.loc 1 1081 1 is_stmt 1 view -0
 3284              		.cfi_startproc
 3285              		@ args = 0, pretend = 0, frame = 0
 3286              		@ frame_needed = 0, uses_anonymous_args = 0
 3287              		.loc 1 1081 1 is_stmt 0 view .LVU972
 3288 0000 70B5     		push	{r4, r5, r6, lr}
 3289              		.cfi_def_cfa_offset 16
 3290              		.cfi_offset 4, -16
 3291              		.cfi_offset 5, -12
 3292              		.cfi_offset 6, -8
 3293              		.cfi_offset 14, -4
 3294 0002 0546     		mov	r5, r0
 3295 0004 0E46     		mov	r6, r1
1082:Drivers/lvgl/src/misc/lv_tlsf.c ****     lv_tlsf_t tlsf = lv_tlsf_create(mem);
 3296              		.loc 1 1082 5 is_stmt 1 view .LVU973
 3297              		.loc 1 1082 22 is_stmt 0 view .LVU974
 3298 0006 FFF7FEFF 		bl	lv_tlsf_create
 3299              	.LVL325:
 3300              		.loc 1 1082 22 view .LVU975
 3301 000a 0446     		mov	r4, r0
 3302              	.LVL326:
1083:Drivers/lvgl/src/misc/lv_tlsf.c ****     lv_tlsf_add_pool(tlsf, (char *)mem + lv_tlsf_size(), bytes - lv_tlsf_size());
 3303              		.loc 1 1083 5 is_stmt 1 view .LVU976
 3304              		.loc 1 1083 42 is_stmt 0 view .LVU977
 3305 000c FFF7FEFF 		bl	lv_tlsf_size
 3306              	.LVL327:
 3307              		.loc 1 1083 5 view .LVU978
 3308 0010 321A     		subs	r2, r6, r0
 3309 0012 2918     		adds	r1, r5, r0
 3310 0014 2046     		mov	r0, r4
 3311 0016 FFF7FEFF 		bl	lv_tlsf_add_pool
 3312              	.LVL328:
1084:Drivers/lvgl/src/misc/lv_tlsf.c ****     return tlsf;
 3313              		.loc 1 1084 5 is_stmt 1 view .LVU979
1085:Drivers/lvgl/src/misc/lv_tlsf.c **** }
 3314              		.loc 1 1085 1 is_stmt 0 view .LVU980
 3315 001a 2046     		mov	r0, r4
 3316 001c 70BD     		pop	{r4, r5, r6, pc}
 3317              		.loc 1 1085 1 view .LVU981
 3318              		.cfi_endproc
ARM GAS  /var/folders/0z/tsy30v1j4xl4_7kw94k978ww0000gn/T//ccByTTYT.s 			page 85


 3319              	.LFE57:
 3321              		.section	.text.lv_tlsf_destroy,"ax",%progbits
 3322              		.align	1
 3323              		.global	lv_tlsf_destroy
 3324              		.syntax unified
 3325              		.thumb
 3326              		.thumb_func
 3328              	lv_tlsf_destroy:
 3329              	.LVL329:
 3330              	.LFB58:
1086:Drivers/lvgl/src/misc/lv_tlsf.c **** 
1087:Drivers/lvgl/src/misc/lv_tlsf.c **** void lv_tlsf_destroy(lv_tlsf_t tlsf)
1088:Drivers/lvgl/src/misc/lv_tlsf.c **** {
 3331              		.loc 1 1088 1 is_stmt 1 view -0
 3332              		.cfi_startproc
 3333              		@ args = 0, pretend = 0, frame = 0
 3334              		@ frame_needed = 0, uses_anonymous_args = 0
 3335              		@ link register save eliminated.
1089:Drivers/lvgl/src/misc/lv_tlsf.c ****     /* Nothing to do. */
1090:Drivers/lvgl/src/misc/lv_tlsf.c ****     LV_UNUSED(tlsf);
 3336              		.loc 1 1090 5 view .LVU983
1091:Drivers/lvgl/src/misc/lv_tlsf.c **** }
 3337              		.loc 1 1091 1 is_stmt 0 view .LVU984
 3338 0000 7047     		bx	lr
 3339              		.cfi_endproc
 3340              	.LFE58:
 3342              		.section	.text.lv_tlsf_get_pool,"ax",%progbits
 3343              		.align	1
 3344              		.global	lv_tlsf_get_pool
 3345              		.syntax unified
 3346              		.thumb
 3347              		.thumb_func
 3349              	lv_tlsf_get_pool:
 3350              	.LVL330:
 3351              	.LFB59:
1092:Drivers/lvgl/src/misc/lv_tlsf.c **** 
1093:Drivers/lvgl/src/misc/lv_tlsf.c **** lv_pool_t lv_tlsf_get_pool(lv_tlsf_t tlsf)
1094:Drivers/lvgl/src/misc/lv_tlsf.c **** {
 3352              		.loc 1 1094 1 is_stmt 1 view -0
 3353              		.cfi_startproc
 3354              		@ args = 0, pretend = 0, frame = 0
 3355              		@ frame_needed = 0, uses_anonymous_args = 0
 3356              		.loc 1 1094 1 is_stmt 0 view .LVU986
 3357 0000 10B5     		push	{r4, lr}
 3358              		.cfi_def_cfa_offset 8
 3359              		.cfi_offset 4, -8
 3360              		.cfi_offset 14, -4
 3361 0002 0446     		mov	r4, r0
1095:Drivers/lvgl/src/misc/lv_tlsf.c ****     return tlsf_cast(lv_pool_t, (char *)tlsf + lv_tlsf_size());
 3362              		.loc 1 1095 5 is_stmt 1 view .LVU987
 3363              		.loc 1 1095 12 is_stmt 0 view .LVU988
 3364 0004 FFF7FEFF 		bl	lv_tlsf_size
 3365              	.LVL331:
1096:Drivers/lvgl/src/misc/lv_tlsf.c **** }
 3366              		.loc 1 1096 1 view .LVU989
 3367 0008 2044     		add	r0, r0, r4
 3368 000a 10BD     		pop	{r4, pc}
ARM GAS  /var/folders/0z/tsy30v1j4xl4_7kw94k978ww0000gn/T//ccByTTYT.s 			page 86


 3369              		.loc 1 1096 1 view .LVU990
 3370              		.cfi_endproc
 3371              	.LFE59:
 3373              		.section	.text.lv_tlsf_malloc,"ax",%progbits
 3374              		.align	1
 3375              		.global	lv_tlsf_malloc
 3376              		.syntax unified
 3377              		.thumb
 3378              		.thumb_func
 3380              	lv_tlsf_malloc:
 3381              	.LVL332:
 3382              	.LFB60:
1097:Drivers/lvgl/src/misc/lv_tlsf.c **** 
1098:Drivers/lvgl/src/misc/lv_tlsf.c **** void * lv_tlsf_malloc(lv_tlsf_t tlsf, size_t size)
1099:Drivers/lvgl/src/misc/lv_tlsf.c **** {
 3383              		.loc 1 1099 1 is_stmt 1 view -0
 3384              		.cfi_startproc
 3385              		@ args = 0, pretend = 0, frame = 0
 3386              		@ frame_needed = 0, uses_anonymous_args = 0
 3387              		.loc 1 1099 1 is_stmt 0 view .LVU992
 3388 0000 38B5     		push	{r3, r4, r5, lr}
 3389              		.cfi_def_cfa_offset 16
 3390              		.cfi_offset 3, -16
 3391              		.cfi_offset 4, -12
 3392              		.cfi_offset 5, -8
 3393              		.cfi_offset 14, -4
 3394 0002 0446     		mov	r4, r0
 3395 0004 0846     		mov	r0, r1
 3396              	.LVL333:
1100:Drivers/lvgl/src/misc/lv_tlsf.c ****     control_t * control = tlsf_cast(control_t *, tlsf);
 3397              		.loc 1 1100 5 is_stmt 1 view .LVU993
1101:Drivers/lvgl/src/misc/lv_tlsf.c ****     const size_t adjust = adjust_request_size(size, ALIGN_SIZE);
 3398              		.loc 1 1101 5 view .LVU994
 3399              		.loc 1 1101 27 is_stmt 0 view .LVU995
 3400 0006 0421     		movs	r1, #4
 3401              	.LVL334:
 3402              		.loc 1 1101 27 view .LVU996
 3403 0008 FFF7FEFF 		bl	adjust_request_size
 3404              	.LVL335:
 3405              		.loc 1 1101 27 view .LVU997
 3406 000c 0546     		mov	r5, r0
 3407              	.LVL336:
1102:Drivers/lvgl/src/misc/lv_tlsf.c ****     block_header_t * block = block_locate_free(control, adjust);
 3408              		.loc 1 1102 5 is_stmt 1 view .LVU998
 3409              		.loc 1 1102 30 is_stmt 0 view .LVU999
 3410 000e 0146     		mov	r1, r0
 3411 0010 2046     		mov	r0, r4
 3412              	.LVL337:
 3413              		.loc 1 1102 30 view .LVU1000
 3414 0012 FFF7FEFF 		bl	block_locate_free
 3415              	.LVL338:
 3416              		.loc 1 1102 30 view .LVU1001
 3417 0016 0146     		mov	r1, r0
 3418              	.LVL339:
1103:Drivers/lvgl/src/misc/lv_tlsf.c ****     return block_prepare_used(control, block, adjust);
 3419              		.loc 1 1103 5 is_stmt 1 view .LVU1002
 3420              		.loc 1 1103 12 is_stmt 0 view .LVU1003
ARM GAS  /var/folders/0z/tsy30v1j4xl4_7kw94k978ww0000gn/T//ccByTTYT.s 			page 87


 3421 0018 2A46     		mov	r2, r5
 3422 001a 2046     		mov	r0, r4
 3423              	.LVL340:
 3424              		.loc 1 1103 12 view .LVU1004
 3425 001c FFF7FEFF 		bl	block_prepare_used
 3426              	.LVL341:
1104:Drivers/lvgl/src/misc/lv_tlsf.c **** }
 3427              		.loc 1 1104 1 view .LVU1005
 3428 0020 38BD     		pop	{r3, r4, r5, pc}
 3429              		.loc 1 1104 1 view .LVU1006
 3430              		.cfi_endproc
 3431              	.LFE60:
 3433              		.section	.text.lv_tlsf_memalign,"ax",%progbits
 3434              		.align	1
 3435              		.global	lv_tlsf_memalign
 3436              		.syntax unified
 3437              		.thumb
 3438              		.thumb_func
 3440              	lv_tlsf_memalign:
 3441              	.LVL342:
 3442              	.LFB61:
1105:Drivers/lvgl/src/misc/lv_tlsf.c **** 
1106:Drivers/lvgl/src/misc/lv_tlsf.c **** void * lv_tlsf_memalign(lv_tlsf_t tlsf, size_t align, size_t size)
1107:Drivers/lvgl/src/misc/lv_tlsf.c **** {
 3443              		.loc 1 1107 1 is_stmt 1 view -0
 3444              		.cfi_startproc
 3445              		@ args = 0, pretend = 0, frame = 0
 3446              		@ frame_needed = 0, uses_anonymous_args = 0
 3447              		.loc 1 1107 1 is_stmt 0 view .LVU1008
 3448 0000 2DE9F041 		push	{r4, r5, r6, r7, r8, lr}
 3449              		.cfi_def_cfa_offset 24
 3450              		.cfi_offset 4, -24
 3451              		.cfi_offset 5, -20
 3452              		.cfi_offset 6, -16
 3453              		.cfi_offset 7, -12
 3454              		.cfi_offset 8, -8
 3455              		.cfi_offset 14, -4
 3456 0004 0646     		mov	r6, r0
 3457 0006 0C46     		mov	r4, r1
1108:Drivers/lvgl/src/misc/lv_tlsf.c ****     control_t * control = tlsf_cast(control_t *, tlsf);
 3458              		.loc 1 1108 5 is_stmt 1 view .LVU1009
 3459              	.LVL343:
1109:Drivers/lvgl/src/misc/lv_tlsf.c ****     const size_t adjust = adjust_request_size(size, ALIGN_SIZE);
 3460              		.loc 1 1109 5 view .LVU1010
 3461              		.loc 1 1109 27 is_stmt 0 view .LVU1011
 3462 0008 0421     		movs	r1, #4
 3463              	.LVL344:
 3464              		.loc 1 1109 27 view .LVU1012
 3465 000a 1046     		mov	r0, r2
 3466              	.LVL345:
 3467              		.loc 1 1109 27 view .LVU1013
 3468 000c FFF7FEFF 		bl	adjust_request_size
 3469              	.LVL346:
 3470              		.loc 1 1109 27 view .LVU1014
 3471 0010 0546     		mov	r5, r0
 3472              	.LVL347:
1110:Drivers/lvgl/src/misc/lv_tlsf.c **** 
ARM GAS  /var/folders/0z/tsy30v1j4xl4_7kw94k978ww0000gn/T//ccByTTYT.s 			page 88


1111:Drivers/lvgl/src/misc/lv_tlsf.c ****     /*
1112:Drivers/lvgl/src/misc/lv_tlsf.c ****     ** We must allocate an additional minimum block size bytes so that if
1113:Drivers/lvgl/src/misc/lv_tlsf.c ****     ** our free block will leave an alignment gap which is smaller, we can
1114:Drivers/lvgl/src/misc/lv_tlsf.c ****     ** trim a leading free block and release it back to the pool. We must
1115:Drivers/lvgl/src/misc/lv_tlsf.c ****     ** do this because the previous physical block is in use, therefore
1116:Drivers/lvgl/src/misc/lv_tlsf.c ****     ** the prev_phys_block field is not valid, and we can't simply adjust
1117:Drivers/lvgl/src/misc/lv_tlsf.c ****     ** the size of that block.
1118:Drivers/lvgl/src/misc/lv_tlsf.c ****     */
1119:Drivers/lvgl/src/misc/lv_tlsf.c ****     const size_t gap_minimum = sizeof(block_header_t);
 3473              		.loc 1 1119 5 is_stmt 1 view .LVU1015
1120:Drivers/lvgl/src/misc/lv_tlsf.c ****     const size_t size_with_gap = adjust_request_size(adjust + align + gap_minimum, align);
 3474              		.loc 1 1120 5 view .LVU1016
 3475              		.loc 1 1120 61 is_stmt 0 view .LVU1017
 3476 0012 2044     		add	r0, r0, r4
 3477              	.LVL348:
 3478              		.loc 1 1120 34 view .LVU1018
 3479 0014 2146     		mov	r1, r4
 3480 0016 1030     		adds	r0, r0, #16
 3481 0018 FFF7FEFF 		bl	adjust_request_size
 3482              	.LVL349:
1121:Drivers/lvgl/src/misc/lv_tlsf.c **** 
1122:Drivers/lvgl/src/misc/lv_tlsf.c ****     /*
1123:Drivers/lvgl/src/misc/lv_tlsf.c ****     ** If alignment is less than or equals base alignment, we're done.
1124:Drivers/lvgl/src/misc/lv_tlsf.c ****     ** If we requested 0 bytes, return null, as lv_tlsf_malloc(0) does.
1125:Drivers/lvgl/src/misc/lv_tlsf.c ****     */
1126:Drivers/lvgl/src/misc/lv_tlsf.c ****     const size_t aligned_size = (adjust && align > ALIGN_SIZE) ? size_with_gap : adjust;
 3483              		.loc 1 1126 5 is_stmt 1 view .LVU1019
 3484              		.loc 1 1126 80 is_stmt 0 view .LVU1020
 3485 001c 25B1     		cbz	r5, .L244
 3486 001e 0146     		mov	r1, r0
 3487              		.loc 1 1126 41 discriminator 1 view .LVU1021
 3488 0020 042C     		cmp	r4, #4
 3489 0022 02D8     		bhi	.L239
 3490              		.loc 1 1126 80 view .LVU1022
 3491 0024 2946     		mov	r1, r5
 3492 0026 00E0     		b	.L239
 3493              	.L244:
 3494              		.loc 1 1126 80 view .LVU1023
 3495 0028 2946     		mov	r1, r5
 3496              	.L239:
 3497              	.LVL350:
1127:Drivers/lvgl/src/misc/lv_tlsf.c **** 
1128:Drivers/lvgl/src/misc/lv_tlsf.c ****     block_header_t * block = block_locate_free(control, aligned_size);
 3498              		.loc 1 1128 5 is_stmt 1 discriminator 6 view .LVU1024
 3499              		.loc 1 1128 30 is_stmt 0 discriminator 6 view .LVU1025
 3500 002a 3046     		mov	r0, r6
 3501              	.LVL351:
 3502              		.loc 1 1128 30 discriminator 6 view .LVU1026
 3503 002c FFF7FEFF 		bl	block_locate_free
 3504              	.LVL352:
1129:Drivers/lvgl/src/misc/lv_tlsf.c **** 
1130:Drivers/lvgl/src/misc/lv_tlsf.c ****     /* This can't be a static assert. */
1131:Drivers/lvgl/src/misc/lv_tlsf.c ****     tlsf_assert(sizeof(block_header_t) == block_size_min + block_header_overhead);
 3505              		.loc 1 1131 5 is_stmt 1 discriminator 6 view .LVU1027
 3506              		.loc 1 1131 5 discriminator 6 view .LVU1028
 3507              		.loc 1 1131 5 discriminator 6 view .LVU1029
1132:Drivers/lvgl/src/misc/lv_tlsf.c **** 
ARM GAS  /var/folders/0z/tsy30v1j4xl4_7kw94k978ww0000gn/T//ccByTTYT.s 			page 89


1133:Drivers/lvgl/src/misc/lv_tlsf.c ****     if(block) {
 3508              		.loc 1 1133 5 discriminator 6 view .LVU1030
 3509              		.loc 1 1133 7 is_stmt 0 discriminator 6 view .LVU1031
 3510 0030 0746     		mov	r7, r0
 3511 0032 F8B1     		cbz	r0, .L240
 3512              	.LBB13:
1134:Drivers/lvgl/src/misc/lv_tlsf.c ****         void * ptr = block_to_ptr(block);
 3513              		.loc 1 1134 9 is_stmt 1 view .LVU1032
 3514              		.loc 1 1134 22 is_stmt 0 view .LVU1033
 3515 0034 FFF7FEFF 		bl	block_to_ptr
 3516              	.LVL353:
 3517              		.loc 1 1134 22 view .LVU1034
 3518 0038 8046     		mov	r8, r0
 3519              	.LVL354:
1135:Drivers/lvgl/src/misc/lv_tlsf.c ****         void * aligned = align_ptr(ptr, align);
 3520              		.loc 1 1135 9 is_stmt 1 view .LVU1035
 3521              		.loc 1 1135 26 is_stmt 0 view .LVU1036
 3522 003a 2146     		mov	r1, r4
 3523 003c FFF7FEFF 		bl	align_ptr
 3524              	.LVL355:
1136:Drivers/lvgl/src/misc/lv_tlsf.c ****         size_t gap = tlsf_cast(size_t,
 3525              		.loc 1 1136 9 is_stmt 1 view .LVU1037
 3526              		.loc 1 1136 22 is_stmt 0 view .LVU1038
 3527 0040 A0EB0802 		sub	r2, r0, r8
 3528              	.LVL356:
1137:Drivers/lvgl/src/misc/lv_tlsf.c ****                                tlsf_cast(tlsfptr_t, aligned) - tlsf_cast(tlsfptr_t, ptr));
1138:Drivers/lvgl/src/misc/lv_tlsf.c **** 
1139:Drivers/lvgl/src/misc/lv_tlsf.c ****         /* If gap size is too small, offset to next aligned boundary. */
1140:Drivers/lvgl/src/misc/lv_tlsf.c ****         if(gap && gap < gap_minimum) {
 3529              		.loc 1 1140 9 is_stmt 1 view .LVU1039
 3530              		.loc 1 1140 16 is_stmt 0 view .LVU1040
 3531 0044 531E     		subs	r3, r2, #1
 3532              		.loc 1 1140 11 view .LVU1041
 3533 0046 0E2B     		cmp	r3, #14
 3534 0048 03D9     		bls	.L246
 3535              	.L241:
1141:Drivers/lvgl/src/misc/lv_tlsf.c ****             const size_t gap_remain = gap_minimum - gap;
1142:Drivers/lvgl/src/misc/lv_tlsf.c ****             const size_t offset = tlsf_max(gap_remain, align);
1143:Drivers/lvgl/src/misc/lv_tlsf.c ****             const void * next_aligned = tlsf_cast(void *,
1144:Drivers/lvgl/src/misc/lv_tlsf.c ****                                                   tlsf_cast(tlsfptr_t, aligned) + offset);
1145:Drivers/lvgl/src/misc/lv_tlsf.c **** 
1146:Drivers/lvgl/src/misc/lv_tlsf.c ****             aligned = align_ptr(next_aligned, align);
1147:Drivers/lvgl/src/misc/lv_tlsf.c ****             gap = tlsf_cast(size_t,
1148:Drivers/lvgl/src/misc/lv_tlsf.c ****                             tlsf_cast(tlsfptr_t, aligned) - tlsf_cast(tlsfptr_t, ptr));
1149:Drivers/lvgl/src/misc/lv_tlsf.c ****         }
1150:Drivers/lvgl/src/misc/lv_tlsf.c **** 
1151:Drivers/lvgl/src/misc/lv_tlsf.c ****         if(gap) {
 3536              		.loc 1 1151 9 is_stmt 1 view .LVU1042
 3537              		.loc 1 1151 11 is_stmt 0 view .LVU1043
 3538 004a 9AB1     		cbz	r2, .L240
1152:Drivers/lvgl/src/misc/lv_tlsf.c ****             tlsf_assert(gap >= gap_minimum && "gap size too small");
 3539              		.loc 1 1152 13 is_stmt 1 view .LVU1044
 3540              		.loc 1 1152 13 view .LVU1045
 3541 004c 0F2A     		cmp	r2, #15
 3542 004e 0CD8     		bhi	.L242
 3543              	.L243:
 3544              		.loc 1 1152 13 discriminator 2 view .LVU1046
ARM GAS  /var/folders/0z/tsy30v1j4xl4_7kw94k978ww0000gn/T//ccByTTYT.s 			page 90


 3545              		.loc 1 1152 13 discriminator 2 view .LVU1047
 3546              		.loc 1 1152 13 discriminator 2 view .LVU1048
 3547              		.loc 1 1152 13 discriminator 2 view .LVU1049
 3548              		.loc 1 1152 13 discriminator 2 view .LVU1050
 3549 0050 FEE7     		b	.L243
 3550              	.L246:
 3551              	.LBB14:
1141:Drivers/lvgl/src/misc/lv_tlsf.c ****             const size_t gap_remain = gap_minimum - gap;
 3552              		.loc 1 1141 13 view .LVU1051
1141:Drivers/lvgl/src/misc/lv_tlsf.c ****             const size_t gap_remain = gap_minimum - gap;
 3553              		.loc 1 1141 26 is_stmt 0 view .LVU1052
 3554 0052 C2F11002 		rsb	r2, r2, #16
 3555              	.LVL357:
1142:Drivers/lvgl/src/misc/lv_tlsf.c ****             const void * next_aligned = tlsf_cast(void *,
 3556              		.loc 1 1142 13 is_stmt 1 view .LVU1053
1143:Drivers/lvgl/src/misc/lv_tlsf.c ****                                                   tlsf_cast(tlsfptr_t, aligned) + offset);
 3557              		.loc 1 1143 13 view .LVU1054
1146:Drivers/lvgl/src/misc/lv_tlsf.c ****             gap = tlsf_cast(size_t,
 3558              		.loc 1 1146 13 view .LVU1055
1146:Drivers/lvgl/src/misc/lv_tlsf.c ****             gap = tlsf_cast(size_t,
 3559              		.loc 1 1146 23 is_stmt 0 view .LVU1056
 3560 0056 2146     		mov	r1, r4
 3561 0058 9442     		cmp	r4, r2
 3562 005a 2CBF     		ite	cs
 3563 005c 0019     		addcs	r0, r0, r4
 3564 005e 8018     		addcc	r0, r0, r2
 3565              	.LVL358:
1146:Drivers/lvgl/src/misc/lv_tlsf.c ****             gap = tlsf_cast(size_t,
 3566              		.loc 1 1146 23 view .LVU1057
 3567 0060 FFF7FEFF 		bl	align_ptr
 3568              	.LVL359:
1147:Drivers/lvgl/src/misc/lv_tlsf.c ****                             tlsf_cast(tlsfptr_t, aligned) - tlsf_cast(tlsfptr_t, ptr));
 3569              		.loc 1 1147 13 is_stmt 1 view .LVU1058
1147:Drivers/lvgl/src/misc/lv_tlsf.c ****                             tlsf_cast(tlsfptr_t, aligned) - tlsf_cast(tlsfptr_t, ptr));
 3570              		.loc 1 1147 19 is_stmt 0 view .LVU1059
 3571 0064 A0EB0802 		sub	r2, r0, r8
 3572              	.LVL360:
1147:Drivers/lvgl/src/misc/lv_tlsf.c ****                             tlsf_cast(tlsfptr_t, aligned) - tlsf_cast(tlsfptr_t, ptr));
 3573              		.loc 1 1147 19 view .LVU1060
 3574 0068 EFE7     		b	.L241
 3575              	.L242:
1147:Drivers/lvgl/src/misc/lv_tlsf.c ****                             tlsf_cast(tlsfptr_t, aligned) - tlsf_cast(tlsfptr_t, ptr));
 3576              		.loc 1 1147 19 view .LVU1061
 3577              	.LBE14:
 3578              		.loc 1 1152 13 is_stmt 1 discriminator 2 view .LVU1062
1153:Drivers/lvgl/src/misc/lv_tlsf.c ****             block = block_trim_free_leading(control, block, gap);
 3579              		.loc 1 1153 13 discriminator 2 view .LVU1063
 3580              		.loc 1 1153 21 is_stmt 0 discriminator 2 view .LVU1064
 3581 006a 3946     		mov	r1, r7
 3582 006c 3046     		mov	r0, r6
 3583              	.LVL361:
 3584              		.loc 1 1153 21 discriminator 2 view .LVU1065
 3585 006e FFF7FEFF 		bl	block_trim_free_leading
 3586              	.LVL362:
 3587              		.loc 1 1153 21 discriminator 2 view .LVU1066
 3588 0072 0746     		mov	r7, r0
 3589              	.LVL363:
ARM GAS  /var/folders/0z/tsy30v1j4xl4_7kw94k978ww0000gn/T//ccByTTYT.s 			page 91


 3590              	.L240:
 3591              		.loc 1 1153 21 discriminator 2 view .LVU1067
 3592              	.LBE13:
1154:Drivers/lvgl/src/misc/lv_tlsf.c ****         }
1155:Drivers/lvgl/src/misc/lv_tlsf.c ****     }
1156:Drivers/lvgl/src/misc/lv_tlsf.c **** 
1157:Drivers/lvgl/src/misc/lv_tlsf.c ****     return block_prepare_used(control, block, adjust);
 3593              		.loc 1 1157 5 is_stmt 1 view .LVU1068
 3594              		.loc 1 1157 12 is_stmt 0 view .LVU1069
 3595 0074 2A46     		mov	r2, r5
 3596 0076 3946     		mov	r1, r7
 3597 0078 3046     		mov	r0, r6
 3598 007a FFF7FEFF 		bl	block_prepare_used
 3599              	.LVL364:
1158:Drivers/lvgl/src/misc/lv_tlsf.c **** }
 3600              		.loc 1 1158 1 view .LVU1070
 3601 007e BDE8F081 		pop	{r4, r5, r6, r7, r8, pc}
 3602              		.loc 1 1158 1 view .LVU1071
 3603              		.cfi_endproc
 3604              	.LFE61:
 3606              		.section	.text.lv_tlsf_free,"ax",%progbits
 3607              		.align	1
 3608              		.global	lv_tlsf_free
 3609              		.syntax unified
 3610              		.thumb
 3611              		.thumb_func
 3613              	lv_tlsf_free:
 3614              	.LVL365:
 3615              	.LFB62:
1159:Drivers/lvgl/src/misc/lv_tlsf.c **** 
1160:Drivers/lvgl/src/misc/lv_tlsf.c **** size_t lv_tlsf_free(lv_tlsf_t tlsf, const void * ptr)
1161:Drivers/lvgl/src/misc/lv_tlsf.c **** {
 3616              		.loc 1 1161 1 is_stmt 1 view -0
 3617              		.cfi_startproc
 3618              		@ args = 0, pretend = 0, frame = 0
 3619              		@ frame_needed = 0, uses_anonymous_args = 0
 3620              		.loc 1 1161 1 is_stmt 0 view .LVU1073
 3621 0000 70B5     		push	{r4, r5, r6, lr}
 3622              		.cfi_def_cfa_offset 16
 3623              		.cfi_offset 4, -16
 3624              		.cfi_offset 5, -12
 3625              		.cfi_offset 6, -8
 3626              		.cfi_offset 14, -4
1162:Drivers/lvgl/src/misc/lv_tlsf.c ****     size_t size = 0;
 3627              		.loc 1 1162 5 is_stmt 1 view .LVU1074
 3628              	.LVL366:
1163:Drivers/lvgl/src/misc/lv_tlsf.c ****     /* Don't attempt to free a NULL pointer. */
1164:Drivers/lvgl/src/misc/lv_tlsf.c ****     if(ptr) {
 3629              		.loc 1 1164 5 view .LVU1075
 3630              		.loc 1 1164 7 is_stmt 0 view .LVU1076
 3631 0002 C9B1     		cbz	r1, .L251
 3632 0004 0546     		mov	r5, r0
 3633 0006 0846     		mov	r0, r1
 3634              	.LVL367:
 3635              	.LBB15:
1165:Drivers/lvgl/src/misc/lv_tlsf.c ****         control_t * control = tlsf_cast(control_t *, tlsf);
 3636              		.loc 1 1165 9 is_stmt 1 view .LVU1077
ARM GAS  /var/folders/0z/tsy30v1j4xl4_7kw94k978ww0000gn/T//ccByTTYT.s 			page 92


1166:Drivers/lvgl/src/misc/lv_tlsf.c ****         block_header_t * block = block_from_ptr(ptr);
 3637              		.loc 1 1166 9 view .LVU1078
 3638              		.loc 1 1166 34 is_stmt 0 view .LVU1079
 3639 0008 FFF7FEFF 		bl	block_from_ptr
 3640              	.LVL368:
 3641              		.loc 1 1166 34 view .LVU1080
 3642 000c 0446     		mov	r4, r0
 3643              	.LVL369:
1167:Drivers/lvgl/src/misc/lv_tlsf.c ****         tlsf_assert(!block_is_free(block) && "block already marked as free");
 3644              		.loc 1 1167 9 is_stmt 1 view .LVU1081
 3645              		.loc 1 1167 9 view .LVU1082
 3646 000e FFF7FEFF 		bl	block_is_free
 3647              	.LVL370:
 3648              		.loc 1 1167 9 is_stmt 0 view .LVU1083
 3649 0012 00B1     		cbz	r0, .L249
 3650              	.L250:
 3651              		.loc 1 1167 9 is_stmt 1 discriminator 1 view .LVU1084
 3652              		.loc 1 1167 9 discriminator 1 view .LVU1085
 3653              		.loc 1 1167 9 discriminator 1 view .LVU1086
 3654              		.loc 1 1167 9 discriminator 1 view .LVU1087
 3655              		.loc 1 1167 9 discriminator 1 view .LVU1088
 3656 0014 FEE7     		b	.L250
 3657              	.L249:
 3658              		.loc 1 1167 9 discriminator 2 view .LVU1089
1168:Drivers/lvgl/src/misc/lv_tlsf.c ****         size = block->size;
 3659              		.loc 1 1168 9 discriminator 2 view .LVU1090
 3660              		.loc 1 1168 14 is_stmt 0 discriminator 2 view .LVU1091
 3661 0016 6668     		ldr	r6, [r4, #4]
 3662              	.LVL371:
1169:Drivers/lvgl/src/misc/lv_tlsf.c ****         block_mark_as_free(block);
 3663              		.loc 1 1169 9 is_stmt 1 discriminator 2 view .LVU1092
 3664 0018 2046     		mov	r0, r4
 3665 001a FFF7FEFF 		bl	block_mark_as_free
 3666              	.LVL372:
1170:Drivers/lvgl/src/misc/lv_tlsf.c ****         block = block_merge_prev(control, block);
 3667              		.loc 1 1170 9 discriminator 2 view .LVU1093
 3668              		.loc 1 1170 17 is_stmt 0 discriminator 2 view .LVU1094
 3669 001e 2146     		mov	r1, r4
 3670 0020 2846     		mov	r0, r5
 3671 0022 FFF7FEFF 		bl	block_merge_prev
 3672              	.LVL373:
 3673 0026 0146     		mov	r1, r0
 3674              	.LVL374:
1171:Drivers/lvgl/src/misc/lv_tlsf.c ****         block = block_merge_next(control, block);
 3675              		.loc 1 1171 9 is_stmt 1 discriminator 2 view .LVU1095
 3676              		.loc 1 1171 17 is_stmt 0 discriminator 2 view .LVU1096
 3677 0028 2846     		mov	r0, r5
 3678              	.LVL375:
 3679              		.loc 1 1171 17 discriminator 2 view .LVU1097
 3680 002a FFF7FEFF 		bl	block_merge_next
 3681              	.LVL376:
 3682              		.loc 1 1171 17 discriminator 2 view .LVU1098
 3683 002e 0146     		mov	r1, r0
 3684              	.LVL377:
1172:Drivers/lvgl/src/misc/lv_tlsf.c ****         block_insert(control, block);
 3685              		.loc 1 1172 9 is_stmt 1 discriminator 2 view .LVU1099
 3686 0030 2846     		mov	r0, r5
ARM GAS  /var/folders/0z/tsy30v1j4xl4_7kw94k978ww0000gn/T//ccByTTYT.s 			page 93


 3687              	.LVL378:
 3688              		.loc 1 1172 9 is_stmt 0 discriminator 2 view .LVU1100
 3689 0032 FFF7FEFF 		bl	block_insert
 3690              	.LVL379:
 3691              		.loc 1 1172 9 discriminator 2 view .LVU1101
 3692 0036 00E0     		b	.L247
 3693              	.LVL380:
 3694              	.L251:
 3695              		.loc 1 1172 9 discriminator 2 view .LVU1102
 3696              	.LBE15:
1162:Drivers/lvgl/src/misc/lv_tlsf.c ****     /* Don't attempt to free a NULL pointer. */
 3697              		.loc 1 1162 12 view .LVU1103
 3698 0038 0026     		movs	r6, #0
1173:Drivers/lvgl/src/misc/lv_tlsf.c ****     }
1174:Drivers/lvgl/src/misc/lv_tlsf.c **** 
1175:Drivers/lvgl/src/misc/lv_tlsf.c ****     return size;
 3699              		.loc 1 1175 5 is_stmt 1 view .LVU1104
 3700              	.LVL381:
 3701              	.L247:
1176:Drivers/lvgl/src/misc/lv_tlsf.c **** }
 3702              		.loc 1 1176 1 is_stmt 0 view .LVU1105
 3703 003a 3046     		mov	r0, r6
 3704 003c 70BD     		pop	{r4, r5, r6, pc}
 3705              		.cfi_endproc
 3706              	.LFE62:
 3708              		.section	.text.lv_tlsf_realloc,"ax",%progbits
 3709              		.align	1
 3710              		.global	lv_tlsf_realloc
 3711              		.syntax unified
 3712              		.thumb
 3713              		.thumb_func
 3715              	lv_tlsf_realloc:
 3716              	.LVL382:
 3717              	.LFB63:
1177:Drivers/lvgl/src/misc/lv_tlsf.c **** 
1178:Drivers/lvgl/src/misc/lv_tlsf.c **** /*
1179:Drivers/lvgl/src/misc/lv_tlsf.c **** ** The TLSF block information provides us with enough information to
1180:Drivers/lvgl/src/misc/lv_tlsf.c **** ** provide a reasonably intelligent implementation of realloc, growing or
1181:Drivers/lvgl/src/misc/lv_tlsf.c **** ** shrinking the currently allocated block as required.
1182:Drivers/lvgl/src/misc/lv_tlsf.c **** **
1183:Drivers/lvgl/src/misc/lv_tlsf.c **** ** This routine handles the somewhat esoteric edge cases of realloc:
1184:Drivers/lvgl/src/misc/lv_tlsf.c **** ** - a non-zero size with a null pointer will behave like malloc
1185:Drivers/lvgl/src/misc/lv_tlsf.c **** ** - a zero size with a non-null pointer will behave like free
1186:Drivers/lvgl/src/misc/lv_tlsf.c **** ** - a request that cannot be satisfied will leave the original buffer
1187:Drivers/lvgl/src/misc/lv_tlsf.c **** **   untouched
1188:Drivers/lvgl/src/misc/lv_tlsf.c **** ** - an extended buffer size will leave the newly-allocated area with
1189:Drivers/lvgl/src/misc/lv_tlsf.c **** **   contents undefined
1190:Drivers/lvgl/src/misc/lv_tlsf.c **** */
1191:Drivers/lvgl/src/misc/lv_tlsf.c **** void * lv_tlsf_realloc(lv_tlsf_t tlsf, void * ptr, size_t size)
1192:Drivers/lvgl/src/misc/lv_tlsf.c **** {
 3718              		.loc 1 1192 1 is_stmt 1 view -0
 3719              		.cfi_startproc
 3720              		@ args = 0, pretend = 0, frame = 0
 3721              		@ frame_needed = 0, uses_anonymous_args = 0
 3722              		.loc 1 1192 1 is_stmt 0 view .LVU1107
 3723 0000 2DE9F84F 		push	{r3, r4, r5, r6, r7, r8, r9, r10, fp, lr}
 3724              		.cfi_def_cfa_offset 40
ARM GAS  /var/folders/0z/tsy30v1j4xl4_7kw94k978ww0000gn/T//ccByTTYT.s 			page 94


 3725              		.cfi_offset 3, -40
 3726              		.cfi_offset 4, -36
 3727              		.cfi_offset 5, -32
 3728              		.cfi_offset 6, -28
 3729              		.cfi_offset 7, -24
 3730              		.cfi_offset 8, -20
 3731              		.cfi_offset 9, -16
 3732              		.cfi_offset 10, -12
 3733              		.cfi_offset 11, -8
 3734              		.cfi_offset 14, -4
 3735 0004 0546     		mov	r5, r0
 3736 0006 1446     		mov	r4, r2
1193:Drivers/lvgl/src/misc/lv_tlsf.c ****     control_t * control = tlsf_cast(control_t *, tlsf);
 3737              		.loc 1 1193 5 is_stmt 1 view .LVU1108
 3738              	.LVL383:
1194:Drivers/lvgl/src/misc/lv_tlsf.c ****     void * p = 0;
 3739              		.loc 1 1194 5 view .LVU1109
1195:Drivers/lvgl/src/misc/lv_tlsf.c **** 
1196:Drivers/lvgl/src/misc/lv_tlsf.c ****     /* Zero-size requests are treated as free. */
1197:Drivers/lvgl/src/misc/lv_tlsf.c ****     if(ptr && size == 0) {
 3740              		.loc 1 1197 5 view .LVU1110
 3741              		.loc 1 1197 7 is_stmt 0 view .LVU1111
 3742 0008 8946     		mov	r9, r1
 3743 000a 01B1     		cbz	r1, .L254
 3744              		.loc 1 1197 12 discriminator 1 view .LVU1112
 3745 000c 02B3     		cbz	r2, .L265
 3746              	.L254:
1198:Drivers/lvgl/src/misc/lv_tlsf.c ****         lv_tlsf_free(tlsf, ptr);
1199:Drivers/lvgl/src/misc/lv_tlsf.c ****     }
1200:Drivers/lvgl/src/misc/lv_tlsf.c ****     /* Requests with NULL pointers are treated as malloc. */
1201:Drivers/lvgl/src/misc/lv_tlsf.c ****     else if(!ptr) {
 3747              		.loc 1 1201 10 is_stmt 1 view .LVU1113
 3748              		.loc 1 1201 12 is_stmt 0 view .LVU1114
 3749 000e B9F1000F 		cmp	r9, #0
 3750 0012 21D0     		beq	.L266
 3751              	.LBB16:
1202:Drivers/lvgl/src/misc/lv_tlsf.c ****         p = lv_tlsf_malloc(tlsf, size);
1203:Drivers/lvgl/src/misc/lv_tlsf.c ****     }
1204:Drivers/lvgl/src/misc/lv_tlsf.c ****     else {
1205:Drivers/lvgl/src/misc/lv_tlsf.c ****         block_header_t * block = block_from_ptr(ptr);
 3752              		.loc 1 1205 9 is_stmt 1 view .LVU1115
 3753              		.loc 1 1205 34 is_stmt 0 view .LVU1116
 3754 0014 4846     		mov	r0, r9
 3755              	.LVL384:
 3756              		.loc 1 1205 34 view .LVU1117
 3757 0016 FFF7FEFF 		bl	block_from_ptr
 3758              	.LVL385:
 3759              		.loc 1 1205 34 view .LVU1118
 3760 001a 0746     		mov	r7, r0
 3761              	.LVL386:
1206:Drivers/lvgl/src/misc/lv_tlsf.c ****         block_header_t * next = block_next(block);
 3762              		.loc 1 1206 9 is_stmt 1 view .LVU1119
 3763              		.loc 1 1206 33 is_stmt 0 view .LVU1120
 3764 001c FFF7FEFF 		bl	block_next
 3765              	.LVL387:
 3766              		.loc 1 1206 33 view .LVU1121
 3767 0020 8246     		mov	r10, r0
ARM GAS  /var/folders/0z/tsy30v1j4xl4_7kw94k978ww0000gn/T//ccByTTYT.s 			page 95


 3768              	.LVL388:
1207:Drivers/lvgl/src/misc/lv_tlsf.c **** 
1208:Drivers/lvgl/src/misc/lv_tlsf.c ****         const size_t cursize = block_size(block);
 3769              		.loc 1 1208 9 is_stmt 1 view .LVU1122
 3770              		.loc 1 1208 32 is_stmt 0 view .LVU1123
 3771 0022 3846     		mov	r0, r7
 3772              	.LVL389:
 3773              		.loc 1 1208 32 view .LVU1124
 3774 0024 FFF7FEFF 		bl	block_size
 3775              	.LVL390:
 3776 0028 0646     		mov	r6, r0
 3777              	.LVL391:
1209:Drivers/lvgl/src/misc/lv_tlsf.c ****         const size_t combined = cursize + block_size(next) + block_header_overhead;
 3778              		.loc 1 1209 9 is_stmt 1 view .LVU1125
 3779              		.loc 1 1209 43 is_stmt 0 view .LVU1126
 3780 002a 5046     		mov	r0, r10
 3781              	.LVL392:
 3782              		.loc 1 1209 43 view .LVU1127
 3783 002c FFF7FEFF 		bl	block_size
 3784              	.LVL393:
 3785              		.loc 1 1209 41 view .LVU1128
 3786 0030 8319     		adds	r3, r0, r6
 3787              		.loc 1 1209 22 view .LVU1129
 3788 0032 03F1040B 		add	fp, r3, #4
 3789              	.LVL394:
1210:Drivers/lvgl/src/misc/lv_tlsf.c ****         const size_t adjust = adjust_request_size(size, ALIGN_SIZE);
 3790              		.loc 1 1210 9 is_stmt 1 view .LVU1130
 3791              		.loc 1 1210 31 is_stmt 0 view .LVU1131
 3792 0036 0421     		movs	r1, #4
 3793 0038 2046     		mov	r0, r4
 3794 003a FFF7FEFF 		bl	adjust_request_size
 3795              	.LVL395:
 3796 003e 8046     		mov	r8, r0
 3797              	.LVL396:
1211:Drivers/lvgl/src/misc/lv_tlsf.c ****         if(size > cursize && adjust == 0) {
 3798              		.loc 1 1211 9 is_stmt 1 view .LVU1132
 3799              		.loc 1 1211 11 is_stmt 0 view .LVU1133
 3800 0040 B442     		cmp	r4, r6
 3801 0042 00D9     		bls	.L257
 3802              		.loc 1 1211 27 discriminator 1 view .LVU1134
 3803 0044 E0B3     		cbz	r0, .L263
 3804              	.L257:
1212:Drivers/lvgl/src/misc/lv_tlsf.c ****             /* The request is probably too large, fail */
1213:Drivers/lvgl/src/misc/lv_tlsf.c ****             return NULL;
1214:Drivers/lvgl/src/misc/lv_tlsf.c ****         }
1215:Drivers/lvgl/src/misc/lv_tlsf.c **** 
1216:Drivers/lvgl/src/misc/lv_tlsf.c ****         tlsf_assert(!block_is_free(block) && "block already marked as free");
 3805              		.loc 1 1216 9 is_stmt 1 view .LVU1135
 3806              		.loc 1 1216 9 view .LVU1136
 3807 0046 3846     		mov	r0, r7
 3808              	.LVL397:
 3809              		.loc 1 1216 9 is_stmt 0 view .LVU1137
 3810 0048 FFF7FEFF 		bl	block_is_free
 3811              	.LVL398:
 3812 004c 60B1     		cbz	r0, .L258
 3813              	.L259:
 3814              		.loc 1 1216 9 is_stmt 1 discriminator 1 view .LVU1138
ARM GAS  /var/folders/0z/tsy30v1j4xl4_7kw94k978ww0000gn/T//ccByTTYT.s 			page 96


 3815              		.loc 1 1216 9 discriminator 1 view .LVU1139
 3816              		.loc 1 1216 9 discriminator 1 view .LVU1140
 3817              		.loc 1 1216 9 discriminator 1 view .LVU1141
 3818              		.loc 1 1216 9 discriminator 1 view .LVU1142
 3819 004e FEE7     		b	.L259
 3820              	.LVL399:
 3821              	.L265:
 3822              		.loc 1 1216 9 is_stmt 0 discriminator 1 view .LVU1143
 3823              	.LBE16:
1198:Drivers/lvgl/src/misc/lv_tlsf.c ****     }
 3824              		.loc 1 1198 9 is_stmt 1 view .LVU1144
 3825 0050 FFF7FEFF 		bl	lv_tlsf_free
 3826              	.LVL400:
1194:Drivers/lvgl/src/misc/lv_tlsf.c **** 
 3827              		.loc 1 1194 12 is_stmt 0 view .LVU1145
 3828 0054 0027     		movs	r7, #0
1198:Drivers/lvgl/src/misc/lv_tlsf.c ****     }
 3829              		.loc 1 1198 9 view .LVU1146
 3830 0056 04E0     		b	.L253
 3831              	.LVL401:
 3832              	.L266:
1202:Drivers/lvgl/src/misc/lv_tlsf.c ****     }
 3833              		.loc 1 1202 9 is_stmt 1 view .LVU1147
1202:Drivers/lvgl/src/misc/lv_tlsf.c ****     }
 3834              		.loc 1 1202 13 is_stmt 0 view .LVU1148
 3835 0058 2146     		mov	r1, r4
 3836              	.LVL402:
1202:Drivers/lvgl/src/misc/lv_tlsf.c ****     }
 3837              		.loc 1 1202 13 view .LVU1149
 3838 005a 2846     		mov	r0, r5
 3839              	.LVL403:
1202:Drivers/lvgl/src/misc/lv_tlsf.c ****     }
 3840              		.loc 1 1202 13 view .LVU1150
 3841 005c FFF7FEFF 		bl	lv_tlsf_malloc
 3842              	.LVL404:
1202:Drivers/lvgl/src/misc/lv_tlsf.c ****     }
 3843              		.loc 1 1202 13 view .LVU1151
 3844 0060 0746     		mov	r7, r0
 3845              	.LVL405:
 3846              	.L253:
1217:Drivers/lvgl/src/misc/lv_tlsf.c **** 
1218:Drivers/lvgl/src/misc/lv_tlsf.c ****         /*
1219:Drivers/lvgl/src/misc/lv_tlsf.c ****         ** If the next block is used, or when combined with the current
1220:Drivers/lvgl/src/misc/lv_tlsf.c ****         ** block, does not offer enough space, we must reallocate and copy.
1221:Drivers/lvgl/src/misc/lv_tlsf.c ****         */
1222:Drivers/lvgl/src/misc/lv_tlsf.c ****         if(adjust > cursize && (!block_is_free(next) || adjust > combined)) {
1223:Drivers/lvgl/src/misc/lv_tlsf.c ****             p = lv_tlsf_malloc(tlsf, size);
1224:Drivers/lvgl/src/misc/lv_tlsf.c ****             if(p) {
1225:Drivers/lvgl/src/misc/lv_tlsf.c ****                 const size_t minsize = tlsf_min(cursize, size);
1226:Drivers/lvgl/src/misc/lv_tlsf.c ****                 lv_memcpy(p, ptr, minsize);
1227:Drivers/lvgl/src/misc/lv_tlsf.c ****                 lv_tlsf_free(tlsf, ptr);
1228:Drivers/lvgl/src/misc/lv_tlsf.c ****             }
1229:Drivers/lvgl/src/misc/lv_tlsf.c ****         }
1230:Drivers/lvgl/src/misc/lv_tlsf.c ****         else {
1231:Drivers/lvgl/src/misc/lv_tlsf.c ****             /* Do we need to expand to the next block? */
1232:Drivers/lvgl/src/misc/lv_tlsf.c ****             if(adjust > cursize) {
1233:Drivers/lvgl/src/misc/lv_tlsf.c ****                 block_merge_next(control, block);
ARM GAS  /var/folders/0z/tsy30v1j4xl4_7kw94k978ww0000gn/T//ccByTTYT.s 			page 97


1234:Drivers/lvgl/src/misc/lv_tlsf.c ****                 block_mark_as_used(block);
1235:Drivers/lvgl/src/misc/lv_tlsf.c ****             }
1236:Drivers/lvgl/src/misc/lv_tlsf.c **** 
1237:Drivers/lvgl/src/misc/lv_tlsf.c ****             /* Trim the resulting block and return the original pointer. */
1238:Drivers/lvgl/src/misc/lv_tlsf.c ****             block_trim_used(control, block, adjust);
1239:Drivers/lvgl/src/misc/lv_tlsf.c ****             p = ptr;
1240:Drivers/lvgl/src/misc/lv_tlsf.c ****         }
1241:Drivers/lvgl/src/misc/lv_tlsf.c ****     }
1242:Drivers/lvgl/src/misc/lv_tlsf.c **** 
1243:Drivers/lvgl/src/misc/lv_tlsf.c ****     return p;
1244:Drivers/lvgl/src/misc/lv_tlsf.c **** }
 3847              		.loc 1 1244 1 view .LVU1152
 3848 0062 3846     		mov	r0, r7
 3849 0064 BDE8F88F 		pop	{r3, r4, r5, r6, r7, r8, r9, r10, fp, pc}
 3850              	.LVL406:
 3851              	.L258:
 3852              	.LBB18:
1216:Drivers/lvgl/src/misc/lv_tlsf.c **** 
 3853              		.loc 1 1216 9 is_stmt 1 discriminator 2 view .LVU1153
1222:Drivers/lvgl/src/misc/lv_tlsf.c ****             p = lv_tlsf_malloc(tlsf, size);
 3854              		.loc 1 1222 9 discriminator 2 view .LVU1154
1222:Drivers/lvgl/src/misc/lv_tlsf.c ****             p = lv_tlsf_malloc(tlsf, size);
 3855              		.loc 1 1222 11 is_stmt 0 discriminator 2 view .LVU1155
 3856 0068 4645     		cmp	r6, r8
 3857 006a 18D2     		bcs	.L260
1222:Drivers/lvgl/src/misc/lv_tlsf.c ****             p = lv_tlsf_malloc(tlsf, size);
 3858              		.loc 1 1222 34 discriminator 1 view .LVU1156
 3859 006c 5046     		mov	r0, r10
 3860 006e FFF7FEFF 		bl	block_is_free
 3861              	.LVL407:
1222:Drivers/lvgl/src/misc/lv_tlsf.c ****             p = lv_tlsf_malloc(tlsf, size);
 3862              		.loc 1 1222 29 discriminator 1 view .LVU1157
 3863 0072 08B1     		cbz	r0, .L261
1222:Drivers/lvgl/src/misc/lv_tlsf.c ****             p = lv_tlsf_malloc(tlsf, size);
 3864              		.loc 1 1222 54 discriminator 2 view .LVU1158
 3865 0074 C345     		cmp	fp, r8
 3866 0076 12D2     		bcs	.L260
 3867              	.L261:
1223:Drivers/lvgl/src/misc/lv_tlsf.c ****             if(p) {
 3868              		.loc 1 1223 13 is_stmt 1 view .LVU1159
1223:Drivers/lvgl/src/misc/lv_tlsf.c ****             if(p) {
 3869              		.loc 1 1223 17 is_stmt 0 view .LVU1160
 3870 0078 2146     		mov	r1, r4
 3871 007a 2846     		mov	r0, r5
 3872 007c FFF7FEFF 		bl	lv_tlsf_malloc
 3873              	.LVL408:
1224:Drivers/lvgl/src/misc/lv_tlsf.c ****                 const size_t minsize = tlsf_min(cursize, size);
 3874              		.loc 1 1224 13 is_stmt 1 view .LVU1161
1224:Drivers/lvgl/src/misc/lv_tlsf.c ****                 const size_t minsize = tlsf_min(cursize, size);
 3875              		.loc 1 1224 15 is_stmt 0 view .LVU1162
 3876 0080 0746     		mov	r7, r0
 3877              	.LVL409:
1224:Drivers/lvgl/src/misc/lv_tlsf.c ****                 const size_t minsize = tlsf_min(cursize, size);
 3878              		.loc 1 1224 15 view .LVU1163
 3879 0082 0028     		cmp	r0, #0
 3880 0084 EDD0     		beq	.L253
 3881              	.LBB17:
ARM GAS  /var/folders/0z/tsy30v1j4xl4_7kw94k978ww0000gn/T//ccByTTYT.s 			page 98


1225:Drivers/lvgl/src/misc/lv_tlsf.c ****                 lv_memcpy(p, ptr, minsize);
 3882              		.loc 1 1225 17 is_stmt 1 view .LVU1164
 3883              	.LVL410:
1226:Drivers/lvgl/src/misc/lv_tlsf.c ****                 lv_tlsf_free(tlsf, ptr);
 3884              		.loc 1 1226 17 view .LVU1165
 3885 0086 2246     		mov	r2, r4
 3886 0088 B442     		cmp	r4, r6
 3887 008a 28BF     		it	cs
 3888 008c 3246     		movcs	r2, r6
 3889 008e 4946     		mov	r1, r9
 3890 0090 FFF7FEFF 		bl	lv_memcpy
 3891              	.LVL411:
1227:Drivers/lvgl/src/misc/lv_tlsf.c ****             }
 3892              		.loc 1 1227 17 view .LVU1166
 3893 0094 4946     		mov	r1, r9
 3894 0096 2846     		mov	r0, r5
 3895 0098 FFF7FEFF 		bl	lv_tlsf_free
 3896              	.LVL412:
 3897 009c E1E7     		b	.L253
 3898              	.LVL413:
 3899              	.L260:
1227:Drivers/lvgl/src/misc/lv_tlsf.c ****             }
 3900              		.loc 1 1227 17 is_stmt 0 view .LVU1167
 3901              	.LBE17:
1232:Drivers/lvgl/src/misc/lv_tlsf.c ****                 block_merge_next(control, block);
 3902              		.loc 1 1232 13 is_stmt 1 view .LVU1168
1232:Drivers/lvgl/src/misc/lv_tlsf.c ****                 block_merge_next(control, block);
 3903              		.loc 1 1232 15 is_stmt 0 view .LVU1169
 3904 009e 4645     		cmp	r6, r8
 3905 00a0 06D3     		bcc	.L267
 3906              	.L262:
1238:Drivers/lvgl/src/misc/lv_tlsf.c ****             p = ptr;
 3907              		.loc 1 1238 13 is_stmt 1 view .LVU1170
 3908 00a2 4246     		mov	r2, r8
 3909 00a4 3946     		mov	r1, r7
 3910 00a6 2846     		mov	r0, r5
 3911 00a8 FFF7FEFF 		bl	block_trim_used
 3912              	.LVL414:
1239:Drivers/lvgl/src/misc/lv_tlsf.c ****         }
 3913              		.loc 1 1239 13 view .LVU1171
1239:Drivers/lvgl/src/misc/lv_tlsf.c ****         }
 3914              		.loc 1 1239 15 is_stmt 0 view .LVU1172
 3915 00ac 4F46     		mov	r7, r9
 3916              	.LVL415:
1239:Drivers/lvgl/src/misc/lv_tlsf.c ****         }
 3917              		.loc 1 1239 15 view .LVU1173
 3918 00ae D8E7     		b	.L253
 3919              	.LVL416:
 3920              	.L267:
1233:Drivers/lvgl/src/misc/lv_tlsf.c ****                 block_mark_as_used(block);
 3921              		.loc 1 1233 17 is_stmt 1 view .LVU1174
 3922 00b0 3946     		mov	r1, r7
 3923 00b2 2846     		mov	r0, r5
 3924 00b4 FFF7FEFF 		bl	block_merge_next
 3925              	.LVL417:
1234:Drivers/lvgl/src/misc/lv_tlsf.c ****             }
 3926              		.loc 1 1234 17 view .LVU1175
ARM GAS  /var/folders/0z/tsy30v1j4xl4_7kw94k978ww0000gn/T//ccByTTYT.s 			page 99


 3927 00b8 3846     		mov	r0, r7
 3928 00ba FFF7FEFF 		bl	block_mark_as_used
 3929              	.LVL418:
 3930 00be F0E7     		b	.L262
 3931              	.LVL419:
 3932              	.L263:
1213:Drivers/lvgl/src/misc/lv_tlsf.c ****         }
 3933              		.loc 1 1213 20 is_stmt 0 view .LVU1176
 3934 00c0 0027     		movs	r7, #0
 3935              	.LVL420:
1213:Drivers/lvgl/src/misc/lv_tlsf.c ****         }
 3936              		.loc 1 1213 20 view .LVU1177
 3937 00c2 CEE7     		b	.L253
 3938              	.LBE18:
 3939              		.cfi_endproc
 3940              	.LFE63:
 3942              		.text
 3943              	.Letext0:
 3944              		.file 2 "/Users/johannes/Library/Application Support/Code/User/globalStorage/bmd.stm32-for-vscode/
 3945              		.file 3 "Drivers/lvgl/src/misc/lv_tlsf.h"
 3946              		.file 4 "Drivers/lvgl/src/misc/lv_mem.h"
ARM GAS  /var/folders/0z/tsy30v1j4xl4_7kw94k978ww0000gn/T//ccByTTYT.s 			page 100


DEFINED SYMBOLS
                            *ABS*:0000000000000000 lv_tlsf.c
/var/folders/0z/tsy30v1j4xl4_7kw94k978ww0000gn/T//ccByTTYT.s:20     .text.block_size:0000000000000000 $t
/var/folders/0z/tsy30v1j4xl4_7kw94k978ww0000gn/T//ccByTTYT.s:25     .text.block_size:0000000000000000 block_size
/var/folders/0z/tsy30v1j4xl4_7kw94k978ww0000gn/T//ccByTTYT.s:45     .text.block_set_size:0000000000000000 $t
/var/folders/0z/tsy30v1j4xl4_7kw94k978ww0000gn/T//ccByTTYT.s:50     .text.block_set_size:0000000000000000 block_set_size
/var/folders/0z/tsy30v1j4xl4_7kw94k978ww0000gn/T//ccByTTYT.s:77     .text.block_is_last:0000000000000000 $t
/var/folders/0z/tsy30v1j4xl4_7kw94k978ww0000gn/T//ccByTTYT.s:82     .text.block_is_last:0000000000000000 block_is_last
/var/folders/0z/tsy30v1j4xl4_7kw94k978ww0000gn/T//ccByTTYT.s:106    .text.block_is_free:0000000000000000 $t
/var/folders/0z/tsy30v1j4xl4_7kw94k978ww0000gn/T//ccByTTYT.s:111    .text.block_is_free:0000000000000000 block_is_free
/var/folders/0z/tsy30v1j4xl4_7kw94k978ww0000gn/T//ccByTTYT.s:130    .text.block_set_free:0000000000000000 $t
/var/folders/0z/tsy30v1j4xl4_7kw94k978ww0000gn/T//ccByTTYT.s:135    .text.block_set_free:0000000000000000 block_set_free
/var/folders/0z/tsy30v1j4xl4_7kw94k978ww0000gn/T//ccByTTYT.s:154    .text.block_set_used:0000000000000000 $t
/var/folders/0z/tsy30v1j4xl4_7kw94k978ww0000gn/T//ccByTTYT.s:159    .text.block_set_used:0000000000000000 block_set_used
/var/folders/0z/tsy30v1j4xl4_7kw94k978ww0000gn/T//ccByTTYT.s:178    .text.block_is_prev_free:0000000000000000 $t
/var/folders/0z/tsy30v1j4xl4_7kw94k978ww0000gn/T//ccByTTYT.s:183    .text.block_is_prev_free:0000000000000000 block_is_prev_free
/var/folders/0z/tsy30v1j4xl4_7kw94k978ww0000gn/T//ccByTTYT.s:202    .text.block_set_prev_free:0000000000000000 $t
/var/folders/0z/tsy30v1j4xl4_7kw94k978ww0000gn/T//ccByTTYT.s:207    .text.block_set_prev_free:0000000000000000 block_set_prev_free
/var/folders/0z/tsy30v1j4xl4_7kw94k978ww0000gn/T//ccByTTYT.s:226    .text.block_set_prev_used:0000000000000000 $t
/var/folders/0z/tsy30v1j4xl4_7kw94k978ww0000gn/T//ccByTTYT.s:231    .text.block_set_prev_used:0000000000000000 block_set_prev_used
/var/folders/0z/tsy30v1j4xl4_7kw94k978ww0000gn/T//ccByTTYT.s:250    .text.block_from_ptr:0000000000000000 $t
/var/folders/0z/tsy30v1j4xl4_7kw94k978ww0000gn/T//ccByTTYT.s:255    .text.block_from_ptr:0000000000000000 block_from_ptr
/var/folders/0z/tsy30v1j4xl4_7kw94k978ww0000gn/T//ccByTTYT.s:273    .text.block_to_ptr:0000000000000000 $t
/var/folders/0z/tsy30v1j4xl4_7kw94k978ww0000gn/T//ccByTTYT.s:278    .text.block_to_ptr:0000000000000000 block_to_ptr
/var/folders/0z/tsy30v1j4xl4_7kw94k978ww0000gn/T//ccByTTYT.s:296    .text.offset_to_block:0000000000000000 $t
/var/folders/0z/tsy30v1j4xl4_7kw94k978ww0000gn/T//ccByTTYT.s:301    .text.offset_to_block:0000000000000000 offset_to_block
/var/folders/0z/tsy30v1j4xl4_7kw94k978ww0000gn/T//ccByTTYT.s:319    .text.block_prev:0000000000000000 $t
/var/folders/0z/tsy30v1j4xl4_7kw94k978ww0000gn/T//ccByTTYT.s:324    .text.block_prev:0000000000000000 block_prev
/var/folders/0z/tsy30v1j4xl4_7kw94k978ww0000gn/T//ccByTTYT.s:361    .text.block_next:0000000000000000 $t
/var/folders/0z/tsy30v1j4xl4_7kw94k978ww0000gn/T//ccByTTYT.s:366    .text.block_next:0000000000000000 block_next
/var/folders/0z/tsy30v1j4xl4_7kw94k978ww0000gn/T//ccByTTYT.s:422    .text.block_link_next:0000000000000000 $t
/var/folders/0z/tsy30v1j4xl4_7kw94k978ww0000gn/T//ccByTTYT.s:427    .text.block_link_next:0000000000000000 block_link_next
/var/folders/0z/tsy30v1j4xl4_7kw94k978ww0000gn/T//ccByTTYT.s:455    .text.block_mark_as_free:0000000000000000 $t
/var/folders/0z/tsy30v1j4xl4_7kw94k978ww0000gn/T//ccByTTYT.s:460    .text.block_mark_as_free:0000000000000000 block_mark_as_free
/var/folders/0z/tsy30v1j4xl4_7kw94k978ww0000gn/T//ccByTTYT.s:491    .text.block_mark_as_used:0000000000000000 $t
/var/folders/0z/tsy30v1j4xl4_7kw94k978ww0000gn/T//ccByTTYT.s:496    .text.block_mark_as_used:0000000000000000 block_mark_as_used
/var/folders/0z/tsy30v1j4xl4_7kw94k978ww0000gn/T//ccByTTYT.s:527    .text.align_up:0000000000000000 $t
/var/folders/0z/tsy30v1j4xl4_7kw94k978ww0000gn/T//ccByTTYT.s:532    .text.align_up:0000000000000000 align_up
/var/folders/0z/tsy30v1j4xl4_7kw94k978ww0000gn/T//ccByTTYT.s:570    .text.align_down:0000000000000000 $t
/var/folders/0z/tsy30v1j4xl4_7kw94k978ww0000gn/T//ccByTTYT.s:575    .text.align_down:0000000000000000 align_down
/var/folders/0z/tsy30v1j4xl4_7kw94k978ww0000gn/T//ccByTTYT.s:610    .text.align_ptr:0000000000000000 $t
/var/folders/0z/tsy30v1j4xl4_7kw94k978ww0000gn/T//ccByTTYT.s:615    .text.align_ptr:0000000000000000 align_ptr
/var/folders/0z/tsy30v1j4xl4_7kw94k978ww0000gn/T//ccByTTYT.s:655    .text.adjust_request_size:0000000000000000 $t
/var/folders/0z/tsy30v1j4xl4_7kw94k978ww0000gn/T//ccByTTYT.s:660    .text.adjust_request_size:0000000000000000 adjust_request_size
/var/folders/0z/tsy30v1j4xl4_7kw94k978ww0000gn/T//ccByTTYT.s:714    .text.remove_free_block:0000000000000000 $t
/var/folders/0z/tsy30v1j4xl4_7kw94k978ww0000gn/T//ccByTTYT.s:719    .text.remove_free_block:0000000000000000 remove_free_block
/var/folders/0z/tsy30v1j4xl4_7kw94k978ww0000gn/T//ccByTTYT.s:826    .text.insert_free_block:0000000000000000 $t
/var/folders/0z/tsy30v1j4xl4_7kw94k978ww0000gn/T//ccByTTYT.s:831    .text.insert_free_block:0000000000000000 insert_free_block
/var/folders/0z/tsy30v1j4xl4_7kw94k978ww0000gn/T//ccByTTYT.s:948    .text.block_can_split:0000000000000000 $t
/var/folders/0z/tsy30v1j4xl4_7kw94k978ww0000gn/T//ccByTTYT.s:953    .text.block_can_split:0000000000000000 block_can_split
/var/folders/0z/tsy30v1j4xl4_7kw94k978ww0000gn/T//ccByTTYT.s:984    .text.block_split:0000000000000000 $t
/var/folders/0z/tsy30v1j4xl4_7kw94k978ww0000gn/T//ccByTTYT.s:989    .text.block_split:0000000000000000 block_split
/var/folders/0z/tsy30v1j4xl4_7kw94k978ww0000gn/T//ccByTTYT.s:1106   .text.block_absorb:0000000000000000 $t
/var/folders/0z/tsy30v1j4xl4_7kw94k978ww0000gn/T//ccByTTYT.s:1111   .text.block_absorb:0000000000000000 block_absorb
/var/folders/0z/tsy30v1j4xl4_7kw94k978ww0000gn/T//ccByTTYT.s:1166   .text.control_constructor:0000000000000000 $t
/var/folders/0z/tsy30v1j4xl4_7kw94k978ww0000gn/T//ccByTTYT.s:1171   .text.control_constructor:0000000000000000 control_constructor
/var/folders/0z/tsy30v1j4xl4_7kw94k978ww0000gn/T//ccByTTYT.s:1233   .text.integrity_walker:0000000000000000 $t
ARM GAS  /var/folders/0z/tsy30v1j4xl4_7kw94k978ww0000gn/T//ccByTTYT.s 			page 101


/var/folders/0z/tsy30v1j4xl4_7kw94k978ww0000gn/T//ccByTTYT.s:1238   .text.integrity_walker:0000000000000000 integrity_walker
/var/folders/0z/tsy30v1j4xl4_7kw94k978ww0000gn/T//ccByTTYT.s:1332   .text.default_walker:0000000000000000 $t
/var/folders/0z/tsy30v1j4xl4_7kw94k978ww0000gn/T//ccByTTYT.s:1337   .text.default_walker:0000000000000000 default_walker
/var/folders/0z/tsy30v1j4xl4_7kw94k978ww0000gn/T//ccByTTYT.s:1355   .text.tlsf_fls:0000000000000000 $t
/var/folders/0z/tsy30v1j4xl4_7kw94k978ww0000gn/T//ccByTTYT.s:1360   .text.tlsf_fls:0000000000000000 tlsf_fls
/var/folders/0z/tsy30v1j4xl4_7kw94k978ww0000gn/T//ccByTTYT.s:1395   .text.mapping_insert:0000000000000000 $t
/var/folders/0z/tsy30v1j4xl4_7kw94k978ww0000gn/T//ccByTTYT.s:1400   .text.mapping_insert:0000000000000000 mapping_insert
/var/folders/0z/tsy30v1j4xl4_7kw94k978ww0000gn/T//ccByTTYT.s:1474   .text.block_insert:0000000000000000 $t
/var/folders/0z/tsy30v1j4xl4_7kw94k978ww0000gn/T//ccByTTYT.s:1479   .text.block_insert:0000000000000000 block_insert
/var/folders/0z/tsy30v1j4xl4_7kw94k978ww0000gn/T//ccByTTYT.s:1525   .text.block_trim_free:0000000000000000 $t
/var/folders/0z/tsy30v1j4xl4_7kw94k978ww0000gn/T//ccByTTYT.s:1530   .text.block_trim_free:0000000000000000 block_trim_free
/var/folders/0z/tsy30v1j4xl4_7kw94k978ww0000gn/T//ccByTTYT.s:1610   .text.block_prepare_used:0000000000000000 $t
/var/folders/0z/tsy30v1j4xl4_7kw94k978ww0000gn/T//ccByTTYT.s:1615   .text.block_prepare_used:0000000000000000 block_prepare_used
/var/folders/0z/tsy30v1j4xl4_7kw94k978ww0000gn/T//ccByTTYT.s:1672   .text.block_trim_free_leading:0000000000000000 $t
/var/folders/0z/tsy30v1j4xl4_7kw94k978ww0000gn/T//ccByTTYT.s:1677   .text.block_trim_free_leading:0000000000000000 block_trim_free_leading
/var/folders/0z/tsy30v1j4xl4_7kw94k978ww0000gn/T//ccByTTYT.s:1745   .text.block_remove:0000000000000000 $t
/var/folders/0z/tsy30v1j4xl4_7kw94k978ww0000gn/T//ccByTTYT.s:1750   .text.block_remove:0000000000000000 block_remove
/var/folders/0z/tsy30v1j4xl4_7kw94k978ww0000gn/T//ccByTTYT.s:1796   .text.block_merge_prev:0000000000000000 $t
/var/folders/0z/tsy30v1j4xl4_7kw94k978ww0000gn/T//ccByTTYT.s:1801   .text.block_merge_prev:0000000000000000 block_merge_prev
/var/folders/0z/tsy30v1j4xl4_7kw94k978ww0000gn/T//ccByTTYT.s:1888   .text.block_merge_next:0000000000000000 $t
/var/folders/0z/tsy30v1j4xl4_7kw94k978ww0000gn/T//ccByTTYT.s:1893   .text.block_merge_next:0000000000000000 block_merge_next
/var/folders/0z/tsy30v1j4xl4_7kw94k978ww0000gn/T//ccByTTYT.s:1974   .text.block_trim_used:0000000000000000 $t
/var/folders/0z/tsy30v1j4xl4_7kw94k978ww0000gn/T//ccByTTYT.s:1979   .text.block_trim_used:0000000000000000 block_trim_used
/var/folders/0z/tsy30v1j4xl4_7kw94k978ww0000gn/T//ccByTTYT.s:2062   .text.mapping_search:0000000000000000 $t
/var/folders/0z/tsy30v1j4xl4_7kw94k978ww0000gn/T//ccByTTYT.s:2067   .text.mapping_search:0000000000000000 mapping_search
/var/folders/0z/tsy30v1j4xl4_7kw94k978ww0000gn/T//ccByTTYT.s:2121   .text.tlsf_ffs:0000000000000000 $t
/var/folders/0z/tsy30v1j4xl4_7kw94k978ww0000gn/T//ccByTTYT.s:2126   .text.tlsf_ffs:0000000000000000 tlsf_ffs
/var/folders/0z/tsy30v1j4xl4_7kw94k978ww0000gn/T//ccByTTYT.s:2151   .text.search_suitable_block:0000000000000000 $t
/var/folders/0z/tsy30v1j4xl4_7kw94k978ww0000gn/T//ccByTTYT.s:2156   .text.search_suitable_block:0000000000000000 search_suitable_block
/var/folders/0z/tsy30v1j4xl4_7kw94k978ww0000gn/T//ccByTTYT.s:2278   .text.block_locate_free:0000000000000000 $t
/var/folders/0z/tsy30v1j4xl4_7kw94k978ww0000gn/T//ccByTTYT.s:2283   .text.block_locate_free:0000000000000000 block_locate_free
/var/folders/0z/tsy30v1j4xl4_7kw94k978ww0000gn/T//ccByTTYT.s:2389   .text.lv_tlsf_check:0000000000000000 $t
/var/folders/0z/tsy30v1j4xl4_7kw94k978ww0000gn/T//ccByTTYT.s:2395   .text.lv_tlsf_check:0000000000000000 lv_tlsf_check
/var/folders/0z/tsy30v1j4xl4_7kw94k978ww0000gn/T//ccByTTYT.s:2670   .text.lv_tlsf_walk_pool:0000000000000000 $t
/var/folders/0z/tsy30v1j4xl4_7kw94k978ww0000gn/T//ccByTTYT.s:2676   .text.lv_tlsf_walk_pool:0000000000000000 lv_tlsf_walk_pool
/var/folders/0z/tsy30v1j4xl4_7kw94k978ww0000gn/T//ccByTTYT.s:2766   .text.lv_tlsf_walk_pool:0000000000000058 $d
/var/folders/0z/tsy30v1j4xl4_7kw94k978ww0000gn/T//ccByTTYT.s:2771   .text.lv_tlsf_block_size:0000000000000000 $t
/var/folders/0z/tsy30v1j4xl4_7kw94k978ww0000gn/T//ccByTTYT.s:2777   .text.lv_tlsf_block_size:0000000000000000 lv_tlsf_block_size
/var/folders/0z/tsy30v1j4xl4_7kw94k978ww0000gn/T//ccByTTYT.s:2821   .text.lv_tlsf_check_pool:0000000000000000 $t
/var/folders/0z/tsy30v1j4xl4_7kw94k978ww0000gn/T//ccByTTYT.s:2827   .text.lv_tlsf_check_pool:0000000000000000 lv_tlsf_check_pool
/var/folders/0z/tsy30v1j4xl4_7kw94k978ww0000gn/T//ccByTTYT.s:2860   .text.lv_tlsf_check_pool:000000000000001c $d
/var/folders/0z/tsy30v1j4xl4_7kw94k978ww0000gn/T//ccByTTYT.s:2865   .text.lv_tlsf_size:0000000000000000 $t
/var/folders/0z/tsy30v1j4xl4_7kw94k978ww0000gn/T//ccByTTYT.s:2871   .text.lv_tlsf_size:0000000000000000 lv_tlsf_size
/var/folders/0z/tsy30v1j4xl4_7kw94k978ww0000gn/T//ccByTTYT.s:2886   .text.lv_tlsf_align_size:0000000000000000 $t
/var/folders/0z/tsy30v1j4xl4_7kw94k978ww0000gn/T//ccByTTYT.s:2892   .text.lv_tlsf_align_size:0000000000000000 lv_tlsf_align_size
/var/folders/0z/tsy30v1j4xl4_7kw94k978ww0000gn/T//ccByTTYT.s:2907   .text.lv_tlsf_block_size_min:0000000000000000 $t
/var/folders/0z/tsy30v1j4xl4_7kw94k978ww0000gn/T//ccByTTYT.s:2913   .text.lv_tlsf_block_size_min:0000000000000000 lv_tlsf_block_size_min
/var/folders/0z/tsy30v1j4xl4_7kw94k978ww0000gn/T//ccByTTYT.s:2928   .text.lv_tlsf_block_size_max:0000000000000000 $t
/var/folders/0z/tsy30v1j4xl4_7kw94k978ww0000gn/T//ccByTTYT.s:2934   .text.lv_tlsf_block_size_max:0000000000000000 lv_tlsf_block_size_max
/var/folders/0z/tsy30v1j4xl4_7kw94k978ww0000gn/T//ccByTTYT.s:2949   .text.lv_tlsf_pool_overhead:0000000000000000 $t
/var/folders/0z/tsy30v1j4xl4_7kw94k978ww0000gn/T//ccByTTYT.s:2955   .text.lv_tlsf_pool_overhead:0000000000000000 lv_tlsf_pool_overhead
/var/folders/0z/tsy30v1j4xl4_7kw94k978ww0000gn/T//ccByTTYT.s:2970   .text.lv_tlsf_alloc_overhead:0000000000000000 $t
/var/folders/0z/tsy30v1j4xl4_7kw94k978ww0000gn/T//ccByTTYT.s:2976   .text.lv_tlsf_alloc_overhead:0000000000000000 lv_tlsf_alloc_overhead
/var/folders/0z/tsy30v1j4xl4_7kw94k978ww0000gn/T//ccByTTYT.s:2991   .text.lv_tlsf_add_pool:0000000000000000 $t
/var/folders/0z/tsy30v1j4xl4_7kw94k978ww0000gn/T//ccByTTYT.s:2997   .text.lv_tlsf_add_pool:0000000000000000 lv_tlsf_add_pool
/var/folders/0z/tsy30v1j4xl4_7kw94k978ww0000gn/T//ccByTTYT.s:3114   .text.lv_tlsf_remove_pool:0000000000000000 $t
/var/folders/0z/tsy30v1j4xl4_7kw94k978ww0000gn/T//ccByTTYT.s:3120   .text.lv_tlsf_remove_pool:0000000000000000 lv_tlsf_remove_pool
ARM GAS  /var/folders/0z/tsy30v1j4xl4_7kw94k978ww0000gn/T//ccByTTYT.s 			page 102


/var/folders/0z/tsy30v1j4xl4_7kw94k978ww0000gn/T//ccByTTYT.s:3229   .text.lv_tlsf_create:0000000000000000 $t
/var/folders/0z/tsy30v1j4xl4_7kw94k978ww0000gn/T//ccByTTYT.s:3235   .text.lv_tlsf_create:0000000000000000 lv_tlsf_create
/var/folders/0z/tsy30v1j4xl4_7kw94k978ww0000gn/T//ccByTTYT.s:3274   .text.lv_tlsf_create_with_pool:0000000000000000 $t
/var/folders/0z/tsy30v1j4xl4_7kw94k978ww0000gn/T//ccByTTYT.s:3280   .text.lv_tlsf_create_with_pool:0000000000000000 lv_tlsf_create_with_pool
/var/folders/0z/tsy30v1j4xl4_7kw94k978ww0000gn/T//ccByTTYT.s:3322   .text.lv_tlsf_destroy:0000000000000000 $t
/var/folders/0z/tsy30v1j4xl4_7kw94k978ww0000gn/T//ccByTTYT.s:3328   .text.lv_tlsf_destroy:0000000000000000 lv_tlsf_destroy
/var/folders/0z/tsy30v1j4xl4_7kw94k978ww0000gn/T//ccByTTYT.s:3343   .text.lv_tlsf_get_pool:0000000000000000 $t
/var/folders/0z/tsy30v1j4xl4_7kw94k978ww0000gn/T//ccByTTYT.s:3349   .text.lv_tlsf_get_pool:0000000000000000 lv_tlsf_get_pool
/var/folders/0z/tsy30v1j4xl4_7kw94k978ww0000gn/T//ccByTTYT.s:3374   .text.lv_tlsf_malloc:0000000000000000 $t
/var/folders/0z/tsy30v1j4xl4_7kw94k978ww0000gn/T//ccByTTYT.s:3380   .text.lv_tlsf_malloc:0000000000000000 lv_tlsf_malloc
/var/folders/0z/tsy30v1j4xl4_7kw94k978ww0000gn/T//ccByTTYT.s:3434   .text.lv_tlsf_memalign:0000000000000000 $t
/var/folders/0z/tsy30v1j4xl4_7kw94k978ww0000gn/T//ccByTTYT.s:3440   .text.lv_tlsf_memalign:0000000000000000 lv_tlsf_memalign
/var/folders/0z/tsy30v1j4xl4_7kw94k978ww0000gn/T//ccByTTYT.s:3607   .text.lv_tlsf_free:0000000000000000 $t
/var/folders/0z/tsy30v1j4xl4_7kw94k978ww0000gn/T//ccByTTYT.s:3613   .text.lv_tlsf_free:0000000000000000 lv_tlsf_free
/var/folders/0z/tsy30v1j4xl4_7kw94k978ww0000gn/T//ccByTTYT.s:3709   .text.lv_tlsf_realloc:0000000000000000 $t
/var/folders/0z/tsy30v1j4xl4_7kw94k978ww0000gn/T//ccByTTYT.s:3715   .text.lv_tlsf_realloc:0000000000000000 lv_tlsf_realloc

UNDEFINED SYMBOLS
lv_memcpy
