ARM GAS  /var/folders/0z/tsy30v1j4xl4_7kw94k978ww0000gn/T//ccHqi1ZK.s 			page 1


   1              		.cpu cortex-m4
   2              		.arch armv7e-m
   3              		.fpu fpv4-sp-d16
   4              		.eabi_attribute 27, 1
   5              		.eabi_attribute 28, 1
   6              		.eabi_attribute 20, 1
   7              		.eabi_attribute 21, 1
   8              		.eabi_attribute 23, 3
   9              		.eabi_attribute 24, 1
  10              		.eabi_attribute 25, 1
  11              		.eabi_attribute 26, 1
  12              		.eabi_attribute 30, 1
  13              		.eabi_attribute 34, 1
  14              		.eabi_attribute 18, 4
  15              		.file	"lv_textarea.c"
  16              		.text
  17              	.Ltext0:
  18              		.cfi_sections	.debug_frame
  19              		.section	.text.pwd_char_hider_anim,"ax",%progbits
  20              		.align	1
  21              		.syntax unified
  22              		.thumb
  23              		.thumb_func
  25              	pwd_char_hider_anim:
  26              	.LVL0:
  27              	.LFB202:
  28              		.file 1 "Drivers/lvgl/src/widgets/lv_textarea.c"
   1:Drivers/lvgl/src/widgets/lv_textarea.c **** /**
   2:Drivers/lvgl/src/widgets/lv_textarea.c ****  * @file lv_ta.c
   3:Drivers/lvgl/src/widgets/lv_textarea.c ****  *
   4:Drivers/lvgl/src/widgets/lv_textarea.c ****  */
   5:Drivers/lvgl/src/widgets/lv_textarea.c **** 
   6:Drivers/lvgl/src/widgets/lv_textarea.c **** /*********************
   7:Drivers/lvgl/src/widgets/lv_textarea.c ****  *      INCLUDES
   8:Drivers/lvgl/src/widgets/lv_textarea.c ****  *********************/
   9:Drivers/lvgl/src/widgets/lv_textarea.c **** #include "lv_textarea.h"
  10:Drivers/lvgl/src/widgets/lv_textarea.c **** #if LV_USE_TEXTAREA != 0
  11:Drivers/lvgl/src/widgets/lv_textarea.c **** 
  12:Drivers/lvgl/src/widgets/lv_textarea.c **** #include <string.h>
  13:Drivers/lvgl/src/widgets/lv_textarea.c **** #include "../misc/lv_assert.h"
  14:Drivers/lvgl/src/widgets/lv_textarea.c **** #include "../core/lv_group.h"
  15:Drivers/lvgl/src/widgets/lv_textarea.c **** #include "../core/lv_refr.h"
  16:Drivers/lvgl/src/widgets/lv_textarea.c **** #include "../core/lv_indev.h"
  17:Drivers/lvgl/src/widgets/lv_textarea.c **** #include "../draw/lv_draw.h"
  18:Drivers/lvgl/src/widgets/lv_textarea.c **** #include "../misc/lv_anim.h"
  19:Drivers/lvgl/src/widgets/lv_textarea.c **** #include "../misc/lv_txt.h"
  20:Drivers/lvgl/src/widgets/lv_textarea.c **** #include "../misc/lv_math.h"
  21:Drivers/lvgl/src/widgets/lv_textarea.c **** 
  22:Drivers/lvgl/src/widgets/lv_textarea.c **** /*********************
  23:Drivers/lvgl/src/widgets/lv_textarea.c ****  *      DEFINES
  24:Drivers/lvgl/src/widgets/lv_textarea.c ****  *********************/
  25:Drivers/lvgl/src/widgets/lv_textarea.c **** #define MY_CLASS &lv_textarea_class
  26:Drivers/lvgl/src/widgets/lv_textarea.c **** 
  27:Drivers/lvgl/src/widgets/lv_textarea.c **** /*Test configuration*/
  28:Drivers/lvgl/src/widgets/lv_textarea.c **** #ifndef LV_TEXTAREA_DEF_CURSOR_BLINK_TIME
  29:Drivers/lvgl/src/widgets/lv_textarea.c ****     #define LV_TEXTAREA_DEF_CURSOR_BLINK_TIME 400 /*ms*/
  30:Drivers/lvgl/src/widgets/lv_textarea.c **** #endif
ARM GAS  /var/folders/0z/tsy30v1j4xl4_7kw94k978ww0000gn/T//ccHqi1ZK.s 			page 2


  31:Drivers/lvgl/src/widgets/lv_textarea.c **** 
  32:Drivers/lvgl/src/widgets/lv_textarea.c **** #ifndef LV_TEXTAREA_DEF_PWD_SHOW_TIME
  33:Drivers/lvgl/src/widgets/lv_textarea.c ****     #define LV_TEXTAREA_DEF_PWD_SHOW_TIME 1500 /*ms*/
  34:Drivers/lvgl/src/widgets/lv_textarea.c **** #endif
  35:Drivers/lvgl/src/widgets/lv_textarea.c **** 
  36:Drivers/lvgl/src/widgets/lv_textarea.c **** #define LV_TEXTAREA_PWD_BULLET_UNICODE      0x2022
  37:Drivers/lvgl/src/widgets/lv_textarea.c **** #define IGNORE_KERNING                      '\0'
  38:Drivers/lvgl/src/widgets/lv_textarea.c **** 
  39:Drivers/lvgl/src/widgets/lv_textarea.c **** /**********************
  40:Drivers/lvgl/src/widgets/lv_textarea.c ****  *      TYPEDEFS
  41:Drivers/lvgl/src/widgets/lv_textarea.c ****  **********************/
  42:Drivers/lvgl/src/widgets/lv_textarea.c **** 
  43:Drivers/lvgl/src/widgets/lv_textarea.c **** /**********************
  44:Drivers/lvgl/src/widgets/lv_textarea.c ****  *  STATIC PROTOTYPES
  45:Drivers/lvgl/src/widgets/lv_textarea.c ****  **********************/
  46:Drivers/lvgl/src/widgets/lv_textarea.c **** static void lv_textarea_constructor(const lv_obj_class_t * class_p, lv_obj_t * obj);
  47:Drivers/lvgl/src/widgets/lv_textarea.c **** static void lv_textarea_destructor(const lv_obj_class_t * class_p, lv_obj_t * obj);
  48:Drivers/lvgl/src/widgets/lv_textarea.c **** static void lv_textarea_event(const lv_obj_class_t * class_p, lv_event_t * e);
  49:Drivers/lvgl/src/widgets/lv_textarea.c **** static void label_event_cb(lv_event_t * e);
  50:Drivers/lvgl/src/widgets/lv_textarea.c **** static void cursor_blink_anim_cb(void * obj, int32_t show);
  51:Drivers/lvgl/src/widgets/lv_textarea.c **** static void pwd_char_hider_anim(void * obj, int32_t x);
  52:Drivers/lvgl/src/widgets/lv_textarea.c **** static void pwd_char_hider_anim_ready(lv_anim_t * a);
  53:Drivers/lvgl/src/widgets/lv_textarea.c **** static void pwd_char_hider(lv_obj_t * obj);
  54:Drivers/lvgl/src/widgets/lv_textarea.c **** static bool char_is_accepted(lv_obj_t * obj, uint32_t c);
  55:Drivers/lvgl/src/widgets/lv_textarea.c **** static void start_cursor_blink(lv_obj_t * obj);
  56:Drivers/lvgl/src/widgets/lv_textarea.c **** static void refr_cursor_area(lv_obj_t * obj);
  57:Drivers/lvgl/src/widgets/lv_textarea.c **** static void update_cursor_position_on_click(lv_event_t * e);
  58:Drivers/lvgl/src/widgets/lv_textarea.c **** static lv_res_t insert_handler(lv_obj_t * obj, const char * txt);
  59:Drivers/lvgl/src/widgets/lv_textarea.c **** static void draw_placeholder(lv_event_t * e);
  60:Drivers/lvgl/src/widgets/lv_textarea.c **** static void draw_cursor(lv_event_t * e);
  61:Drivers/lvgl/src/widgets/lv_textarea.c **** static void auto_hide_characters(lv_obj_t * obj);
  62:Drivers/lvgl/src/widgets/lv_textarea.c **** static inline bool is_valid_but_non_printable_char(const uint32_t letter);
  63:Drivers/lvgl/src/widgets/lv_textarea.c **** 
  64:Drivers/lvgl/src/widgets/lv_textarea.c **** /**********************
  65:Drivers/lvgl/src/widgets/lv_textarea.c ****  *  STATIC VARIABLES
  66:Drivers/lvgl/src/widgets/lv_textarea.c ****  **********************/
  67:Drivers/lvgl/src/widgets/lv_textarea.c **** const lv_obj_class_t lv_textarea_class = {
  68:Drivers/lvgl/src/widgets/lv_textarea.c ****     .constructor_cb = lv_textarea_constructor,
  69:Drivers/lvgl/src/widgets/lv_textarea.c ****     .destructor_cb = lv_textarea_destructor,
  70:Drivers/lvgl/src/widgets/lv_textarea.c ****     .event_cb = lv_textarea_event,
  71:Drivers/lvgl/src/widgets/lv_textarea.c ****     .group_def = LV_OBJ_CLASS_GROUP_DEF_TRUE,
  72:Drivers/lvgl/src/widgets/lv_textarea.c ****     .width_def = LV_DPI_DEF * 2,
  73:Drivers/lvgl/src/widgets/lv_textarea.c ****     .height_def = LV_DPI_DEF,
  74:Drivers/lvgl/src/widgets/lv_textarea.c ****     .instance_size = sizeof(lv_textarea_t),
  75:Drivers/lvgl/src/widgets/lv_textarea.c ****     .base_class = &lv_obj_class
  76:Drivers/lvgl/src/widgets/lv_textarea.c **** };
  77:Drivers/lvgl/src/widgets/lv_textarea.c **** 
  78:Drivers/lvgl/src/widgets/lv_textarea.c **** static const char * ta_insert_replace;
  79:Drivers/lvgl/src/widgets/lv_textarea.c **** 
  80:Drivers/lvgl/src/widgets/lv_textarea.c **** /**********************
  81:Drivers/lvgl/src/widgets/lv_textarea.c ****  *      MACROS
  82:Drivers/lvgl/src/widgets/lv_textarea.c ****  **********************/
  83:Drivers/lvgl/src/widgets/lv_textarea.c **** 
  84:Drivers/lvgl/src/widgets/lv_textarea.c **** /**********************
  85:Drivers/lvgl/src/widgets/lv_textarea.c ****  *   GLOBAL FUNCTIONS
  86:Drivers/lvgl/src/widgets/lv_textarea.c ****  **********************/
  87:Drivers/lvgl/src/widgets/lv_textarea.c **** 
ARM GAS  /var/folders/0z/tsy30v1j4xl4_7kw94k978ww0000gn/T//ccHqi1ZK.s 			page 3


  88:Drivers/lvgl/src/widgets/lv_textarea.c **** lv_obj_t * lv_textarea_create(lv_obj_t * parent)
  89:Drivers/lvgl/src/widgets/lv_textarea.c **** {
  90:Drivers/lvgl/src/widgets/lv_textarea.c ****     LV_LOG_INFO("begin");
  91:Drivers/lvgl/src/widgets/lv_textarea.c ****     lv_obj_t * obj = lv_obj_class_create_obj(MY_CLASS, parent);
  92:Drivers/lvgl/src/widgets/lv_textarea.c ****     lv_obj_class_init_obj(obj);
  93:Drivers/lvgl/src/widgets/lv_textarea.c ****     return obj;
  94:Drivers/lvgl/src/widgets/lv_textarea.c **** }
  95:Drivers/lvgl/src/widgets/lv_textarea.c **** 
  96:Drivers/lvgl/src/widgets/lv_textarea.c **** /*======================
  97:Drivers/lvgl/src/widgets/lv_textarea.c ****  * Add/remove functions
  98:Drivers/lvgl/src/widgets/lv_textarea.c ****  *=====================*/
  99:Drivers/lvgl/src/widgets/lv_textarea.c **** 
 100:Drivers/lvgl/src/widgets/lv_textarea.c **** void lv_textarea_add_char(lv_obj_t * obj, uint32_t c)
 101:Drivers/lvgl/src/widgets/lv_textarea.c **** {
 102:Drivers/lvgl/src/widgets/lv_textarea.c ****     LV_ASSERT_OBJ(obj, MY_CLASS);
 103:Drivers/lvgl/src/widgets/lv_textarea.c **** 
 104:Drivers/lvgl/src/widgets/lv_textarea.c ****     lv_textarea_t * ta = (lv_textarea_t *)obj;
 105:Drivers/lvgl/src/widgets/lv_textarea.c **** 
 106:Drivers/lvgl/src/widgets/lv_textarea.c ****     if(ta->one_line && (c == '\n' || c == '\r')) {
 107:Drivers/lvgl/src/widgets/lv_textarea.c ****         LV_LOG_INFO("Text area: line break ignored in one-line mode");
 108:Drivers/lvgl/src/widgets/lv_textarea.c ****         return;
 109:Drivers/lvgl/src/widgets/lv_textarea.c ****     }
 110:Drivers/lvgl/src/widgets/lv_textarea.c **** 
 111:Drivers/lvgl/src/widgets/lv_textarea.c ****     uint32_t u32_buf[2];
 112:Drivers/lvgl/src/widgets/lv_textarea.c ****     u32_buf[0] = c;
 113:Drivers/lvgl/src/widgets/lv_textarea.c ****     u32_buf[1] = 0;
 114:Drivers/lvgl/src/widgets/lv_textarea.c **** 
 115:Drivers/lvgl/src/widgets/lv_textarea.c ****     const char * letter_buf = (char *)&u32_buf;
 116:Drivers/lvgl/src/widgets/lv_textarea.c **** 
 117:Drivers/lvgl/src/widgets/lv_textarea.c **** #if LV_BIG_ENDIAN_SYSTEM
 118:Drivers/lvgl/src/widgets/lv_textarea.c ****     if(c != 0) while(*letter_buf == 0) ++letter_buf;
 119:Drivers/lvgl/src/widgets/lv_textarea.c **** #endif
 120:Drivers/lvgl/src/widgets/lv_textarea.c **** 
 121:Drivers/lvgl/src/widgets/lv_textarea.c ****     lv_res_t res = insert_handler(obj, letter_buf);
 122:Drivers/lvgl/src/widgets/lv_textarea.c ****     if(res != LV_RES_OK) return;
 123:Drivers/lvgl/src/widgets/lv_textarea.c **** 
 124:Drivers/lvgl/src/widgets/lv_textarea.c ****     uint32_t c_uni = _lv_txt_encoded_next((const char *)&c, NULL);
 125:Drivers/lvgl/src/widgets/lv_textarea.c **** 
 126:Drivers/lvgl/src/widgets/lv_textarea.c ****     if(char_is_accepted(obj, c_uni) == false) {
 127:Drivers/lvgl/src/widgets/lv_textarea.c ****         LV_LOG_INFO("Character is not accepted by the text area (too long text or not in the accept
 128:Drivers/lvgl/src/widgets/lv_textarea.c ****         return;
 129:Drivers/lvgl/src/widgets/lv_textarea.c ****     }
 130:Drivers/lvgl/src/widgets/lv_textarea.c **** 
 131:Drivers/lvgl/src/widgets/lv_textarea.c ****     if(ta->pwd_mode) pwd_char_hider(obj); /*Make sure all the current text contains only '*'*/
 132:Drivers/lvgl/src/widgets/lv_textarea.c **** 
 133:Drivers/lvgl/src/widgets/lv_textarea.c ****     /*If the textarea is empty, invalidate it to hide the placeholder*/
 134:Drivers/lvgl/src/widgets/lv_textarea.c ****     if(ta->placeholder_txt) {
 135:Drivers/lvgl/src/widgets/lv_textarea.c ****         const char * txt = lv_label_get_text(ta->label);
 136:Drivers/lvgl/src/widgets/lv_textarea.c ****         if(txt[0] == '\0') lv_obj_invalidate(obj);
 137:Drivers/lvgl/src/widgets/lv_textarea.c ****     }
 138:Drivers/lvgl/src/widgets/lv_textarea.c **** 
 139:Drivers/lvgl/src/widgets/lv_textarea.c ****     lv_label_ins_text(ta->label, ta->cursor.pos, letter_buf); /*Insert the character*/
 140:Drivers/lvgl/src/widgets/lv_textarea.c ****     lv_textarea_clear_selection(obj); /*Clear selection*/
 141:Drivers/lvgl/src/widgets/lv_textarea.c **** 
 142:Drivers/lvgl/src/widgets/lv_textarea.c ****     if(ta->pwd_mode) {
 143:Drivers/lvgl/src/widgets/lv_textarea.c ****         /*+2: the new char + \0*/
 144:Drivers/lvgl/src/widgets/lv_textarea.c ****         size_t realloc_size = strlen(ta->pwd_tmp) + strlen(letter_buf) + 1;
ARM GAS  /var/folders/0z/tsy30v1j4xl4_7kw94k978ww0000gn/T//ccHqi1ZK.s 			page 4


 145:Drivers/lvgl/src/widgets/lv_textarea.c ****         ta->pwd_tmp = lv_mem_realloc(ta->pwd_tmp, realloc_size);
 146:Drivers/lvgl/src/widgets/lv_textarea.c ****         LV_ASSERT_MALLOC(ta->pwd_tmp);
 147:Drivers/lvgl/src/widgets/lv_textarea.c ****         if(ta->pwd_tmp == NULL) return;
 148:Drivers/lvgl/src/widgets/lv_textarea.c **** 
 149:Drivers/lvgl/src/widgets/lv_textarea.c ****         _lv_txt_ins(ta->pwd_tmp, ta->cursor.pos, (const char *)letter_buf);
 150:Drivers/lvgl/src/widgets/lv_textarea.c **** 
 151:Drivers/lvgl/src/widgets/lv_textarea.c ****         /*Auto hide characters*/
 152:Drivers/lvgl/src/widgets/lv_textarea.c ****         auto_hide_characters(obj);
 153:Drivers/lvgl/src/widgets/lv_textarea.c ****     }
 154:Drivers/lvgl/src/widgets/lv_textarea.c **** 
 155:Drivers/lvgl/src/widgets/lv_textarea.c ****     /*Move the cursor after the new character*/
 156:Drivers/lvgl/src/widgets/lv_textarea.c ****     lv_textarea_set_cursor_pos(obj, lv_textarea_get_cursor_pos(obj) + 1);
 157:Drivers/lvgl/src/widgets/lv_textarea.c **** 
 158:Drivers/lvgl/src/widgets/lv_textarea.c ****     lv_event_send(obj, LV_EVENT_VALUE_CHANGED, NULL);
 159:Drivers/lvgl/src/widgets/lv_textarea.c **** }
 160:Drivers/lvgl/src/widgets/lv_textarea.c **** 
 161:Drivers/lvgl/src/widgets/lv_textarea.c **** void lv_textarea_add_text(lv_obj_t * obj, const char * txt)
 162:Drivers/lvgl/src/widgets/lv_textarea.c **** {
 163:Drivers/lvgl/src/widgets/lv_textarea.c ****     LV_ASSERT_OBJ(obj, MY_CLASS);
 164:Drivers/lvgl/src/widgets/lv_textarea.c ****     LV_ASSERT_NULL(txt);
 165:Drivers/lvgl/src/widgets/lv_textarea.c **** 
 166:Drivers/lvgl/src/widgets/lv_textarea.c ****     lv_textarea_t * ta = (lv_textarea_t *)obj;
 167:Drivers/lvgl/src/widgets/lv_textarea.c **** 
 168:Drivers/lvgl/src/widgets/lv_textarea.c ****     if(ta->pwd_mode) pwd_char_hider(obj); /*Make sure all the current text contains only '*'*/
 169:Drivers/lvgl/src/widgets/lv_textarea.c **** 
 170:Drivers/lvgl/src/widgets/lv_textarea.c ****     /*Add the character one-by-one if not all characters are accepted or there is character limit.*
 171:Drivers/lvgl/src/widgets/lv_textarea.c ****     if(lv_textarea_get_accepted_chars(obj) || lv_textarea_get_max_length(obj)) {
 172:Drivers/lvgl/src/widgets/lv_textarea.c ****         uint32_t i = 0;
 173:Drivers/lvgl/src/widgets/lv_textarea.c ****         while(txt[i] != '\0') {
 174:Drivers/lvgl/src/widgets/lv_textarea.c ****             uint32_t c = _lv_txt_encoded_next(txt, &i);
 175:Drivers/lvgl/src/widgets/lv_textarea.c ****             lv_textarea_add_char(obj, _lv_txt_unicode_to_encoded(c));
 176:Drivers/lvgl/src/widgets/lv_textarea.c ****         }
 177:Drivers/lvgl/src/widgets/lv_textarea.c ****         return;
 178:Drivers/lvgl/src/widgets/lv_textarea.c ****     }
 179:Drivers/lvgl/src/widgets/lv_textarea.c **** 
 180:Drivers/lvgl/src/widgets/lv_textarea.c ****     lv_res_t res = insert_handler(obj, txt);
 181:Drivers/lvgl/src/widgets/lv_textarea.c ****     if(res != LV_RES_OK) return;
 182:Drivers/lvgl/src/widgets/lv_textarea.c **** 
 183:Drivers/lvgl/src/widgets/lv_textarea.c ****     /*If the textarea is empty, invalidate it to hide the placeholder*/
 184:Drivers/lvgl/src/widgets/lv_textarea.c ****     if(ta->placeholder_txt) {
 185:Drivers/lvgl/src/widgets/lv_textarea.c ****         const char * txt_act = lv_label_get_text(ta->label);
 186:Drivers/lvgl/src/widgets/lv_textarea.c ****         if(txt_act[0] == '\0') lv_obj_invalidate(obj);
 187:Drivers/lvgl/src/widgets/lv_textarea.c ****     }
 188:Drivers/lvgl/src/widgets/lv_textarea.c **** 
 189:Drivers/lvgl/src/widgets/lv_textarea.c ****     /*Insert the text*/
 190:Drivers/lvgl/src/widgets/lv_textarea.c ****     lv_label_ins_text(ta->label, ta->cursor.pos, txt);
 191:Drivers/lvgl/src/widgets/lv_textarea.c ****     lv_textarea_clear_selection(obj);
 192:Drivers/lvgl/src/widgets/lv_textarea.c **** 
 193:Drivers/lvgl/src/widgets/lv_textarea.c ****     if(ta->pwd_mode) {
 194:Drivers/lvgl/src/widgets/lv_textarea.c ****         size_t realloc_size = strlen(ta->pwd_tmp) + strlen(txt) + 1;
 195:Drivers/lvgl/src/widgets/lv_textarea.c ****         ta->pwd_tmp = lv_mem_realloc(ta->pwd_tmp, realloc_size);
 196:Drivers/lvgl/src/widgets/lv_textarea.c ****         LV_ASSERT_MALLOC(ta->pwd_tmp);
 197:Drivers/lvgl/src/widgets/lv_textarea.c ****         if(ta->pwd_tmp == NULL) return;
 198:Drivers/lvgl/src/widgets/lv_textarea.c **** 
 199:Drivers/lvgl/src/widgets/lv_textarea.c ****         _lv_txt_ins(ta->pwd_tmp, ta->cursor.pos, txt);
 200:Drivers/lvgl/src/widgets/lv_textarea.c **** 
 201:Drivers/lvgl/src/widgets/lv_textarea.c ****         /*Auto hide characters*/
ARM GAS  /var/folders/0z/tsy30v1j4xl4_7kw94k978ww0000gn/T//ccHqi1ZK.s 			page 5


 202:Drivers/lvgl/src/widgets/lv_textarea.c ****         auto_hide_characters(obj);
 203:Drivers/lvgl/src/widgets/lv_textarea.c ****     }
 204:Drivers/lvgl/src/widgets/lv_textarea.c **** 
 205:Drivers/lvgl/src/widgets/lv_textarea.c ****     /*Move the cursor after the new text*/
 206:Drivers/lvgl/src/widgets/lv_textarea.c ****     lv_textarea_set_cursor_pos(obj, lv_textarea_get_cursor_pos(obj) + _lv_txt_get_encoded_length(tx
 207:Drivers/lvgl/src/widgets/lv_textarea.c **** 
 208:Drivers/lvgl/src/widgets/lv_textarea.c ****     lv_event_send(obj, LV_EVENT_VALUE_CHANGED, NULL);
 209:Drivers/lvgl/src/widgets/lv_textarea.c **** }
 210:Drivers/lvgl/src/widgets/lv_textarea.c **** 
 211:Drivers/lvgl/src/widgets/lv_textarea.c **** void lv_textarea_del_char(lv_obj_t * obj)
 212:Drivers/lvgl/src/widgets/lv_textarea.c **** {
 213:Drivers/lvgl/src/widgets/lv_textarea.c ****     LV_ASSERT_OBJ(obj, MY_CLASS);
 214:Drivers/lvgl/src/widgets/lv_textarea.c **** 
 215:Drivers/lvgl/src/widgets/lv_textarea.c ****     lv_textarea_t * ta = (lv_textarea_t *)obj;
 216:Drivers/lvgl/src/widgets/lv_textarea.c ****     uint32_t cur_pos  = ta->cursor.pos;
 217:Drivers/lvgl/src/widgets/lv_textarea.c **** 
 218:Drivers/lvgl/src/widgets/lv_textarea.c ****     if(cur_pos == 0) return;
 219:Drivers/lvgl/src/widgets/lv_textarea.c **** 
 220:Drivers/lvgl/src/widgets/lv_textarea.c ****     char del_buf[2]   = {LV_KEY_DEL, '\0'};
 221:Drivers/lvgl/src/widgets/lv_textarea.c **** 
 222:Drivers/lvgl/src/widgets/lv_textarea.c ****     lv_res_t res = insert_handler(obj, del_buf);
 223:Drivers/lvgl/src/widgets/lv_textarea.c ****     if(res != LV_RES_OK) return;
 224:Drivers/lvgl/src/widgets/lv_textarea.c **** 
 225:Drivers/lvgl/src/widgets/lv_textarea.c ****     char * label_txt = lv_label_get_text(ta->label);
 226:Drivers/lvgl/src/widgets/lv_textarea.c **** 
 227:Drivers/lvgl/src/widgets/lv_textarea.c ****     /*Delete a character*/
 228:Drivers/lvgl/src/widgets/lv_textarea.c ****     _lv_txt_cut(label_txt, ta->cursor.pos - 1, 1);
 229:Drivers/lvgl/src/widgets/lv_textarea.c **** 
 230:Drivers/lvgl/src/widgets/lv_textarea.c ****     /*Refresh the label*/
 231:Drivers/lvgl/src/widgets/lv_textarea.c ****     lv_label_set_text(ta->label, label_txt);
 232:Drivers/lvgl/src/widgets/lv_textarea.c ****     lv_textarea_clear_selection(obj);
 233:Drivers/lvgl/src/widgets/lv_textarea.c **** 
 234:Drivers/lvgl/src/widgets/lv_textarea.c ****     /*If the textarea became empty, invalidate it to hide the placeholder*/
 235:Drivers/lvgl/src/widgets/lv_textarea.c ****     if(ta->placeholder_txt) {
 236:Drivers/lvgl/src/widgets/lv_textarea.c ****         const char * txt = lv_label_get_text(ta->label);
 237:Drivers/lvgl/src/widgets/lv_textarea.c ****         if(txt[0] == '\0') lv_obj_invalidate(obj);
 238:Drivers/lvgl/src/widgets/lv_textarea.c ****     }
 239:Drivers/lvgl/src/widgets/lv_textarea.c **** 
 240:Drivers/lvgl/src/widgets/lv_textarea.c ****     if(ta->pwd_mode) {
 241:Drivers/lvgl/src/widgets/lv_textarea.c ****         _lv_txt_cut(ta->pwd_tmp, ta->cursor.pos - 1, 1);
 242:Drivers/lvgl/src/widgets/lv_textarea.c **** 
 243:Drivers/lvgl/src/widgets/lv_textarea.c ****         ta->pwd_tmp = lv_mem_realloc(ta->pwd_tmp, strlen(ta->pwd_tmp) + 1);
 244:Drivers/lvgl/src/widgets/lv_textarea.c ****         LV_ASSERT_MALLOC(ta->pwd_tmp);
 245:Drivers/lvgl/src/widgets/lv_textarea.c ****         if(ta->pwd_tmp == NULL) return;
 246:Drivers/lvgl/src/widgets/lv_textarea.c ****     }
 247:Drivers/lvgl/src/widgets/lv_textarea.c **** 
 248:Drivers/lvgl/src/widgets/lv_textarea.c ****     /*Move the cursor to the place of the deleted character*/
 249:Drivers/lvgl/src/widgets/lv_textarea.c ****     lv_textarea_set_cursor_pos(obj, ta->cursor.pos - 1);
 250:Drivers/lvgl/src/widgets/lv_textarea.c **** 
 251:Drivers/lvgl/src/widgets/lv_textarea.c ****     lv_event_send(obj, LV_EVENT_VALUE_CHANGED, NULL);
 252:Drivers/lvgl/src/widgets/lv_textarea.c **** 
 253:Drivers/lvgl/src/widgets/lv_textarea.c **** }
 254:Drivers/lvgl/src/widgets/lv_textarea.c **** 
 255:Drivers/lvgl/src/widgets/lv_textarea.c **** void lv_textarea_del_char_forward(lv_obj_t * obj)
 256:Drivers/lvgl/src/widgets/lv_textarea.c **** {
 257:Drivers/lvgl/src/widgets/lv_textarea.c ****     LV_ASSERT_OBJ(obj, MY_CLASS);
 258:Drivers/lvgl/src/widgets/lv_textarea.c **** 
ARM GAS  /var/folders/0z/tsy30v1j4xl4_7kw94k978ww0000gn/T//ccHqi1ZK.s 			page 6


 259:Drivers/lvgl/src/widgets/lv_textarea.c ****     uint32_t cp = lv_textarea_get_cursor_pos(obj);
 260:Drivers/lvgl/src/widgets/lv_textarea.c ****     lv_textarea_set_cursor_pos(obj, cp + 1);
 261:Drivers/lvgl/src/widgets/lv_textarea.c ****     if(cp != lv_textarea_get_cursor_pos(obj)) lv_textarea_del_char(obj);
 262:Drivers/lvgl/src/widgets/lv_textarea.c **** }
 263:Drivers/lvgl/src/widgets/lv_textarea.c **** 
 264:Drivers/lvgl/src/widgets/lv_textarea.c **** /*=====================
 265:Drivers/lvgl/src/widgets/lv_textarea.c ****  * Setter functions
 266:Drivers/lvgl/src/widgets/lv_textarea.c ****  *====================*/
 267:Drivers/lvgl/src/widgets/lv_textarea.c **** 
 268:Drivers/lvgl/src/widgets/lv_textarea.c **** void lv_textarea_set_text(lv_obj_t * obj, const char * txt)
 269:Drivers/lvgl/src/widgets/lv_textarea.c **** {
 270:Drivers/lvgl/src/widgets/lv_textarea.c ****     LV_ASSERT_OBJ(obj, MY_CLASS);
 271:Drivers/lvgl/src/widgets/lv_textarea.c ****     LV_ASSERT_NULL(txt);
 272:Drivers/lvgl/src/widgets/lv_textarea.c **** 
 273:Drivers/lvgl/src/widgets/lv_textarea.c ****     lv_textarea_t * ta = (lv_textarea_t *)obj;
 274:Drivers/lvgl/src/widgets/lv_textarea.c **** 
 275:Drivers/lvgl/src/widgets/lv_textarea.c ****     /*Clear the existing selection*/
 276:Drivers/lvgl/src/widgets/lv_textarea.c ****     lv_textarea_clear_selection(obj);
 277:Drivers/lvgl/src/widgets/lv_textarea.c **** 
 278:Drivers/lvgl/src/widgets/lv_textarea.c ****     /*Add the character one-by-one if not all characters are accepted or there is character limit.*
 279:Drivers/lvgl/src/widgets/lv_textarea.c ****     if(lv_textarea_get_accepted_chars(obj) || lv_textarea_get_max_length(obj)) {
 280:Drivers/lvgl/src/widgets/lv_textarea.c ****         lv_label_set_text(ta->label, "");
 281:Drivers/lvgl/src/widgets/lv_textarea.c ****         lv_textarea_set_cursor_pos(obj, LV_TEXTAREA_CURSOR_LAST);
 282:Drivers/lvgl/src/widgets/lv_textarea.c ****         if(ta->pwd_mode) {
 283:Drivers/lvgl/src/widgets/lv_textarea.c ****             ta->pwd_tmp[0] = '\0'; /*Clear the password too*/
 284:Drivers/lvgl/src/widgets/lv_textarea.c ****         }
 285:Drivers/lvgl/src/widgets/lv_textarea.c ****         uint32_t i = 0;
 286:Drivers/lvgl/src/widgets/lv_textarea.c ****         while(txt[i] != '\0') {
 287:Drivers/lvgl/src/widgets/lv_textarea.c ****             uint32_t c = _lv_txt_encoded_next(txt, &i);
 288:Drivers/lvgl/src/widgets/lv_textarea.c ****             lv_textarea_add_char(obj, _lv_txt_unicode_to_encoded(c));
 289:Drivers/lvgl/src/widgets/lv_textarea.c ****         }
 290:Drivers/lvgl/src/widgets/lv_textarea.c ****     }
 291:Drivers/lvgl/src/widgets/lv_textarea.c ****     else {
 292:Drivers/lvgl/src/widgets/lv_textarea.c ****         lv_label_set_text(ta->label, txt);
 293:Drivers/lvgl/src/widgets/lv_textarea.c ****         lv_textarea_set_cursor_pos(obj, LV_TEXTAREA_CURSOR_LAST);
 294:Drivers/lvgl/src/widgets/lv_textarea.c ****     }
 295:Drivers/lvgl/src/widgets/lv_textarea.c **** 
 296:Drivers/lvgl/src/widgets/lv_textarea.c ****     /*If the textarea is empty, invalidate it to hide the placeholder*/
 297:Drivers/lvgl/src/widgets/lv_textarea.c ****     if(ta->placeholder_txt) {
 298:Drivers/lvgl/src/widgets/lv_textarea.c ****         const char * txt_act = lv_label_get_text(ta->label);
 299:Drivers/lvgl/src/widgets/lv_textarea.c ****         if(txt_act[0] == '\0') lv_obj_invalidate(obj);
 300:Drivers/lvgl/src/widgets/lv_textarea.c ****     }
 301:Drivers/lvgl/src/widgets/lv_textarea.c **** 
 302:Drivers/lvgl/src/widgets/lv_textarea.c ****     if(ta->pwd_mode) {
 303:Drivers/lvgl/src/widgets/lv_textarea.c ****         ta->pwd_tmp = lv_mem_realloc(ta->pwd_tmp, strlen(txt) + 1);
 304:Drivers/lvgl/src/widgets/lv_textarea.c ****         LV_ASSERT_MALLOC(ta->pwd_tmp);
 305:Drivers/lvgl/src/widgets/lv_textarea.c ****         if(ta->pwd_tmp == NULL) return;
 306:Drivers/lvgl/src/widgets/lv_textarea.c ****         strcpy(ta->pwd_tmp, txt);
 307:Drivers/lvgl/src/widgets/lv_textarea.c **** 
 308:Drivers/lvgl/src/widgets/lv_textarea.c ****         /*Auto hide characters*/
 309:Drivers/lvgl/src/widgets/lv_textarea.c ****         auto_hide_characters(obj);
 310:Drivers/lvgl/src/widgets/lv_textarea.c ****     }
 311:Drivers/lvgl/src/widgets/lv_textarea.c **** 
 312:Drivers/lvgl/src/widgets/lv_textarea.c ****     lv_event_send(obj, LV_EVENT_VALUE_CHANGED, NULL);
 313:Drivers/lvgl/src/widgets/lv_textarea.c **** }
 314:Drivers/lvgl/src/widgets/lv_textarea.c **** 
 315:Drivers/lvgl/src/widgets/lv_textarea.c **** void lv_textarea_set_placeholder_text(lv_obj_t * obj, const char * txt)
ARM GAS  /var/folders/0z/tsy30v1j4xl4_7kw94k978ww0000gn/T//ccHqi1ZK.s 			page 7


 316:Drivers/lvgl/src/widgets/lv_textarea.c **** {
 317:Drivers/lvgl/src/widgets/lv_textarea.c ****     LV_ASSERT_OBJ(obj, MY_CLASS);
 318:Drivers/lvgl/src/widgets/lv_textarea.c ****     LV_ASSERT_NULL(txt);
 319:Drivers/lvgl/src/widgets/lv_textarea.c **** 
 320:Drivers/lvgl/src/widgets/lv_textarea.c ****     lv_textarea_t * ta = (lv_textarea_t *)obj;
 321:Drivers/lvgl/src/widgets/lv_textarea.c **** 
 322:Drivers/lvgl/src/widgets/lv_textarea.c ****     size_t txt_len = strlen(txt);
 323:Drivers/lvgl/src/widgets/lv_textarea.c ****     if((txt_len == 0) && (ta->placeholder_txt)) {
 324:Drivers/lvgl/src/widgets/lv_textarea.c ****         lv_mem_free(ta->placeholder_txt);
 325:Drivers/lvgl/src/widgets/lv_textarea.c ****         ta->placeholder_txt = NULL;
 326:Drivers/lvgl/src/widgets/lv_textarea.c ****     }
 327:Drivers/lvgl/src/widgets/lv_textarea.c ****     else {
 328:Drivers/lvgl/src/widgets/lv_textarea.c ****         /*Allocate memory for the placeholder_txt text*/
 329:Drivers/lvgl/src/widgets/lv_textarea.c ****         /*NOTE: Using special realloc behavior, malloc-like when data_p is NULL*/
 330:Drivers/lvgl/src/widgets/lv_textarea.c ****         ta->placeholder_txt = lv_mem_realloc(ta->placeholder_txt, txt_len + 1);
 331:Drivers/lvgl/src/widgets/lv_textarea.c ****         LV_ASSERT_MALLOC(ta->placeholder_txt);
 332:Drivers/lvgl/src/widgets/lv_textarea.c ****         if(ta->placeholder_txt == NULL) {
 333:Drivers/lvgl/src/widgets/lv_textarea.c ****             LV_LOG_ERROR("lv_textarea_set_placeholder_text: couldn't allocate memory for placeholde
 334:Drivers/lvgl/src/widgets/lv_textarea.c ****             return;
 335:Drivers/lvgl/src/widgets/lv_textarea.c ****         }
 336:Drivers/lvgl/src/widgets/lv_textarea.c **** 
 337:Drivers/lvgl/src/widgets/lv_textarea.c ****         strcpy(ta->placeholder_txt, txt);
 338:Drivers/lvgl/src/widgets/lv_textarea.c ****         ta->placeholder_txt[txt_len] = '\0';
 339:Drivers/lvgl/src/widgets/lv_textarea.c ****     }
 340:Drivers/lvgl/src/widgets/lv_textarea.c **** 
 341:Drivers/lvgl/src/widgets/lv_textarea.c ****     lv_obj_invalidate(obj);
 342:Drivers/lvgl/src/widgets/lv_textarea.c **** }
 343:Drivers/lvgl/src/widgets/lv_textarea.c **** 
 344:Drivers/lvgl/src/widgets/lv_textarea.c **** void lv_textarea_set_cursor_pos(lv_obj_t * obj, int32_t pos)
 345:Drivers/lvgl/src/widgets/lv_textarea.c **** {
 346:Drivers/lvgl/src/widgets/lv_textarea.c ****     LV_ASSERT_OBJ(obj, MY_CLASS);
 347:Drivers/lvgl/src/widgets/lv_textarea.c **** 
 348:Drivers/lvgl/src/widgets/lv_textarea.c ****     lv_textarea_t * ta = (lv_textarea_t *)obj;
 349:Drivers/lvgl/src/widgets/lv_textarea.c ****     if((uint32_t)ta->cursor.pos == (uint32_t)pos) return;
 350:Drivers/lvgl/src/widgets/lv_textarea.c **** 
 351:Drivers/lvgl/src/widgets/lv_textarea.c ****     uint32_t len = _lv_txt_get_encoded_length(lv_label_get_text(ta->label));
 352:Drivers/lvgl/src/widgets/lv_textarea.c **** 
 353:Drivers/lvgl/src/widgets/lv_textarea.c ****     if(pos < 0) pos = len + pos;
 354:Drivers/lvgl/src/widgets/lv_textarea.c **** 
 355:Drivers/lvgl/src/widgets/lv_textarea.c ****     if(pos > (int32_t)len || pos == LV_TEXTAREA_CURSOR_LAST) pos = len;
 356:Drivers/lvgl/src/widgets/lv_textarea.c **** 
 357:Drivers/lvgl/src/widgets/lv_textarea.c ****     ta->cursor.pos = pos;
 358:Drivers/lvgl/src/widgets/lv_textarea.c **** 
 359:Drivers/lvgl/src/widgets/lv_textarea.c ****     /*Position the label to make the cursor visible*/
 360:Drivers/lvgl/src/widgets/lv_textarea.c ****     lv_obj_update_layout(obj);
 361:Drivers/lvgl/src/widgets/lv_textarea.c **** 
 362:Drivers/lvgl/src/widgets/lv_textarea.c ****     lv_point_t cur_pos;
 363:Drivers/lvgl/src/widgets/lv_textarea.c ****     const lv_font_t * font = lv_obj_get_style_text_font(obj, LV_PART_MAIN);
 364:Drivers/lvgl/src/widgets/lv_textarea.c ****     lv_label_get_letter_pos(ta->label, pos, &cur_pos);
 365:Drivers/lvgl/src/widgets/lv_textarea.c **** 
 366:Drivers/lvgl/src/widgets/lv_textarea.c ****     /*The text area needs to have it's final size to see if the cursor is out of the area or not*/
 367:Drivers/lvgl/src/widgets/lv_textarea.c **** 
 368:Drivers/lvgl/src/widgets/lv_textarea.c ****     /*Check the top*/
 369:Drivers/lvgl/src/widgets/lv_textarea.c ****     lv_coord_t font_h = lv_font_get_line_height(font);
 370:Drivers/lvgl/src/widgets/lv_textarea.c ****     if(cur_pos.y < lv_obj_get_scroll_top(obj)) {
 371:Drivers/lvgl/src/widgets/lv_textarea.c ****         lv_obj_scroll_to_y(obj, cur_pos.y, LV_ANIM_ON);
 372:Drivers/lvgl/src/widgets/lv_textarea.c ****     }
ARM GAS  /var/folders/0z/tsy30v1j4xl4_7kw94k978ww0000gn/T//ccHqi1ZK.s 			page 8


 373:Drivers/lvgl/src/widgets/lv_textarea.c ****     /*Check the bottom*/
 374:Drivers/lvgl/src/widgets/lv_textarea.c ****     lv_coord_t h = lv_obj_get_content_height(obj);
 375:Drivers/lvgl/src/widgets/lv_textarea.c ****     if(cur_pos.y + font_h - lv_obj_get_scroll_top(obj) > h) {
 376:Drivers/lvgl/src/widgets/lv_textarea.c ****         lv_obj_scroll_to_y(obj, cur_pos.y - h + font_h, LV_ANIM_ON);
 377:Drivers/lvgl/src/widgets/lv_textarea.c ****     }
 378:Drivers/lvgl/src/widgets/lv_textarea.c **** 
 379:Drivers/lvgl/src/widgets/lv_textarea.c ****     /*Check the left*/
 380:Drivers/lvgl/src/widgets/lv_textarea.c ****     if(cur_pos.x < lv_obj_get_scroll_left(obj)) {
 381:Drivers/lvgl/src/widgets/lv_textarea.c ****         lv_obj_scroll_to_x(obj, cur_pos.x, LV_ANIM_ON);
 382:Drivers/lvgl/src/widgets/lv_textarea.c ****     }
 383:Drivers/lvgl/src/widgets/lv_textarea.c ****     /*Check the right*/
 384:Drivers/lvgl/src/widgets/lv_textarea.c ****     lv_coord_t w = lv_obj_get_content_width(obj);
 385:Drivers/lvgl/src/widgets/lv_textarea.c ****     if(cur_pos.x + font_h - lv_obj_get_scroll_left(obj) > w) {
 386:Drivers/lvgl/src/widgets/lv_textarea.c ****         lv_obj_scroll_to_x(obj, cur_pos.x - w + font_h, LV_ANIM_ON);
 387:Drivers/lvgl/src/widgets/lv_textarea.c ****     }
 388:Drivers/lvgl/src/widgets/lv_textarea.c **** 
 389:Drivers/lvgl/src/widgets/lv_textarea.c ****     ta->cursor.valid_x = cur_pos.x;
 390:Drivers/lvgl/src/widgets/lv_textarea.c **** 
 391:Drivers/lvgl/src/widgets/lv_textarea.c ****     start_cursor_blink(obj);
 392:Drivers/lvgl/src/widgets/lv_textarea.c **** 
 393:Drivers/lvgl/src/widgets/lv_textarea.c ****     refr_cursor_area(obj);
 394:Drivers/lvgl/src/widgets/lv_textarea.c **** }
 395:Drivers/lvgl/src/widgets/lv_textarea.c **** 
 396:Drivers/lvgl/src/widgets/lv_textarea.c **** void lv_textarea_set_cursor_click_pos(lv_obj_t * obj, bool en)
 397:Drivers/lvgl/src/widgets/lv_textarea.c **** {
 398:Drivers/lvgl/src/widgets/lv_textarea.c ****     LV_ASSERT_OBJ(obj, MY_CLASS);
 399:Drivers/lvgl/src/widgets/lv_textarea.c **** 
 400:Drivers/lvgl/src/widgets/lv_textarea.c ****     lv_textarea_t * ta = (lv_textarea_t *)obj;
 401:Drivers/lvgl/src/widgets/lv_textarea.c ****     ta->cursor.click_pos = en ? 1U : 0U;
 402:Drivers/lvgl/src/widgets/lv_textarea.c **** }
 403:Drivers/lvgl/src/widgets/lv_textarea.c **** 
 404:Drivers/lvgl/src/widgets/lv_textarea.c **** void lv_textarea_set_password_mode(lv_obj_t * obj, bool en)
 405:Drivers/lvgl/src/widgets/lv_textarea.c **** {
 406:Drivers/lvgl/src/widgets/lv_textarea.c ****     LV_ASSERT_OBJ(obj, MY_CLASS);
 407:Drivers/lvgl/src/widgets/lv_textarea.c **** 
 408:Drivers/lvgl/src/widgets/lv_textarea.c ****     lv_textarea_t * ta = (lv_textarea_t *)obj;
 409:Drivers/lvgl/src/widgets/lv_textarea.c ****     if(ta->pwd_mode == en) return;
 410:Drivers/lvgl/src/widgets/lv_textarea.c **** 
 411:Drivers/lvgl/src/widgets/lv_textarea.c ****     ta->pwd_mode = en ? 1U : 0U;
 412:Drivers/lvgl/src/widgets/lv_textarea.c ****     /*Pwd mode is now enabled*/
 413:Drivers/lvgl/src/widgets/lv_textarea.c ****     if(en) {
 414:Drivers/lvgl/src/widgets/lv_textarea.c ****         char * txt = lv_label_get_text(ta->label);
 415:Drivers/lvgl/src/widgets/lv_textarea.c ****         size_t len = strlen(txt);
 416:Drivers/lvgl/src/widgets/lv_textarea.c **** 
 417:Drivers/lvgl/src/widgets/lv_textarea.c ****         ta->pwd_tmp = lv_mem_alloc(len + 1);
 418:Drivers/lvgl/src/widgets/lv_textarea.c ****         LV_ASSERT_MALLOC(ta->pwd_tmp);
 419:Drivers/lvgl/src/widgets/lv_textarea.c ****         if(ta->pwd_tmp == NULL) return;
 420:Drivers/lvgl/src/widgets/lv_textarea.c **** 
 421:Drivers/lvgl/src/widgets/lv_textarea.c ****         strcpy(ta->pwd_tmp, txt);
 422:Drivers/lvgl/src/widgets/lv_textarea.c **** 
 423:Drivers/lvgl/src/widgets/lv_textarea.c ****         pwd_char_hider(obj);
 424:Drivers/lvgl/src/widgets/lv_textarea.c **** 
 425:Drivers/lvgl/src/widgets/lv_textarea.c ****         lv_textarea_clear_selection(obj);
 426:Drivers/lvgl/src/widgets/lv_textarea.c ****     }
 427:Drivers/lvgl/src/widgets/lv_textarea.c ****     /*Pwd mode is now disabled*/
 428:Drivers/lvgl/src/widgets/lv_textarea.c ****     else {
 429:Drivers/lvgl/src/widgets/lv_textarea.c ****         lv_textarea_clear_selection(obj);
ARM GAS  /var/folders/0z/tsy30v1j4xl4_7kw94k978ww0000gn/T//ccHqi1ZK.s 			page 9


 430:Drivers/lvgl/src/widgets/lv_textarea.c ****         lv_label_set_text(ta->label, ta->pwd_tmp);
 431:Drivers/lvgl/src/widgets/lv_textarea.c ****         lv_mem_free(ta->pwd_tmp);
 432:Drivers/lvgl/src/widgets/lv_textarea.c ****         ta->pwd_tmp = NULL;
 433:Drivers/lvgl/src/widgets/lv_textarea.c ****     }
 434:Drivers/lvgl/src/widgets/lv_textarea.c **** 
 435:Drivers/lvgl/src/widgets/lv_textarea.c ****     refr_cursor_area(obj);
 436:Drivers/lvgl/src/widgets/lv_textarea.c **** }
 437:Drivers/lvgl/src/widgets/lv_textarea.c **** 
 438:Drivers/lvgl/src/widgets/lv_textarea.c **** void lv_textarea_set_password_bullet(lv_obj_t * obj, const char * bullet)
 439:Drivers/lvgl/src/widgets/lv_textarea.c **** {
 440:Drivers/lvgl/src/widgets/lv_textarea.c ****     LV_ASSERT_OBJ(obj, MY_CLASS);
 441:Drivers/lvgl/src/widgets/lv_textarea.c ****     LV_ASSERT_NULL(bullet);
 442:Drivers/lvgl/src/widgets/lv_textarea.c **** 
 443:Drivers/lvgl/src/widgets/lv_textarea.c ****     lv_textarea_t * ta = (lv_textarea_t *)obj;
 444:Drivers/lvgl/src/widgets/lv_textarea.c **** 
 445:Drivers/lvgl/src/widgets/lv_textarea.c ****     if(!bullet && (ta->pwd_bullet)) {
 446:Drivers/lvgl/src/widgets/lv_textarea.c ****         lv_mem_free(ta->pwd_bullet);
 447:Drivers/lvgl/src/widgets/lv_textarea.c ****         ta->pwd_bullet = NULL;
 448:Drivers/lvgl/src/widgets/lv_textarea.c ****     }
 449:Drivers/lvgl/src/widgets/lv_textarea.c ****     else {
 450:Drivers/lvgl/src/widgets/lv_textarea.c ****         size_t txt_len = strlen(bullet);
 451:Drivers/lvgl/src/widgets/lv_textarea.c **** 
 452:Drivers/lvgl/src/widgets/lv_textarea.c ****         /*Allocate memory for the pwd_bullet text*/
 453:Drivers/lvgl/src/widgets/lv_textarea.c ****         /*NOTE: Using special realloc behavior, malloc-like when data_p is NULL*/
 454:Drivers/lvgl/src/widgets/lv_textarea.c ****         ta->pwd_bullet = lv_mem_realloc(ta->pwd_bullet, txt_len + 1);
 455:Drivers/lvgl/src/widgets/lv_textarea.c ****         LV_ASSERT_MALLOC(ta->pwd_bullet);
 456:Drivers/lvgl/src/widgets/lv_textarea.c ****         if(ta->pwd_bullet == NULL) {
 457:Drivers/lvgl/src/widgets/lv_textarea.c ****             LV_LOG_ERROR("lv_textarea_set_password_bullet: couldn't allocate memory for bullet");
 458:Drivers/lvgl/src/widgets/lv_textarea.c ****             return;
 459:Drivers/lvgl/src/widgets/lv_textarea.c ****         }
 460:Drivers/lvgl/src/widgets/lv_textarea.c **** 
 461:Drivers/lvgl/src/widgets/lv_textarea.c ****         strcpy(ta->pwd_bullet, bullet);
 462:Drivers/lvgl/src/widgets/lv_textarea.c ****         ta->pwd_bullet[txt_len] = '\0';
 463:Drivers/lvgl/src/widgets/lv_textarea.c ****     }
 464:Drivers/lvgl/src/widgets/lv_textarea.c **** 
 465:Drivers/lvgl/src/widgets/lv_textarea.c ****     lv_obj_invalidate(obj);
 466:Drivers/lvgl/src/widgets/lv_textarea.c **** }
 467:Drivers/lvgl/src/widgets/lv_textarea.c **** 
 468:Drivers/lvgl/src/widgets/lv_textarea.c **** void lv_textarea_set_one_line(lv_obj_t * obj, bool en)
 469:Drivers/lvgl/src/widgets/lv_textarea.c **** {
 470:Drivers/lvgl/src/widgets/lv_textarea.c ****     LV_ASSERT_OBJ(obj, MY_CLASS);
 471:Drivers/lvgl/src/widgets/lv_textarea.c **** 
 472:Drivers/lvgl/src/widgets/lv_textarea.c ****     lv_textarea_t * ta = (lv_textarea_t *)obj;
 473:Drivers/lvgl/src/widgets/lv_textarea.c ****     if(ta->one_line == en) return;
 474:Drivers/lvgl/src/widgets/lv_textarea.c **** 
 475:Drivers/lvgl/src/widgets/lv_textarea.c ****     ta->one_line = en ? 1U : 0U;
 476:Drivers/lvgl/src/widgets/lv_textarea.c ****     lv_coord_t width = en ? LV_SIZE_CONTENT : lv_pct(100);
 477:Drivers/lvgl/src/widgets/lv_textarea.c ****     lv_coord_t min_width_value = en ? lv_pct(100) : 0;
 478:Drivers/lvgl/src/widgets/lv_textarea.c **** 
 479:Drivers/lvgl/src/widgets/lv_textarea.c ****     lv_obj_set_width(ta->label, width);
 480:Drivers/lvgl/src/widgets/lv_textarea.c ****     lv_obj_set_style_min_width(ta->label, min_width_value, 0);
 481:Drivers/lvgl/src/widgets/lv_textarea.c **** 
 482:Drivers/lvgl/src/widgets/lv_textarea.c ****     if(en) {
 483:Drivers/lvgl/src/widgets/lv_textarea.c ****         lv_obj_set_height(obj, LV_SIZE_CONTENT);
 484:Drivers/lvgl/src/widgets/lv_textarea.c ****     }
 485:Drivers/lvgl/src/widgets/lv_textarea.c ****     else {
 486:Drivers/lvgl/src/widgets/lv_textarea.c ****         lv_obj_remove_local_style_prop(obj, LV_STYLE_HEIGHT, LV_PART_MAIN);
ARM GAS  /var/folders/0z/tsy30v1j4xl4_7kw94k978ww0000gn/T//ccHqi1ZK.s 			page 10


 487:Drivers/lvgl/src/widgets/lv_textarea.c ****     }
 488:Drivers/lvgl/src/widgets/lv_textarea.c **** 
 489:Drivers/lvgl/src/widgets/lv_textarea.c ****     lv_obj_scroll_to(obj, 0, 0, LV_ANIM_OFF);
 490:Drivers/lvgl/src/widgets/lv_textarea.c **** }
 491:Drivers/lvgl/src/widgets/lv_textarea.c **** 
 492:Drivers/lvgl/src/widgets/lv_textarea.c **** void lv_textarea_set_accepted_chars(lv_obj_t * obj, const char * list)
 493:Drivers/lvgl/src/widgets/lv_textarea.c **** {
 494:Drivers/lvgl/src/widgets/lv_textarea.c ****     LV_ASSERT_OBJ(obj, MY_CLASS);
 495:Drivers/lvgl/src/widgets/lv_textarea.c **** 
 496:Drivers/lvgl/src/widgets/lv_textarea.c ****     lv_textarea_t * ta = (lv_textarea_t *)obj;
 497:Drivers/lvgl/src/widgets/lv_textarea.c **** 
 498:Drivers/lvgl/src/widgets/lv_textarea.c ****     ta->accepted_chars = list;
 499:Drivers/lvgl/src/widgets/lv_textarea.c **** }
 500:Drivers/lvgl/src/widgets/lv_textarea.c **** 
 501:Drivers/lvgl/src/widgets/lv_textarea.c **** void lv_textarea_set_max_length(lv_obj_t * obj, uint32_t num)
 502:Drivers/lvgl/src/widgets/lv_textarea.c **** {
 503:Drivers/lvgl/src/widgets/lv_textarea.c ****     LV_ASSERT_OBJ(obj, MY_CLASS);
 504:Drivers/lvgl/src/widgets/lv_textarea.c **** 
 505:Drivers/lvgl/src/widgets/lv_textarea.c ****     lv_textarea_t * ta = (lv_textarea_t *)obj;
 506:Drivers/lvgl/src/widgets/lv_textarea.c **** 
 507:Drivers/lvgl/src/widgets/lv_textarea.c ****     ta->max_length = num;
 508:Drivers/lvgl/src/widgets/lv_textarea.c **** }
 509:Drivers/lvgl/src/widgets/lv_textarea.c **** 
 510:Drivers/lvgl/src/widgets/lv_textarea.c **** void lv_textarea_set_insert_replace(lv_obj_t * obj, const char * txt)
 511:Drivers/lvgl/src/widgets/lv_textarea.c **** {
 512:Drivers/lvgl/src/widgets/lv_textarea.c ****     LV_ASSERT_OBJ(obj, MY_CLASS);
 513:Drivers/lvgl/src/widgets/lv_textarea.c **** 
 514:Drivers/lvgl/src/widgets/lv_textarea.c ****     LV_UNUSED(obj);
 515:Drivers/lvgl/src/widgets/lv_textarea.c ****     ta_insert_replace = txt;
 516:Drivers/lvgl/src/widgets/lv_textarea.c **** }
 517:Drivers/lvgl/src/widgets/lv_textarea.c **** 
 518:Drivers/lvgl/src/widgets/lv_textarea.c **** void lv_textarea_set_text_selection(lv_obj_t * obj, bool en)
 519:Drivers/lvgl/src/widgets/lv_textarea.c **** {
 520:Drivers/lvgl/src/widgets/lv_textarea.c ****     LV_ASSERT_OBJ(obj, MY_CLASS);
 521:Drivers/lvgl/src/widgets/lv_textarea.c **** 
 522:Drivers/lvgl/src/widgets/lv_textarea.c **** #if LV_LABEL_TEXT_SELECTION
 523:Drivers/lvgl/src/widgets/lv_textarea.c ****     lv_textarea_t * ta = (lv_textarea_t *)obj;
 524:Drivers/lvgl/src/widgets/lv_textarea.c **** 
 525:Drivers/lvgl/src/widgets/lv_textarea.c ****     ta->text_sel_en = en;
 526:Drivers/lvgl/src/widgets/lv_textarea.c **** 
 527:Drivers/lvgl/src/widgets/lv_textarea.c ****     if(!en) lv_textarea_clear_selection(obj);
 528:Drivers/lvgl/src/widgets/lv_textarea.c **** #else
 529:Drivers/lvgl/src/widgets/lv_textarea.c ****     LV_UNUSED(obj); /*Unused*/
 530:Drivers/lvgl/src/widgets/lv_textarea.c ****     LV_UNUSED(en);  /*Unused*/
 531:Drivers/lvgl/src/widgets/lv_textarea.c **** #endif
 532:Drivers/lvgl/src/widgets/lv_textarea.c **** }
 533:Drivers/lvgl/src/widgets/lv_textarea.c **** 
 534:Drivers/lvgl/src/widgets/lv_textarea.c **** void lv_textarea_set_password_show_time(lv_obj_t * obj, uint16_t time)
 535:Drivers/lvgl/src/widgets/lv_textarea.c **** {
 536:Drivers/lvgl/src/widgets/lv_textarea.c ****     LV_ASSERT_OBJ(obj, MY_CLASS);
 537:Drivers/lvgl/src/widgets/lv_textarea.c **** 
 538:Drivers/lvgl/src/widgets/lv_textarea.c ****     lv_textarea_t * ta = (lv_textarea_t *)obj;
 539:Drivers/lvgl/src/widgets/lv_textarea.c ****     ta->pwd_show_time = time;
 540:Drivers/lvgl/src/widgets/lv_textarea.c **** }
 541:Drivers/lvgl/src/widgets/lv_textarea.c **** 
 542:Drivers/lvgl/src/widgets/lv_textarea.c **** void lv_textarea_set_align(lv_obj_t * obj, lv_text_align_t align)
 543:Drivers/lvgl/src/widgets/lv_textarea.c **** {
ARM GAS  /var/folders/0z/tsy30v1j4xl4_7kw94k978ww0000gn/T//ccHqi1ZK.s 			page 11


 544:Drivers/lvgl/src/widgets/lv_textarea.c ****     LV_LOG_WARN("Deprecated: use the normal text_align style property instead");
 545:Drivers/lvgl/src/widgets/lv_textarea.c ****     lv_obj_set_style_text_align(obj, align, 0);
 546:Drivers/lvgl/src/widgets/lv_textarea.c **** 
 547:Drivers/lvgl/src/widgets/lv_textarea.c ****     switch(align) {
 548:Drivers/lvgl/src/widgets/lv_textarea.c ****         default:
 549:Drivers/lvgl/src/widgets/lv_textarea.c ****         case LV_TEXT_ALIGN_LEFT:
 550:Drivers/lvgl/src/widgets/lv_textarea.c ****             lv_obj_align(lv_textarea_get_label(obj), LV_ALIGN_TOP_LEFT, 0, 0);
 551:Drivers/lvgl/src/widgets/lv_textarea.c ****             break;
 552:Drivers/lvgl/src/widgets/lv_textarea.c ****         case LV_TEXT_ALIGN_RIGHT:
 553:Drivers/lvgl/src/widgets/lv_textarea.c ****             lv_obj_align(lv_textarea_get_label(obj), LV_ALIGN_TOP_RIGHT, 0, 0);
 554:Drivers/lvgl/src/widgets/lv_textarea.c ****             break;
 555:Drivers/lvgl/src/widgets/lv_textarea.c ****         case LV_TEXT_ALIGN_CENTER:
 556:Drivers/lvgl/src/widgets/lv_textarea.c ****             lv_obj_align(lv_textarea_get_label(obj), LV_ALIGN_TOP_MID, 0, 0);
 557:Drivers/lvgl/src/widgets/lv_textarea.c ****             break;
 558:Drivers/lvgl/src/widgets/lv_textarea.c ****     }
 559:Drivers/lvgl/src/widgets/lv_textarea.c **** }
 560:Drivers/lvgl/src/widgets/lv_textarea.c **** 
 561:Drivers/lvgl/src/widgets/lv_textarea.c **** /*=====================
 562:Drivers/lvgl/src/widgets/lv_textarea.c ****  * Getter functions
 563:Drivers/lvgl/src/widgets/lv_textarea.c ****  *====================*/
 564:Drivers/lvgl/src/widgets/lv_textarea.c **** 
 565:Drivers/lvgl/src/widgets/lv_textarea.c **** const char * lv_textarea_get_text(const lv_obj_t * obj)
 566:Drivers/lvgl/src/widgets/lv_textarea.c **** {
 567:Drivers/lvgl/src/widgets/lv_textarea.c ****     LV_ASSERT_OBJ(obj, MY_CLASS);
 568:Drivers/lvgl/src/widgets/lv_textarea.c **** 
 569:Drivers/lvgl/src/widgets/lv_textarea.c ****     lv_textarea_t * ta = (lv_textarea_t *)obj;
 570:Drivers/lvgl/src/widgets/lv_textarea.c **** 
 571:Drivers/lvgl/src/widgets/lv_textarea.c ****     const char * txt;
 572:Drivers/lvgl/src/widgets/lv_textarea.c ****     if(ta->pwd_mode == 0) {
 573:Drivers/lvgl/src/widgets/lv_textarea.c ****         txt = lv_label_get_text(ta->label);
 574:Drivers/lvgl/src/widgets/lv_textarea.c ****     }
 575:Drivers/lvgl/src/widgets/lv_textarea.c ****     else {
 576:Drivers/lvgl/src/widgets/lv_textarea.c ****         txt = ta->pwd_tmp;
 577:Drivers/lvgl/src/widgets/lv_textarea.c ****     }
 578:Drivers/lvgl/src/widgets/lv_textarea.c **** 
 579:Drivers/lvgl/src/widgets/lv_textarea.c ****     return txt;
 580:Drivers/lvgl/src/widgets/lv_textarea.c **** }
 581:Drivers/lvgl/src/widgets/lv_textarea.c **** 
 582:Drivers/lvgl/src/widgets/lv_textarea.c **** const char * lv_textarea_get_placeholder_text(lv_obj_t * obj)
 583:Drivers/lvgl/src/widgets/lv_textarea.c **** {
 584:Drivers/lvgl/src/widgets/lv_textarea.c ****     LV_ASSERT_OBJ(obj, MY_CLASS);
 585:Drivers/lvgl/src/widgets/lv_textarea.c **** 
 586:Drivers/lvgl/src/widgets/lv_textarea.c ****     lv_textarea_t * ta = (lv_textarea_t *)obj;
 587:Drivers/lvgl/src/widgets/lv_textarea.c ****     if(ta->placeholder_txt) return ta->placeholder_txt;
 588:Drivers/lvgl/src/widgets/lv_textarea.c ****     else return "";
 589:Drivers/lvgl/src/widgets/lv_textarea.c **** }
 590:Drivers/lvgl/src/widgets/lv_textarea.c **** 
 591:Drivers/lvgl/src/widgets/lv_textarea.c **** lv_obj_t * lv_textarea_get_label(const lv_obj_t * obj)
 592:Drivers/lvgl/src/widgets/lv_textarea.c **** {
 593:Drivers/lvgl/src/widgets/lv_textarea.c ****     LV_ASSERT_OBJ(obj, MY_CLASS);
 594:Drivers/lvgl/src/widgets/lv_textarea.c **** 
 595:Drivers/lvgl/src/widgets/lv_textarea.c ****     lv_textarea_t * ta = (lv_textarea_t *)obj;
 596:Drivers/lvgl/src/widgets/lv_textarea.c ****     return ta->label;
 597:Drivers/lvgl/src/widgets/lv_textarea.c **** }
 598:Drivers/lvgl/src/widgets/lv_textarea.c **** 
 599:Drivers/lvgl/src/widgets/lv_textarea.c **** uint32_t lv_textarea_get_cursor_pos(const lv_obj_t * obj)
 600:Drivers/lvgl/src/widgets/lv_textarea.c **** {
ARM GAS  /var/folders/0z/tsy30v1j4xl4_7kw94k978ww0000gn/T//ccHqi1ZK.s 			page 12


 601:Drivers/lvgl/src/widgets/lv_textarea.c ****     LV_ASSERT_OBJ(obj, MY_CLASS);
 602:Drivers/lvgl/src/widgets/lv_textarea.c **** 
 603:Drivers/lvgl/src/widgets/lv_textarea.c ****     lv_textarea_t * ta = (lv_textarea_t *)obj;
 604:Drivers/lvgl/src/widgets/lv_textarea.c ****     return ta->cursor.pos;
 605:Drivers/lvgl/src/widgets/lv_textarea.c **** }
 606:Drivers/lvgl/src/widgets/lv_textarea.c **** 
 607:Drivers/lvgl/src/widgets/lv_textarea.c **** bool lv_textarea_get_cursor_click_pos(lv_obj_t * obj)
 608:Drivers/lvgl/src/widgets/lv_textarea.c **** {
 609:Drivers/lvgl/src/widgets/lv_textarea.c ****     LV_ASSERT_OBJ(obj, MY_CLASS);
 610:Drivers/lvgl/src/widgets/lv_textarea.c **** 
 611:Drivers/lvgl/src/widgets/lv_textarea.c ****     lv_textarea_t * ta = (lv_textarea_t *)obj;
 612:Drivers/lvgl/src/widgets/lv_textarea.c ****     return ta->cursor.click_pos ? true : false;
 613:Drivers/lvgl/src/widgets/lv_textarea.c **** }
 614:Drivers/lvgl/src/widgets/lv_textarea.c **** 
 615:Drivers/lvgl/src/widgets/lv_textarea.c **** bool lv_textarea_get_password_mode(const lv_obj_t * obj)
 616:Drivers/lvgl/src/widgets/lv_textarea.c **** {
 617:Drivers/lvgl/src/widgets/lv_textarea.c ****     LV_ASSERT_OBJ(obj, MY_CLASS);
 618:Drivers/lvgl/src/widgets/lv_textarea.c **** 
 619:Drivers/lvgl/src/widgets/lv_textarea.c ****     lv_textarea_t * ta = (lv_textarea_t *)obj;
 620:Drivers/lvgl/src/widgets/lv_textarea.c ****     return ta->pwd_mode == 1U;
 621:Drivers/lvgl/src/widgets/lv_textarea.c **** }
 622:Drivers/lvgl/src/widgets/lv_textarea.c **** 
 623:Drivers/lvgl/src/widgets/lv_textarea.c **** const char * lv_textarea_get_password_bullet(lv_obj_t * obj)
 624:Drivers/lvgl/src/widgets/lv_textarea.c **** {
 625:Drivers/lvgl/src/widgets/lv_textarea.c ****     LV_ASSERT_OBJ(obj, MY_CLASS);
 626:Drivers/lvgl/src/widgets/lv_textarea.c **** 
 627:Drivers/lvgl/src/widgets/lv_textarea.c ****     lv_textarea_t * ta = (lv_textarea_t *)obj;
 628:Drivers/lvgl/src/widgets/lv_textarea.c **** 
 629:Drivers/lvgl/src/widgets/lv_textarea.c ****     if(ta->pwd_bullet) return ta->pwd_bullet;
 630:Drivers/lvgl/src/widgets/lv_textarea.c **** 
 631:Drivers/lvgl/src/widgets/lv_textarea.c ****     lv_font_glyph_dsc_t g;
 632:Drivers/lvgl/src/widgets/lv_textarea.c ****     const lv_font_t * font = lv_obj_get_style_text_font(obj, LV_PART_MAIN);
 633:Drivers/lvgl/src/widgets/lv_textarea.c **** 
 634:Drivers/lvgl/src/widgets/lv_textarea.c ****     /*If the textarea's font has the bullet character use it else fallback to "*"*/
 635:Drivers/lvgl/src/widgets/lv_textarea.c ****     if(lv_font_get_glyph_dsc(font, &g, LV_TEXTAREA_PWD_BULLET_UNICODE, 0))
 636:Drivers/lvgl/src/widgets/lv_textarea.c ****         return LV_SYMBOL_BULLET;
 637:Drivers/lvgl/src/widgets/lv_textarea.c ****     return "*";
 638:Drivers/lvgl/src/widgets/lv_textarea.c **** }
 639:Drivers/lvgl/src/widgets/lv_textarea.c **** 
 640:Drivers/lvgl/src/widgets/lv_textarea.c **** bool lv_textarea_get_one_line(const lv_obj_t * obj)
 641:Drivers/lvgl/src/widgets/lv_textarea.c **** {
 642:Drivers/lvgl/src/widgets/lv_textarea.c ****     LV_ASSERT_OBJ(obj, MY_CLASS);
 643:Drivers/lvgl/src/widgets/lv_textarea.c **** 
 644:Drivers/lvgl/src/widgets/lv_textarea.c ****     lv_textarea_t * ta = (lv_textarea_t *)obj;
 645:Drivers/lvgl/src/widgets/lv_textarea.c ****     return ta->one_line == 1U;
 646:Drivers/lvgl/src/widgets/lv_textarea.c **** }
 647:Drivers/lvgl/src/widgets/lv_textarea.c **** 
 648:Drivers/lvgl/src/widgets/lv_textarea.c **** const char * lv_textarea_get_accepted_chars(lv_obj_t * obj)
 649:Drivers/lvgl/src/widgets/lv_textarea.c **** {
 650:Drivers/lvgl/src/widgets/lv_textarea.c ****     LV_ASSERT_OBJ(obj, MY_CLASS);
 651:Drivers/lvgl/src/widgets/lv_textarea.c **** 
 652:Drivers/lvgl/src/widgets/lv_textarea.c ****     lv_textarea_t * ta = (lv_textarea_t *)obj;
 653:Drivers/lvgl/src/widgets/lv_textarea.c **** 
 654:Drivers/lvgl/src/widgets/lv_textarea.c ****     return ta->accepted_chars;
 655:Drivers/lvgl/src/widgets/lv_textarea.c **** }
 656:Drivers/lvgl/src/widgets/lv_textarea.c **** 
 657:Drivers/lvgl/src/widgets/lv_textarea.c **** uint32_t lv_textarea_get_max_length(lv_obj_t * obj)
ARM GAS  /var/folders/0z/tsy30v1j4xl4_7kw94k978ww0000gn/T//ccHqi1ZK.s 			page 13


 658:Drivers/lvgl/src/widgets/lv_textarea.c **** {
 659:Drivers/lvgl/src/widgets/lv_textarea.c ****     LV_ASSERT_OBJ(obj, MY_CLASS);
 660:Drivers/lvgl/src/widgets/lv_textarea.c **** 
 661:Drivers/lvgl/src/widgets/lv_textarea.c ****     lv_textarea_t * ta = (lv_textarea_t *)obj;
 662:Drivers/lvgl/src/widgets/lv_textarea.c ****     return ta->max_length;
 663:Drivers/lvgl/src/widgets/lv_textarea.c **** }
 664:Drivers/lvgl/src/widgets/lv_textarea.c **** 
 665:Drivers/lvgl/src/widgets/lv_textarea.c **** bool lv_textarea_text_is_selected(const lv_obj_t * obj)
 666:Drivers/lvgl/src/widgets/lv_textarea.c **** {
 667:Drivers/lvgl/src/widgets/lv_textarea.c ****     LV_ASSERT_OBJ(obj, MY_CLASS);
 668:Drivers/lvgl/src/widgets/lv_textarea.c **** 
 669:Drivers/lvgl/src/widgets/lv_textarea.c **** #if LV_LABEL_TEXT_SELECTION
 670:Drivers/lvgl/src/widgets/lv_textarea.c ****     lv_textarea_t * ta = (lv_textarea_t *)obj;
 671:Drivers/lvgl/src/widgets/lv_textarea.c **** 
 672:Drivers/lvgl/src/widgets/lv_textarea.c ****     if((lv_label_get_text_selection_start(ta->label) != LV_DRAW_LABEL_NO_TXT_SEL ||
 673:Drivers/lvgl/src/widgets/lv_textarea.c ****         lv_label_get_text_selection_end(ta->label) != LV_DRAW_LABEL_NO_TXT_SEL)) {
 674:Drivers/lvgl/src/widgets/lv_textarea.c ****         return true;
 675:Drivers/lvgl/src/widgets/lv_textarea.c ****     }
 676:Drivers/lvgl/src/widgets/lv_textarea.c ****     else {
 677:Drivers/lvgl/src/widgets/lv_textarea.c ****         return false;
 678:Drivers/lvgl/src/widgets/lv_textarea.c ****     }
 679:Drivers/lvgl/src/widgets/lv_textarea.c **** #else
 680:Drivers/lvgl/src/widgets/lv_textarea.c ****     LV_UNUSED(obj); /*Unused*/
 681:Drivers/lvgl/src/widgets/lv_textarea.c ****     return false;
 682:Drivers/lvgl/src/widgets/lv_textarea.c **** #endif
 683:Drivers/lvgl/src/widgets/lv_textarea.c **** }
 684:Drivers/lvgl/src/widgets/lv_textarea.c **** 
 685:Drivers/lvgl/src/widgets/lv_textarea.c **** bool lv_textarea_get_text_selection(lv_obj_t * obj)
 686:Drivers/lvgl/src/widgets/lv_textarea.c **** {
 687:Drivers/lvgl/src/widgets/lv_textarea.c ****     LV_ASSERT_OBJ(obj, MY_CLASS);
 688:Drivers/lvgl/src/widgets/lv_textarea.c **** 
 689:Drivers/lvgl/src/widgets/lv_textarea.c **** #if LV_LABEL_TEXT_SELECTION
 690:Drivers/lvgl/src/widgets/lv_textarea.c ****     lv_textarea_t * ta = (lv_textarea_t *)obj;
 691:Drivers/lvgl/src/widgets/lv_textarea.c ****     return ta->text_sel_en;
 692:Drivers/lvgl/src/widgets/lv_textarea.c **** #else
 693:Drivers/lvgl/src/widgets/lv_textarea.c ****     LV_UNUSED(obj); /*Unused*/
 694:Drivers/lvgl/src/widgets/lv_textarea.c ****     return false;
 695:Drivers/lvgl/src/widgets/lv_textarea.c **** #endif
 696:Drivers/lvgl/src/widgets/lv_textarea.c **** }
 697:Drivers/lvgl/src/widgets/lv_textarea.c **** 
 698:Drivers/lvgl/src/widgets/lv_textarea.c **** uint16_t lv_textarea_get_password_show_time(lv_obj_t * obj)
 699:Drivers/lvgl/src/widgets/lv_textarea.c **** {
 700:Drivers/lvgl/src/widgets/lv_textarea.c ****     LV_ASSERT_OBJ(obj, MY_CLASS);
 701:Drivers/lvgl/src/widgets/lv_textarea.c **** 
 702:Drivers/lvgl/src/widgets/lv_textarea.c ****     lv_textarea_t * ta = (lv_textarea_t *)obj;
 703:Drivers/lvgl/src/widgets/lv_textarea.c **** 
 704:Drivers/lvgl/src/widgets/lv_textarea.c ****     return ta->pwd_show_time;
 705:Drivers/lvgl/src/widgets/lv_textarea.c **** }
 706:Drivers/lvgl/src/widgets/lv_textarea.c **** 
 707:Drivers/lvgl/src/widgets/lv_textarea.c **** /*=====================
 708:Drivers/lvgl/src/widgets/lv_textarea.c ****  * Other functions
 709:Drivers/lvgl/src/widgets/lv_textarea.c ****  *====================*/
 710:Drivers/lvgl/src/widgets/lv_textarea.c **** 
 711:Drivers/lvgl/src/widgets/lv_textarea.c **** void lv_textarea_clear_selection(lv_obj_t * obj)
 712:Drivers/lvgl/src/widgets/lv_textarea.c **** {
 713:Drivers/lvgl/src/widgets/lv_textarea.c ****     LV_ASSERT_OBJ(obj, MY_CLASS);
 714:Drivers/lvgl/src/widgets/lv_textarea.c **** 
ARM GAS  /var/folders/0z/tsy30v1j4xl4_7kw94k978ww0000gn/T//ccHqi1ZK.s 			page 14


 715:Drivers/lvgl/src/widgets/lv_textarea.c **** #if LV_LABEL_TEXT_SELECTION
 716:Drivers/lvgl/src/widgets/lv_textarea.c ****     lv_textarea_t * ta = (lv_textarea_t *)obj;
 717:Drivers/lvgl/src/widgets/lv_textarea.c **** 
 718:Drivers/lvgl/src/widgets/lv_textarea.c ****     if(lv_label_get_text_selection_start(ta->label) != LV_DRAW_LABEL_NO_TXT_SEL ||
 719:Drivers/lvgl/src/widgets/lv_textarea.c ****        lv_label_get_text_selection_end(ta->label) != LV_DRAW_LABEL_NO_TXT_SEL) {
 720:Drivers/lvgl/src/widgets/lv_textarea.c ****         lv_label_set_text_sel_start(ta->label, LV_DRAW_LABEL_NO_TXT_SEL);
 721:Drivers/lvgl/src/widgets/lv_textarea.c ****         lv_label_set_text_sel_end(ta->label, LV_DRAW_LABEL_NO_TXT_SEL);
 722:Drivers/lvgl/src/widgets/lv_textarea.c ****     }
 723:Drivers/lvgl/src/widgets/lv_textarea.c **** #else
 724:Drivers/lvgl/src/widgets/lv_textarea.c ****     LV_UNUSED(obj); /*Unused*/
 725:Drivers/lvgl/src/widgets/lv_textarea.c **** #endif
 726:Drivers/lvgl/src/widgets/lv_textarea.c **** }
 727:Drivers/lvgl/src/widgets/lv_textarea.c **** 
 728:Drivers/lvgl/src/widgets/lv_textarea.c **** void lv_textarea_cursor_right(lv_obj_t * obj)
 729:Drivers/lvgl/src/widgets/lv_textarea.c **** {
 730:Drivers/lvgl/src/widgets/lv_textarea.c ****     LV_ASSERT_OBJ(obj, MY_CLASS);
 731:Drivers/lvgl/src/widgets/lv_textarea.c **** 
 732:Drivers/lvgl/src/widgets/lv_textarea.c ****     uint32_t cp = lv_textarea_get_cursor_pos(obj);
 733:Drivers/lvgl/src/widgets/lv_textarea.c ****     cp++;
 734:Drivers/lvgl/src/widgets/lv_textarea.c ****     lv_textarea_set_cursor_pos(obj, cp);
 735:Drivers/lvgl/src/widgets/lv_textarea.c **** }
 736:Drivers/lvgl/src/widgets/lv_textarea.c **** 
 737:Drivers/lvgl/src/widgets/lv_textarea.c **** void lv_textarea_cursor_left(lv_obj_t * obj)
 738:Drivers/lvgl/src/widgets/lv_textarea.c **** {
 739:Drivers/lvgl/src/widgets/lv_textarea.c ****     LV_ASSERT_OBJ(obj, MY_CLASS);
 740:Drivers/lvgl/src/widgets/lv_textarea.c **** 
 741:Drivers/lvgl/src/widgets/lv_textarea.c ****     uint32_t cp = lv_textarea_get_cursor_pos(obj);
 742:Drivers/lvgl/src/widgets/lv_textarea.c ****     if(cp > 0) {
 743:Drivers/lvgl/src/widgets/lv_textarea.c ****         cp--;
 744:Drivers/lvgl/src/widgets/lv_textarea.c ****         lv_textarea_set_cursor_pos(obj, cp);
 745:Drivers/lvgl/src/widgets/lv_textarea.c ****     }
 746:Drivers/lvgl/src/widgets/lv_textarea.c **** }
 747:Drivers/lvgl/src/widgets/lv_textarea.c **** 
 748:Drivers/lvgl/src/widgets/lv_textarea.c **** void lv_textarea_cursor_down(lv_obj_t * obj)
 749:Drivers/lvgl/src/widgets/lv_textarea.c **** {
 750:Drivers/lvgl/src/widgets/lv_textarea.c ****     LV_ASSERT_OBJ(obj, MY_CLASS);
 751:Drivers/lvgl/src/widgets/lv_textarea.c **** 
 752:Drivers/lvgl/src/widgets/lv_textarea.c ****     lv_textarea_t * ta = (lv_textarea_t *)obj;
 753:Drivers/lvgl/src/widgets/lv_textarea.c ****     lv_point_t pos;
 754:Drivers/lvgl/src/widgets/lv_textarea.c **** 
 755:Drivers/lvgl/src/widgets/lv_textarea.c ****     /*Get the position of the current letter*/
 756:Drivers/lvgl/src/widgets/lv_textarea.c ****     lv_label_get_letter_pos(ta->label, lv_textarea_get_cursor_pos(obj), &pos);
 757:Drivers/lvgl/src/widgets/lv_textarea.c **** 
 758:Drivers/lvgl/src/widgets/lv_textarea.c ****     /*Increment the y with one line and keep the valid x*/
 759:Drivers/lvgl/src/widgets/lv_textarea.c **** 
 760:Drivers/lvgl/src/widgets/lv_textarea.c ****     lv_coord_t line_space = lv_obj_get_style_text_line_space(obj, LV_PART_MAIN);
 761:Drivers/lvgl/src/widgets/lv_textarea.c ****     const lv_font_t * font = lv_obj_get_style_text_font(obj, LV_PART_MAIN);
 762:Drivers/lvgl/src/widgets/lv_textarea.c ****     lv_coord_t font_h              = lv_font_get_line_height(font);
 763:Drivers/lvgl/src/widgets/lv_textarea.c ****     pos.y += font_h + line_space + 1;
 764:Drivers/lvgl/src/widgets/lv_textarea.c ****     pos.x = ta->cursor.valid_x;
 765:Drivers/lvgl/src/widgets/lv_textarea.c **** 
 766:Drivers/lvgl/src/widgets/lv_textarea.c ****     /*Do not go below the last line*/
 767:Drivers/lvgl/src/widgets/lv_textarea.c ****     if(pos.y < lv_obj_get_height(ta->label)) {
 768:Drivers/lvgl/src/widgets/lv_textarea.c ****         /*Get the letter index on the new cursor position and set it*/
 769:Drivers/lvgl/src/widgets/lv_textarea.c ****         uint32_t new_cur_pos = lv_label_get_letter_on(ta->label, &pos);
 770:Drivers/lvgl/src/widgets/lv_textarea.c **** 
 771:Drivers/lvgl/src/widgets/lv_textarea.c ****         lv_coord_t cur_valid_x_tmp = ta->cursor.valid_x; /*Cursor position set overwrites the valid
ARM GAS  /var/folders/0z/tsy30v1j4xl4_7kw94k978ww0000gn/T//ccHqi1ZK.s 			page 15


 772:Drivers/lvgl/src/widgets/lv_textarea.c ****         lv_textarea_set_cursor_pos(obj, new_cur_pos);
 773:Drivers/lvgl/src/widgets/lv_textarea.c ****         ta->cursor.valid_x = cur_valid_x_tmp;
 774:Drivers/lvgl/src/widgets/lv_textarea.c ****     }
 775:Drivers/lvgl/src/widgets/lv_textarea.c **** }
 776:Drivers/lvgl/src/widgets/lv_textarea.c **** 
 777:Drivers/lvgl/src/widgets/lv_textarea.c **** void lv_textarea_cursor_up(lv_obj_t * obj)
 778:Drivers/lvgl/src/widgets/lv_textarea.c **** {
 779:Drivers/lvgl/src/widgets/lv_textarea.c ****     LV_ASSERT_OBJ(obj, MY_CLASS);
 780:Drivers/lvgl/src/widgets/lv_textarea.c **** 
 781:Drivers/lvgl/src/widgets/lv_textarea.c ****     lv_textarea_t * ta = (lv_textarea_t *)obj;
 782:Drivers/lvgl/src/widgets/lv_textarea.c ****     lv_point_t pos;
 783:Drivers/lvgl/src/widgets/lv_textarea.c **** 
 784:Drivers/lvgl/src/widgets/lv_textarea.c ****     /*Get the position of the current letter*/
 785:Drivers/lvgl/src/widgets/lv_textarea.c ****     lv_label_get_letter_pos(ta->label, lv_textarea_get_cursor_pos(obj), &pos);
 786:Drivers/lvgl/src/widgets/lv_textarea.c **** 
 787:Drivers/lvgl/src/widgets/lv_textarea.c ****     /*Decrement the y with one line and keep the valid x*/
 788:Drivers/lvgl/src/widgets/lv_textarea.c ****     lv_coord_t line_space = lv_obj_get_style_text_line_space(obj, LV_PART_MAIN);
 789:Drivers/lvgl/src/widgets/lv_textarea.c ****     const lv_font_t * font = lv_obj_get_style_text_font(obj, LV_PART_MAIN);
 790:Drivers/lvgl/src/widgets/lv_textarea.c ****     lv_coord_t font_h              = lv_font_get_line_height(font);
 791:Drivers/lvgl/src/widgets/lv_textarea.c ****     pos.y -= font_h + line_space - 1;
 792:Drivers/lvgl/src/widgets/lv_textarea.c ****     pos.x = ta->cursor.valid_x;
 793:Drivers/lvgl/src/widgets/lv_textarea.c **** 
 794:Drivers/lvgl/src/widgets/lv_textarea.c ****     /*Get the letter index on the new cursor position and set it*/
 795:Drivers/lvgl/src/widgets/lv_textarea.c ****     uint32_t new_cur_pos       = lv_label_get_letter_on(ta->label, &pos);
 796:Drivers/lvgl/src/widgets/lv_textarea.c ****     lv_coord_t cur_valid_x_tmp = ta->cursor.valid_x; /*Cursor position set overwrites the valid pos
 797:Drivers/lvgl/src/widgets/lv_textarea.c ****     lv_textarea_set_cursor_pos(obj, new_cur_pos);
 798:Drivers/lvgl/src/widgets/lv_textarea.c ****     ta->cursor.valid_x = cur_valid_x_tmp;
 799:Drivers/lvgl/src/widgets/lv_textarea.c **** }
 800:Drivers/lvgl/src/widgets/lv_textarea.c **** 
 801:Drivers/lvgl/src/widgets/lv_textarea.c **** /**********************
 802:Drivers/lvgl/src/widgets/lv_textarea.c ****  *   STATIC FUNCTIONS
 803:Drivers/lvgl/src/widgets/lv_textarea.c ****  **********************/
 804:Drivers/lvgl/src/widgets/lv_textarea.c **** 
 805:Drivers/lvgl/src/widgets/lv_textarea.c **** static void lv_textarea_constructor(const lv_obj_class_t * class_p, lv_obj_t * obj)
 806:Drivers/lvgl/src/widgets/lv_textarea.c **** {
 807:Drivers/lvgl/src/widgets/lv_textarea.c ****     LV_UNUSED(class_p);
 808:Drivers/lvgl/src/widgets/lv_textarea.c ****     LV_TRACE_OBJ_CREATE("begin");
 809:Drivers/lvgl/src/widgets/lv_textarea.c **** 
 810:Drivers/lvgl/src/widgets/lv_textarea.c ****     lv_textarea_t * ta = (lv_textarea_t *)obj;
 811:Drivers/lvgl/src/widgets/lv_textarea.c **** 
 812:Drivers/lvgl/src/widgets/lv_textarea.c ****     ta->pwd_mode          = 0;
 813:Drivers/lvgl/src/widgets/lv_textarea.c ****     ta->pwd_tmp           = NULL;
 814:Drivers/lvgl/src/widgets/lv_textarea.c ****     ta->pwd_bullet        = NULL;
 815:Drivers/lvgl/src/widgets/lv_textarea.c ****     ta->pwd_show_time     = LV_TEXTAREA_DEF_PWD_SHOW_TIME;
 816:Drivers/lvgl/src/widgets/lv_textarea.c ****     ta->accepted_chars    = NULL;
 817:Drivers/lvgl/src/widgets/lv_textarea.c ****     ta->max_length        = 0;
 818:Drivers/lvgl/src/widgets/lv_textarea.c ****     ta->cursor.show      = 1;
 819:Drivers/lvgl/src/widgets/lv_textarea.c ****     /*It will be set to zero later (with zero value lv_textarea_set_cursor_pos(obj, 0); wouldn't do
 820:Drivers/lvgl/src/widgets/lv_textarea.c ****     ta->cursor.pos        = 1;
 821:Drivers/lvgl/src/widgets/lv_textarea.c ****     ta->cursor.click_pos  = 1;
 822:Drivers/lvgl/src/widgets/lv_textarea.c ****     ta->cursor.valid_x    = 0;
 823:Drivers/lvgl/src/widgets/lv_textarea.c ****     ta->one_line          = 0;
 824:Drivers/lvgl/src/widgets/lv_textarea.c **** #if LV_LABEL_TEXT_SELECTION
 825:Drivers/lvgl/src/widgets/lv_textarea.c ****     ta->text_sel_en = 0;
 826:Drivers/lvgl/src/widgets/lv_textarea.c **** #endif
 827:Drivers/lvgl/src/widgets/lv_textarea.c ****     ta->label       = NULL;
 828:Drivers/lvgl/src/widgets/lv_textarea.c ****     ta->placeholder_txt = NULL;
ARM GAS  /var/folders/0z/tsy30v1j4xl4_7kw94k978ww0000gn/T//ccHqi1ZK.s 			page 16


 829:Drivers/lvgl/src/widgets/lv_textarea.c **** 
 830:Drivers/lvgl/src/widgets/lv_textarea.c ****     ta->label = lv_label_create(obj);
 831:Drivers/lvgl/src/widgets/lv_textarea.c ****     lv_obj_set_width(ta->label, lv_pct(100));
 832:Drivers/lvgl/src/widgets/lv_textarea.c ****     lv_label_set_text(ta->label, "");
 833:Drivers/lvgl/src/widgets/lv_textarea.c ****     lv_obj_add_event_cb(ta->label, label_event_cb, LV_EVENT_ALL, NULL);
 834:Drivers/lvgl/src/widgets/lv_textarea.c ****     lv_obj_add_flag(obj, LV_OBJ_FLAG_SCROLL_ON_FOCUS);
 835:Drivers/lvgl/src/widgets/lv_textarea.c ****     lv_textarea_set_cursor_pos(obj, 0);
 836:Drivers/lvgl/src/widgets/lv_textarea.c **** 
 837:Drivers/lvgl/src/widgets/lv_textarea.c ****     start_cursor_blink(obj);
 838:Drivers/lvgl/src/widgets/lv_textarea.c **** 
 839:Drivers/lvgl/src/widgets/lv_textarea.c ****     LV_TRACE_OBJ_CREATE("finished");
 840:Drivers/lvgl/src/widgets/lv_textarea.c **** }
 841:Drivers/lvgl/src/widgets/lv_textarea.c **** 
 842:Drivers/lvgl/src/widgets/lv_textarea.c **** static void lv_textarea_destructor(const lv_obj_class_t * class_p, lv_obj_t * obj)
 843:Drivers/lvgl/src/widgets/lv_textarea.c **** {
 844:Drivers/lvgl/src/widgets/lv_textarea.c ****     LV_UNUSED(class_p);
 845:Drivers/lvgl/src/widgets/lv_textarea.c **** 
 846:Drivers/lvgl/src/widgets/lv_textarea.c ****     lv_textarea_t * ta = (lv_textarea_t *)obj;
 847:Drivers/lvgl/src/widgets/lv_textarea.c ****     if(ta->pwd_tmp != NULL) {
 848:Drivers/lvgl/src/widgets/lv_textarea.c ****         lv_mem_free(ta->pwd_tmp);
 849:Drivers/lvgl/src/widgets/lv_textarea.c ****         ta->pwd_tmp = NULL;
 850:Drivers/lvgl/src/widgets/lv_textarea.c ****     }
 851:Drivers/lvgl/src/widgets/lv_textarea.c ****     if(ta->pwd_bullet != NULL) {
 852:Drivers/lvgl/src/widgets/lv_textarea.c ****         lv_mem_free(ta->pwd_bullet);
 853:Drivers/lvgl/src/widgets/lv_textarea.c ****         ta->pwd_bullet = NULL;
 854:Drivers/lvgl/src/widgets/lv_textarea.c ****     }
 855:Drivers/lvgl/src/widgets/lv_textarea.c ****     if(ta->placeholder_txt != NULL) {
 856:Drivers/lvgl/src/widgets/lv_textarea.c ****         lv_mem_free(ta->placeholder_txt);
 857:Drivers/lvgl/src/widgets/lv_textarea.c ****         ta->placeholder_txt = NULL;
 858:Drivers/lvgl/src/widgets/lv_textarea.c ****     }
 859:Drivers/lvgl/src/widgets/lv_textarea.c **** }
 860:Drivers/lvgl/src/widgets/lv_textarea.c **** 
 861:Drivers/lvgl/src/widgets/lv_textarea.c **** static void lv_textarea_event(const lv_obj_class_t * class_p, lv_event_t * e)
 862:Drivers/lvgl/src/widgets/lv_textarea.c **** {
 863:Drivers/lvgl/src/widgets/lv_textarea.c ****     LV_UNUSED(class_p);
 864:Drivers/lvgl/src/widgets/lv_textarea.c **** 
 865:Drivers/lvgl/src/widgets/lv_textarea.c ****     lv_res_t res;
 866:Drivers/lvgl/src/widgets/lv_textarea.c ****     /*Call the ancestor's event handler*/
 867:Drivers/lvgl/src/widgets/lv_textarea.c ****     res = lv_obj_event_base(MY_CLASS, e);
 868:Drivers/lvgl/src/widgets/lv_textarea.c ****     if(res != LV_RES_OK) return;
 869:Drivers/lvgl/src/widgets/lv_textarea.c **** 
 870:Drivers/lvgl/src/widgets/lv_textarea.c ****     lv_event_code_t code = lv_event_get_code(e);
 871:Drivers/lvgl/src/widgets/lv_textarea.c ****     lv_obj_t * obj = lv_event_get_target(e);
 872:Drivers/lvgl/src/widgets/lv_textarea.c **** 
 873:Drivers/lvgl/src/widgets/lv_textarea.c ****     if(code == LV_EVENT_FOCUSED) {
 874:Drivers/lvgl/src/widgets/lv_textarea.c ****         start_cursor_blink(obj);
 875:Drivers/lvgl/src/widgets/lv_textarea.c ****     }
 876:Drivers/lvgl/src/widgets/lv_textarea.c ****     else if(code == LV_EVENT_KEY) {
 877:Drivers/lvgl/src/widgets/lv_textarea.c ****         uint32_t c = *((uint32_t *)lv_event_get_param(e)); /*uint32_t because can be UTF-8*/
 878:Drivers/lvgl/src/widgets/lv_textarea.c ****         if(c == LV_KEY_RIGHT)
 879:Drivers/lvgl/src/widgets/lv_textarea.c ****             lv_textarea_cursor_right(obj);
 880:Drivers/lvgl/src/widgets/lv_textarea.c ****         else if(c == LV_KEY_LEFT)
 881:Drivers/lvgl/src/widgets/lv_textarea.c ****             lv_textarea_cursor_left(obj);
 882:Drivers/lvgl/src/widgets/lv_textarea.c ****         else if(c == LV_KEY_UP)
 883:Drivers/lvgl/src/widgets/lv_textarea.c ****             lv_textarea_cursor_up(obj);
 884:Drivers/lvgl/src/widgets/lv_textarea.c ****         else if(c == LV_KEY_DOWN)
 885:Drivers/lvgl/src/widgets/lv_textarea.c ****             lv_textarea_cursor_down(obj);
ARM GAS  /var/folders/0z/tsy30v1j4xl4_7kw94k978ww0000gn/T//ccHqi1ZK.s 			page 17


 886:Drivers/lvgl/src/widgets/lv_textarea.c ****         else if(c == LV_KEY_BACKSPACE)
 887:Drivers/lvgl/src/widgets/lv_textarea.c ****             lv_textarea_del_char(obj);
 888:Drivers/lvgl/src/widgets/lv_textarea.c ****         else if(c == LV_KEY_DEL)
 889:Drivers/lvgl/src/widgets/lv_textarea.c ****             lv_textarea_del_char_forward(obj);
 890:Drivers/lvgl/src/widgets/lv_textarea.c ****         else if(c == LV_KEY_HOME)
 891:Drivers/lvgl/src/widgets/lv_textarea.c ****             lv_textarea_set_cursor_pos(obj, 0);
 892:Drivers/lvgl/src/widgets/lv_textarea.c ****         else if(c == LV_KEY_END)
 893:Drivers/lvgl/src/widgets/lv_textarea.c ****             lv_textarea_set_cursor_pos(obj, LV_TEXTAREA_CURSOR_LAST);
 894:Drivers/lvgl/src/widgets/lv_textarea.c ****         else if(c == LV_KEY_ENTER && lv_textarea_get_one_line(obj))
 895:Drivers/lvgl/src/widgets/lv_textarea.c ****             lv_event_send(obj, LV_EVENT_READY, NULL);
 896:Drivers/lvgl/src/widgets/lv_textarea.c ****         else {
 897:Drivers/lvgl/src/widgets/lv_textarea.c ****             lv_textarea_add_char(obj, c);
 898:Drivers/lvgl/src/widgets/lv_textarea.c ****         }
 899:Drivers/lvgl/src/widgets/lv_textarea.c ****     }
 900:Drivers/lvgl/src/widgets/lv_textarea.c ****     else if(code == LV_EVENT_PRESSED || code == LV_EVENT_PRESSING || code == LV_EVENT_PRESS_LOST ||
 901:Drivers/lvgl/src/widgets/lv_textarea.c ****             code == LV_EVENT_RELEASED) {
 902:Drivers/lvgl/src/widgets/lv_textarea.c ****         update_cursor_position_on_click(e);
 903:Drivers/lvgl/src/widgets/lv_textarea.c ****     }
 904:Drivers/lvgl/src/widgets/lv_textarea.c ****     else if(code == LV_EVENT_DRAW_MAIN) {
 905:Drivers/lvgl/src/widgets/lv_textarea.c ****         draw_placeholder(e);
 906:Drivers/lvgl/src/widgets/lv_textarea.c ****     }
 907:Drivers/lvgl/src/widgets/lv_textarea.c ****     else if(code == LV_EVENT_DRAW_POST) {
 908:Drivers/lvgl/src/widgets/lv_textarea.c ****         draw_cursor(e);
 909:Drivers/lvgl/src/widgets/lv_textarea.c ****     }
 910:Drivers/lvgl/src/widgets/lv_textarea.c **** }
 911:Drivers/lvgl/src/widgets/lv_textarea.c **** 
 912:Drivers/lvgl/src/widgets/lv_textarea.c **** static void label_event_cb(lv_event_t * e)
 913:Drivers/lvgl/src/widgets/lv_textarea.c **** {
 914:Drivers/lvgl/src/widgets/lv_textarea.c ****     lv_event_code_t code = lv_event_get_code(e);
 915:Drivers/lvgl/src/widgets/lv_textarea.c ****     lv_obj_t * label = lv_event_get_target(e);
 916:Drivers/lvgl/src/widgets/lv_textarea.c ****     lv_obj_t * ta = lv_obj_get_parent(label);
 917:Drivers/lvgl/src/widgets/lv_textarea.c **** 
 918:Drivers/lvgl/src/widgets/lv_textarea.c ****     if(code == LV_EVENT_STYLE_CHANGED || code == LV_EVENT_SIZE_CHANGED) {
 919:Drivers/lvgl/src/widgets/lv_textarea.c ****         lv_label_set_text(label, NULL);
 920:Drivers/lvgl/src/widgets/lv_textarea.c ****         refr_cursor_area(ta);
 921:Drivers/lvgl/src/widgets/lv_textarea.c ****         start_cursor_blink(ta);
 922:Drivers/lvgl/src/widgets/lv_textarea.c ****     }
 923:Drivers/lvgl/src/widgets/lv_textarea.c **** }
 924:Drivers/lvgl/src/widgets/lv_textarea.c **** 
 925:Drivers/lvgl/src/widgets/lv_textarea.c **** 
 926:Drivers/lvgl/src/widgets/lv_textarea.c **** 
 927:Drivers/lvgl/src/widgets/lv_textarea.c **** /**
 928:Drivers/lvgl/src/widgets/lv_textarea.c ****  * Called to blink the cursor
 929:Drivers/lvgl/src/widgets/lv_textarea.c ****  * @param ta pointer to a text area
 930:Drivers/lvgl/src/widgets/lv_textarea.c ****  * @param hide 1: hide the cursor, 0: show it
 931:Drivers/lvgl/src/widgets/lv_textarea.c ****  */
 932:Drivers/lvgl/src/widgets/lv_textarea.c **** static void cursor_blink_anim_cb(void * obj, int32_t show)
 933:Drivers/lvgl/src/widgets/lv_textarea.c **** {
 934:Drivers/lvgl/src/widgets/lv_textarea.c ****     lv_textarea_t * ta = (lv_textarea_t *)obj;
 935:Drivers/lvgl/src/widgets/lv_textarea.c ****     if(show != ta->cursor.show) {
 936:Drivers/lvgl/src/widgets/lv_textarea.c ****         ta->cursor.show = show ? 1U : 0U;
 937:Drivers/lvgl/src/widgets/lv_textarea.c ****         lv_area_t area_tmp;
 938:Drivers/lvgl/src/widgets/lv_textarea.c ****         lv_area_copy(&area_tmp, &ta->cursor.area);
 939:Drivers/lvgl/src/widgets/lv_textarea.c ****         area_tmp.x1 += ta->label->coords.x1;
 940:Drivers/lvgl/src/widgets/lv_textarea.c ****         area_tmp.y1 += ta->label->coords.y1;
 941:Drivers/lvgl/src/widgets/lv_textarea.c ****         area_tmp.x2 += ta->label->coords.x1;
 942:Drivers/lvgl/src/widgets/lv_textarea.c ****         area_tmp.y2 += ta->label->coords.y1;
ARM GAS  /var/folders/0z/tsy30v1j4xl4_7kw94k978ww0000gn/T//ccHqi1ZK.s 			page 18


 943:Drivers/lvgl/src/widgets/lv_textarea.c ****         lv_obj_invalidate_area(obj, &area_tmp);
 944:Drivers/lvgl/src/widgets/lv_textarea.c ****     }
 945:Drivers/lvgl/src/widgets/lv_textarea.c **** }
 946:Drivers/lvgl/src/widgets/lv_textarea.c **** 
 947:Drivers/lvgl/src/widgets/lv_textarea.c **** /**
 948:Drivers/lvgl/src/widgets/lv_textarea.c ****  * Dummy function to animate char hiding in pwd mode.
 949:Drivers/lvgl/src/widgets/lv_textarea.c ****  * Does nothing, but a function is required in car hiding anim.
 950:Drivers/lvgl/src/widgets/lv_textarea.c ****  * (pwd_char_hider callback do the real job)
 951:Drivers/lvgl/src/widgets/lv_textarea.c ****  * @param ta unused
 952:Drivers/lvgl/src/widgets/lv_textarea.c ****  * @param x unused
 953:Drivers/lvgl/src/widgets/lv_textarea.c ****  */
 954:Drivers/lvgl/src/widgets/lv_textarea.c **** static void pwd_char_hider_anim(void * obj, int32_t x)
 955:Drivers/lvgl/src/widgets/lv_textarea.c **** {
  29              		.loc 1 955 1 view -0
  30              		.cfi_startproc
  31              		@ args = 0, pretend = 0, frame = 0
  32              		@ frame_needed = 0, uses_anonymous_args = 0
  33              		@ link register save eliminated.
 956:Drivers/lvgl/src/widgets/lv_textarea.c ****     LV_UNUSED(obj);
  34              		.loc 1 956 5 view .LVU1
 957:Drivers/lvgl/src/widgets/lv_textarea.c ****     LV_UNUSED(x);
  35              		.loc 1 957 5 view .LVU2
 958:Drivers/lvgl/src/widgets/lv_textarea.c **** }
  36              		.loc 1 958 1 is_stmt 0 view .LVU3
  37 0000 7047     		bx	lr
  38              		.cfi_endproc
  39              	.LFE202:
  41              		.section	.text.cursor_blink_anim_cb,"ax",%progbits
  42              		.align	1
  43              		.syntax unified
  44              		.thumb
  45              		.thumb_func
  47              	cursor_blink_anim_cb:
  48              	.LVL1:
  49              	.LFB201:
 933:Drivers/lvgl/src/widgets/lv_textarea.c ****     lv_textarea_t * ta = (lv_textarea_t *)obj;
  50              		.loc 1 933 1 is_stmt 1 view -0
  51              		.cfi_startproc
  52              		@ args = 0, pretend = 0, frame = 8
  53              		@ frame_needed = 0, uses_anonymous_args = 0
 934:Drivers/lvgl/src/widgets/lv_textarea.c ****     if(show != ta->cursor.show) {
  54              		.loc 1 934 5 view .LVU5
 935:Drivers/lvgl/src/widgets/lv_textarea.c ****         ta->cursor.show = show ? 1U : 0U;
  55              		.loc 1 935 5 view .LVU6
 935:Drivers/lvgl/src/widgets/lv_textarea.c ****         ta->cursor.show = show ? 1U : 0U;
  56              		.loc 1 935 26 is_stmt 0 view .LVU7
  57 0000 90F85430 		ldrb	r3, [r0, #84]	@ zero_extendqisi2
  58 0004 03F00103 		and	r3, r3, #1
 935:Drivers/lvgl/src/widgets/lv_textarea.c ****         ta->cursor.show = show ? 1U : 0U;
  59              		.loc 1 935 7 view .LVU8
  60 0008 8B42     		cmp	r3, r1
  61 000a 2FD0     		beq	.L7
 933:Drivers/lvgl/src/widgets/lv_textarea.c ****     lv_textarea_t * ta = (lv_textarea_t *)obj;
  62              		.loc 1 933 1 view .LVU9
  63 000c 10B5     		push	{r4, lr}
  64              		.cfi_def_cfa_offset 8
  65              		.cfi_offset 4, -8
ARM GAS  /var/folders/0z/tsy30v1j4xl4_7kw94k978ww0000gn/T//ccHqi1ZK.s 			page 19


  66              		.cfi_offset 14, -4
  67 000e 82B0     		sub	sp, sp, #8
  68              		.cfi_def_cfa_offset 16
  69              	.LBB106:
 936:Drivers/lvgl/src/widgets/lv_textarea.c ****         lv_area_t area_tmp;
  70              		.loc 1 936 9 is_stmt 1 view .LVU10
 936:Drivers/lvgl/src/widgets/lv_textarea.c ****         lv_area_t area_tmp;
  71              		.loc 1 936 37 is_stmt 0 view .LVU11
  72 0010 51B3     		cbz	r1, .L5
  73 0012 0122     		movs	r2, #1
  74              	.L4:
 936:Drivers/lvgl/src/widgets/lv_textarea.c ****         lv_area_t area_tmp;
  75              		.loc 1 936 25 discriminator 4 view .LVU12
  76 0014 90F85430 		ldrb	r3, [r0, #84]	@ zero_extendqisi2
  77 0018 62F30003 		bfi	r3, r2, #0, #1
  78 001c 80F85430 		strb	r3, [r0, #84]
 937:Drivers/lvgl/src/widgets/lv_textarea.c ****         lv_area_copy(&area_tmp, &ta->cursor.area);
  79              		.loc 1 937 9 is_stmt 1 discriminator 4 view .LVU13
 938:Drivers/lvgl/src/widgets/lv_textarea.c ****         area_tmp.x1 += ta->label->coords.x1;
  80              		.loc 1 938 9 discriminator 4 view .LVU14
  81              	.LVL2:
  82              	.LBB107:
  83              	.LBI107:
  84              		.file 2 "Drivers/lvgl/src/widgets/../core/../misc/../font/../misc/lv_area.h"
   1:Drivers/lvgl/src/widgets/../core/../misc/../font/../misc/lv_area.h **** /**
   2:Drivers/lvgl/src/widgets/../core/../misc/../font/../misc/lv_area.h ****  * @file lv_area.h
   3:Drivers/lvgl/src/widgets/../core/../misc/../font/../misc/lv_area.h ****  *
   4:Drivers/lvgl/src/widgets/../core/../misc/../font/../misc/lv_area.h ****  */
   5:Drivers/lvgl/src/widgets/../core/../misc/../font/../misc/lv_area.h **** 
   6:Drivers/lvgl/src/widgets/../core/../misc/../font/../misc/lv_area.h **** #ifndef LV_AREA_H
   7:Drivers/lvgl/src/widgets/../core/../misc/../font/../misc/lv_area.h **** #define LV_AREA_H
   8:Drivers/lvgl/src/widgets/../core/../misc/../font/../misc/lv_area.h **** 
   9:Drivers/lvgl/src/widgets/../core/../misc/../font/../misc/lv_area.h **** #ifdef __cplusplus
  10:Drivers/lvgl/src/widgets/../core/../misc/../font/../misc/lv_area.h **** extern "C" {
  11:Drivers/lvgl/src/widgets/../core/../misc/../font/../misc/lv_area.h **** #endif
  12:Drivers/lvgl/src/widgets/../core/../misc/../font/../misc/lv_area.h **** 
  13:Drivers/lvgl/src/widgets/../core/../misc/../font/../misc/lv_area.h **** /*********************
  14:Drivers/lvgl/src/widgets/../core/../misc/../font/../misc/lv_area.h ****  *      INCLUDES
  15:Drivers/lvgl/src/widgets/../core/../misc/../font/../misc/lv_area.h ****  *********************/
  16:Drivers/lvgl/src/widgets/../core/../misc/../font/../misc/lv_area.h **** #include "../lv_conf_internal.h"
  17:Drivers/lvgl/src/widgets/../core/../misc/../font/../misc/lv_area.h **** #include <stdbool.h>
  18:Drivers/lvgl/src/widgets/../core/../misc/../font/../misc/lv_area.h **** #include <stdint.h>
  19:Drivers/lvgl/src/widgets/../core/../misc/../font/../misc/lv_area.h **** 
  20:Drivers/lvgl/src/widgets/../core/../misc/../font/../misc/lv_area.h **** /*********************
  21:Drivers/lvgl/src/widgets/../core/../misc/../font/../misc/lv_area.h ****  *      DEFINES
  22:Drivers/lvgl/src/widgets/../core/../misc/../font/../misc/lv_area.h ****  *********************/
  23:Drivers/lvgl/src/widgets/../core/../misc/../font/../misc/lv_area.h **** 
  24:Drivers/lvgl/src/widgets/../core/../misc/../font/../misc/lv_area.h **** #if LV_USE_LARGE_COORD
  25:Drivers/lvgl/src/widgets/../core/../misc/../font/../misc/lv_area.h **** typedef int32_t lv_coord_t;
  26:Drivers/lvgl/src/widgets/../core/../misc/../font/../misc/lv_area.h **** #else
  27:Drivers/lvgl/src/widgets/../core/../misc/../font/../misc/lv_area.h **** typedef int16_t lv_coord_t;
  28:Drivers/lvgl/src/widgets/../core/../misc/../font/../misc/lv_area.h **** #endif
  29:Drivers/lvgl/src/widgets/../core/../misc/../font/../misc/lv_area.h **** 
  30:Drivers/lvgl/src/widgets/../core/../misc/../font/../misc/lv_area.h **** /**********************
  31:Drivers/lvgl/src/widgets/../core/../misc/../font/../misc/lv_area.h ****  *      TYPEDEFS
  32:Drivers/lvgl/src/widgets/../core/../misc/../font/../misc/lv_area.h ****  **********************/
  33:Drivers/lvgl/src/widgets/../core/../misc/../font/../misc/lv_area.h **** 
ARM GAS  /var/folders/0z/tsy30v1j4xl4_7kw94k978ww0000gn/T//ccHqi1ZK.s 			page 20


  34:Drivers/lvgl/src/widgets/../core/../misc/../font/../misc/lv_area.h **** /**
  35:Drivers/lvgl/src/widgets/../core/../misc/../font/../misc/lv_area.h ****  * Represents a point on the screen.
  36:Drivers/lvgl/src/widgets/../core/../misc/../font/../misc/lv_area.h ****  */
  37:Drivers/lvgl/src/widgets/../core/../misc/../font/../misc/lv_area.h **** typedef struct {
  38:Drivers/lvgl/src/widgets/../core/../misc/../font/../misc/lv_area.h ****     lv_coord_t x;
  39:Drivers/lvgl/src/widgets/../core/../misc/../font/../misc/lv_area.h ****     lv_coord_t y;
  40:Drivers/lvgl/src/widgets/../core/../misc/../font/../misc/lv_area.h **** } lv_point_t;
  41:Drivers/lvgl/src/widgets/../core/../misc/../font/../misc/lv_area.h **** 
  42:Drivers/lvgl/src/widgets/../core/../misc/../font/../misc/lv_area.h **** /** Represents an area of the screen.*/
  43:Drivers/lvgl/src/widgets/../core/../misc/../font/../misc/lv_area.h **** typedef struct {
  44:Drivers/lvgl/src/widgets/../core/../misc/../font/../misc/lv_area.h ****     lv_coord_t x1;
  45:Drivers/lvgl/src/widgets/../core/../misc/../font/../misc/lv_area.h ****     lv_coord_t y1;
  46:Drivers/lvgl/src/widgets/../core/../misc/../font/../misc/lv_area.h ****     lv_coord_t x2;
  47:Drivers/lvgl/src/widgets/../core/../misc/../font/../misc/lv_area.h ****     lv_coord_t y2;
  48:Drivers/lvgl/src/widgets/../core/../misc/../font/../misc/lv_area.h **** } lv_area_t;
  49:Drivers/lvgl/src/widgets/../core/../misc/../font/../misc/lv_area.h **** 
  50:Drivers/lvgl/src/widgets/../core/../misc/../font/../misc/lv_area.h **** /** Alignments*/
  51:Drivers/lvgl/src/widgets/../core/../misc/../font/../misc/lv_area.h **** enum {
  52:Drivers/lvgl/src/widgets/../core/../misc/../font/../misc/lv_area.h ****     LV_ALIGN_DEFAULT = 0,
  53:Drivers/lvgl/src/widgets/../core/../misc/../font/../misc/lv_area.h ****     LV_ALIGN_TOP_LEFT,
  54:Drivers/lvgl/src/widgets/../core/../misc/../font/../misc/lv_area.h ****     LV_ALIGN_TOP_MID,
  55:Drivers/lvgl/src/widgets/../core/../misc/../font/../misc/lv_area.h ****     LV_ALIGN_TOP_RIGHT,
  56:Drivers/lvgl/src/widgets/../core/../misc/../font/../misc/lv_area.h ****     LV_ALIGN_BOTTOM_LEFT,
  57:Drivers/lvgl/src/widgets/../core/../misc/../font/../misc/lv_area.h ****     LV_ALIGN_BOTTOM_MID,
  58:Drivers/lvgl/src/widgets/../core/../misc/../font/../misc/lv_area.h ****     LV_ALIGN_BOTTOM_RIGHT,
  59:Drivers/lvgl/src/widgets/../core/../misc/../font/../misc/lv_area.h ****     LV_ALIGN_LEFT_MID,
  60:Drivers/lvgl/src/widgets/../core/../misc/../font/../misc/lv_area.h ****     LV_ALIGN_RIGHT_MID,
  61:Drivers/lvgl/src/widgets/../core/../misc/../font/../misc/lv_area.h ****     LV_ALIGN_CENTER,
  62:Drivers/lvgl/src/widgets/../core/../misc/../font/../misc/lv_area.h **** 
  63:Drivers/lvgl/src/widgets/../core/../misc/../font/../misc/lv_area.h ****     LV_ALIGN_OUT_TOP_LEFT,
  64:Drivers/lvgl/src/widgets/../core/../misc/../font/../misc/lv_area.h ****     LV_ALIGN_OUT_TOP_MID,
  65:Drivers/lvgl/src/widgets/../core/../misc/../font/../misc/lv_area.h ****     LV_ALIGN_OUT_TOP_RIGHT,
  66:Drivers/lvgl/src/widgets/../core/../misc/../font/../misc/lv_area.h ****     LV_ALIGN_OUT_BOTTOM_LEFT,
  67:Drivers/lvgl/src/widgets/../core/../misc/../font/../misc/lv_area.h ****     LV_ALIGN_OUT_BOTTOM_MID,
  68:Drivers/lvgl/src/widgets/../core/../misc/../font/../misc/lv_area.h ****     LV_ALIGN_OUT_BOTTOM_RIGHT,
  69:Drivers/lvgl/src/widgets/../core/../misc/../font/../misc/lv_area.h ****     LV_ALIGN_OUT_LEFT_TOP,
  70:Drivers/lvgl/src/widgets/../core/../misc/../font/../misc/lv_area.h ****     LV_ALIGN_OUT_LEFT_MID,
  71:Drivers/lvgl/src/widgets/../core/../misc/../font/../misc/lv_area.h ****     LV_ALIGN_OUT_LEFT_BOTTOM,
  72:Drivers/lvgl/src/widgets/../core/../misc/../font/../misc/lv_area.h ****     LV_ALIGN_OUT_RIGHT_TOP,
  73:Drivers/lvgl/src/widgets/../core/../misc/../font/../misc/lv_area.h ****     LV_ALIGN_OUT_RIGHT_MID,
  74:Drivers/lvgl/src/widgets/../core/../misc/../font/../misc/lv_area.h ****     LV_ALIGN_OUT_RIGHT_BOTTOM,
  75:Drivers/lvgl/src/widgets/../core/../misc/../font/../misc/lv_area.h **** };
  76:Drivers/lvgl/src/widgets/../core/../misc/../font/../misc/lv_area.h **** typedef uint8_t lv_align_t;
  77:Drivers/lvgl/src/widgets/../core/../misc/../font/../misc/lv_area.h **** 
  78:Drivers/lvgl/src/widgets/../core/../misc/../font/../misc/lv_area.h **** enum {
  79:Drivers/lvgl/src/widgets/../core/../misc/../font/../misc/lv_area.h ****     LV_DIR_NONE     = 0x00,
  80:Drivers/lvgl/src/widgets/../core/../misc/../font/../misc/lv_area.h ****     LV_DIR_LEFT     = (1 << 0),
  81:Drivers/lvgl/src/widgets/../core/../misc/../font/../misc/lv_area.h ****     LV_DIR_RIGHT    = (1 << 1),
  82:Drivers/lvgl/src/widgets/../core/../misc/../font/../misc/lv_area.h ****     LV_DIR_TOP      = (1 << 2),
  83:Drivers/lvgl/src/widgets/../core/../misc/../font/../misc/lv_area.h ****     LV_DIR_BOTTOM   = (1 << 3),
  84:Drivers/lvgl/src/widgets/../core/../misc/../font/../misc/lv_area.h ****     LV_DIR_HOR      = LV_DIR_LEFT | LV_DIR_RIGHT,
  85:Drivers/lvgl/src/widgets/../core/../misc/../font/../misc/lv_area.h ****     LV_DIR_VER      = LV_DIR_TOP | LV_DIR_BOTTOM,
  86:Drivers/lvgl/src/widgets/../core/../misc/../font/../misc/lv_area.h ****     LV_DIR_ALL      = LV_DIR_HOR | LV_DIR_VER,
  87:Drivers/lvgl/src/widgets/../core/../misc/../font/../misc/lv_area.h **** };
  88:Drivers/lvgl/src/widgets/../core/../misc/../font/../misc/lv_area.h **** 
  89:Drivers/lvgl/src/widgets/../core/../misc/../font/../misc/lv_area.h **** typedef uint8_t lv_dir_t;
  90:Drivers/lvgl/src/widgets/../core/../misc/../font/../misc/lv_area.h **** 
ARM GAS  /var/folders/0z/tsy30v1j4xl4_7kw94k978ww0000gn/T//ccHqi1ZK.s 			page 21


  91:Drivers/lvgl/src/widgets/../core/../misc/../font/../misc/lv_area.h **** /**********************
  92:Drivers/lvgl/src/widgets/../core/../misc/../font/../misc/lv_area.h ****  * GLOBAL PROTOTYPES
  93:Drivers/lvgl/src/widgets/../core/../misc/../font/../misc/lv_area.h ****  **********************/
  94:Drivers/lvgl/src/widgets/../core/../misc/../font/../misc/lv_area.h **** 
  95:Drivers/lvgl/src/widgets/../core/../misc/../font/../misc/lv_area.h **** /**
  96:Drivers/lvgl/src/widgets/../core/../misc/../font/../misc/lv_area.h ****  * Initialize an area
  97:Drivers/lvgl/src/widgets/../core/../misc/../font/../misc/lv_area.h ****  * @param area_p pointer to an area
  98:Drivers/lvgl/src/widgets/../core/../misc/../font/../misc/lv_area.h ****  * @param x1 left coordinate of the area
  99:Drivers/lvgl/src/widgets/../core/../misc/../font/../misc/lv_area.h ****  * @param y1 top coordinate of the area
 100:Drivers/lvgl/src/widgets/../core/../misc/../font/../misc/lv_area.h ****  * @param x2 right coordinate of the area
 101:Drivers/lvgl/src/widgets/../core/../misc/../font/../misc/lv_area.h ****  * @param y2 bottom coordinate of the area
 102:Drivers/lvgl/src/widgets/../core/../misc/../font/../misc/lv_area.h ****  */
 103:Drivers/lvgl/src/widgets/../core/../misc/../font/../misc/lv_area.h **** void lv_area_set(lv_area_t * area_p, lv_coord_t x1, lv_coord_t y1, lv_coord_t x2, lv_coord_t y2);
 104:Drivers/lvgl/src/widgets/../core/../misc/../font/../misc/lv_area.h **** 
 105:Drivers/lvgl/src/widgets/../core/../misc/../font/../misc/lv_area.h **** /**
 106:Drivers/lvgl/src/widgets/../core/../misc/../font/../misc/lv_area.h ****  * Copy an area
 107:Drivers/lvgl/src/widgets/../core/../misc/../font/../misc/lv_area.h ****  * @param dest pointer to the destination area
 108:Drivers/lvgl/src/widgets/../core/../misc/../font/../misc/lv_area.h ****  * @param src pointer to the source area
 109:Drivers/lvgl/src/widgets/../core/../misc/../font/../misc/lv_area.h ****  */
 110:Drivers/lvgl/src/widgets/../core/../misc/../font/../misc/lv_area.h **** inline static void lv_area_copy(lv_area_t * dest, const lv_area_t * src)
  85              		.loc 2 110 20 discriminator 4 view .LVU15
  86              	.LBB108:
 111:Drivers/lvgl/src/widgets/../core/../misc/../font/../misc/lv_area.h **** {
 112:Drivers/lvgl/src/widgets/../core/../misc/../font/../misc/lv_area.h ****     dest->x1 = src->x1;
  87              		.loc 2 112 5 discriminator 4 view .LVU16
  88              		.loc 2 112 19 is_stmt 0 discriminator 4 view .LVU17
  89 0020 B0F94830 		ldrsh	r3, [r0, #72]
  90              		.loc 2 112 14 discriminator 4 view .LVU18
  91 0024 ADF80030 		strh	r3, [sp]	@ movhi
 113:Drivers/lvgl/src/widgets/../core/../misc/../font/../misc/lv_area.h ****     dest->y1 = src->y1;
  92              		.loc 2 113 5 is_stmt 1 discriminator 4 view .LVU19
  93              		.loc 2 113 19 is_stmt 0 discriminator 4 view .LVU20
  94 0028 B0F94A10 		ldrsh	r1, [r0, #74]
  95              	.LVL3:
  96              		.loc 2 113 14 discriminator 4 view .LVU21
  97 002c ADF80210 		strh	r1, [sp, #2]	@ movhi
 114:Drivers/lvgl/src/widgets/../core/../misc/../font/../misc/lv_area.h ****     dest->x2 = src->x2;
  98              		.loc 2 114 5 is_stmt 1 discriminator 4 view .LVU22
  99              		.loc 2 114 19 is_stmt 0 discriminator 4 view .LVU23
 100 0030 B0F94CE0 		ldrsh	lr, [r0, #76]
 101              		.loc 2 114 14 discriminator 4 view .LVU24
 102 0034 ADF804E0 		strh	lr, [sp, #4]	@ movhi
 115:Drivers/lvgl/src/widgets/../core/../misc/../font/../misc/lv_area.h ****     dest->y2 = src->y2;
 103              		.loc 2 115 5 is_stmt 1 discriminator 4 view .LVU25
 104              		.loc 2 115 19 is_stmt 0 discriminator 4 view .LVU26
 105 0038 B0F94EC0 		ldrsh	ip, [r0, #78]
 106              		.loc 2 115 14 discriminator 4 view .LVU27
 107 003c ADF806C0 		strh	ip, [sp, #6]	@ movhi
 108              	.LVL4:
 109              		.loc 2 115 14 discriminator 4 view .LVU28
 110              	.LBE108:
 111              	.LBE107:
 939:Drivers/lvgl/src/widgets/lv_textarea.c ****         area_tmp.y1 += ta->label->coords.y1;
 112              		.loc 1 939 9 is_stmt 1 discriminator 4 view .LVU29
 939:Drivers/lvgl/src/widgets/lv_textarea.c ****         area_tmp.y1 += ta->label->coords.y1;
 113              		.loc 1 939 26 is_stmt 0 discriminator 4 view .LVU30
 114 0040 446A     		ldr	r4, [r0, #36]
ARM GAS  /var/folders/0z/tsy30v1j4xl4_7kw94k978ww0000gn/T//ccHqi1ZK.s 			page 22


 939:Drivers/lvgl/src/widgets/lv_textarea.c ****         area_tmp.y1 += ta->label->coords.y1;
 115              		.loc 1 939 41 discriminator 4 view .LVU31
 116 0042 A28A     		ldrh	r2, [r4, #20]
 939:Drivers/lvgl/src/widgets/lv_textarea.c ****         area_tmp.y1 += ta->label->coords.y1;
 117              		.loc 1 939 21 discriminator 4 view .LVU32
 118 0044 1344     		add	r3, r3, r2
 119 0046 ADF80030 		strh	r3, [sp]	@ movhi
 940:Drivers/lvgl/src/widgets/lv_textarea.c ****         area_tmp.x2 += ta->label->coords.x1;
 120              		.loc 1 940 9 is_stmt 1 discriminator 4 view .LVU33
 940:Drivers/lvgl/src/widgets/lv_textarea.c ****         area_tmp.x2 += ta->label->coords.x1;
 121              		.loc 1 940 41 is_stmt 0 discriminator 4 view .LVU34
 122 004a E38A     		ldrh	r3, [r4, #22]
 940:Drivers/lvgl/src/widgets/lv_textarea.c ****         area_tmp.x2 += ta->label->coords.x1;
 123              		.loc 1 940 21 discriminator 4 view .LVU35
 124 004c 1944     		add	r1, r1, r3
 125 004e ADF80210 		strh	r1, [sp, #2]	@ movhi
 941:Drivers/lvgl/src/widgets/lv_textarea.c ****         area_tmp.y2 += ta->label->coords.y1;
 126              		.loc 1 941 9 is_stmt 1 discriminator 4 view .LVU36
 941:Drivers/lvgl/src/widgets/lv_textarea.c ****         area_tmp.y2 += ta->label->coords.y1;
 127              		.loc 1 941 21 is_stmt 0 discriminator 4 view .LVU37
 128 0052 7244     		add	r2, r2, lr
 129 0054 ADF80420 		strh	r2, [sp, #4]	@ movhi
 942:Drivers/lvgl/src/widgets/lv_textarea.c ****         lv_obj_invalidate_area(obj, &area_tmp);
 130              		.loc 1 942 9 is_stmt 1 discriminator 4 view .LVU38
 942:Drivers/lvgl/src/widgets/lv_textarea.c ****         lv_obj_invalidate_area(obj, &area_tmp);
 131              		.loc 1 942 21 is_stmt 0 discriminator 4 view .LVU39
 132 0058 6344     		add	r3, r3, ip
 133 005a ADF80630 		strh	r3, [sp, #6]	@ movhi
 943:Drivers/lvgl/src/widgets/lv_textarea.c ****     }
 134              		.loc 1 943 9 is_stmt 1 discriminator 4 view .LVU40
 135 005e 6946     		mov	r1, sp
 136 0060 FFF7FEFF 		bl	lv_obj_invalidate_area
 137              	.LVL5:
 943:Drivers/lvgl/src/widgets/lv_textarea.c ****     }
 138              		.loc 1 943 9 is_stmt 0 discriminator 4 view .LVU41
 139              	.LBE106:
 945:Drivers/lvgl/src/widgets/lv_textarea.c **** 
 140              		.loc 1 945 1 discriminator 4 view .LVU42
 141 0064 02B0     		add	sp, sp, #8
 142              		.cfi_remember_state
 143              		.cfi_def_cfa_offset 8
 144              		@ sp needed
 145 0066 10BD     		pop	{r4, pc}
 146              	.LVL6:
 147              	.L5:
 148              		.cfi_restore_state
 149              	.LBB109:
 936:Drivers/lvgl/src/widgets/lv_textarea.c ****         lv_area_t area_tmp;
 150              		.loc 1 936 37 view .LVU43
 151 0068 0022     		movs	r2, #0
 152 006a D3E7     		b	.L4
 153              	.L7:
 154              		.cfi_def_cfa_offset 0
 155              		.cfi_restore 4
 156              		.cfi_restore 14
 157 006c 7047     		bx	lr
 158              	.LBE109:
ARM GAS  /var/folders/0z/tsy30v1j4xl4_7kw94k978ww0000gn/T//ccHqi1ZK.s 			page 23


 159              		.cfi_endproc
 160              	.LFE201:
 162              		.section	.text.start_cursor_blink,"ax",%progbits
 163              		.align	1
 164              		.syntax unified
 165              		.thumb
 166              		.thumb_func
 168              	start_cursor_blink:
 169              	.LVL7:
 170              	.LFB206:
 959:Drivers/lvgl/src/widgets/lv_textarea.c **** 
 960:Drivers/lvgl/src/widgets/lv_textarea.c **** /**
 961:Drivers/lvgl/src/widgets/lv_textarea.c ****  * Call when an animation is ready to convert all characters to '*'
 962:Drivers/lvgl/src/widgets/lv_textarea.c ****  * @param a pointer to the animation
 963:Drivers/lvgl/src/widgets/lv_textarea.c ****  */
 964:Drivers/lvgl/src/widgets/lv_textarea.c **** static void pwd_char_hider_anim_ready(lv_anim_t * a)
 965:Drivers/lvgl/src/widgets/lv_textarea.c **** {
 966:Drivers/lvgl/src/widgets/lv_textarea.c ****     lv_obj_t * obj = a->var;
 967:Drivers/lvgl/src/widgets/lv_textarea.c ****     pwd_char_hider(obj);
 968:Drivers/lvgl/src/widgets/lv_textarea.c **** }
 969:Drivers/lvgl/src/widgets/lv_textarea.c **** 
 970:Drivers/lvgl/src/widgets/lv_textarea.c **** /**
 971:Drivers/lvgl/src/widgets/lv_textarea.c ****  * Hide all characters (convert them to '*')
 972:Drivers/lvgl/src/widgets/lv_textarea.c ****  * @param ta pointer to text area object
 973:Drivers/lvgl/src/widgets/lv_textarea.c ****  */
 974:Drivers/lvgl/src/widgets/lv_textarea.c **** static void pwd_char_hider(lv_obj_t * obj)
 975:Drivers/lvgl/src/widgets/lv_textarea.c **** {
 976:Drivers/lvgl/src/widgets/lv_textarea.c ****     lv_textarea_t * ta = (lv_textarea_t *)obj;
 977:Drivers/lvgl/src/widgets/lv_textarea.c ****     if(ta->pwd_mode == 0) {
 978:Drivers/lvgl/src/widgets/lv_textarea.c ****         return;
 979:Drivers/lvgl/src/widgets/lv_textarea.c ****     }
 980:Drivers/lvgl/src/widgets/lv_textarea.c **** 
 981:Drivers/lvgl/src/widgets/lv_textarea.c ****     /* When ta->label is empty we get 0 back */
 982:Drivers/lvgl/src/widgets/lv_textarea.c ****     char * txt = lv_label_get_text(ta->label);
 983:Drivers/lvgl/src/widgets/lv_textarea.c ****     uint32_t enc_len = _lv_txt_get_encoded_length(txt);
 984:Drivers/lvgl/src/widgets/lv_textarea.c ****     if(enc_len == 0) return;
 985:Drivers/lvgl/src/widgets/lv_textarea.c **** 
 986:Drivers/lvgl/src/widgets/lv_textarea.c ****     const char * bullet = lv_textarea_get_password_bullet(obj);
 987:Drivers/lvgl/src/widgets/lv_textarea.c ****     const size_t bullet_len = strlen(bullet);
 988:Drivers/lvgl/src/widgets/lv_textarea.c ****     char * txt_tmp = lv_mem_buf_get(enc_len * bullet_len + 1);
 989:Drivers/lvgl/src/widgets/lv_textarea.c **** 
 990:Drivers/lvgl/src/widgets/lv_textarea.c ****     uint32_t i;
 991:Drivers/lvgl/src/widgets/lv_textarea.c ****     for(i = 0; i < enc_len; i++) {
 992:Drivers/lvgl/src/widgets/lv_textarea.c ****         lv_memcpy(&txt_tmp[i * bullet_len], bullet, bullet_len);
 993:Drivers/lvgl/src/widgets/lv_textarea.c ****     }
 994:Drivers/lvgl/src/widgets/lv_textarea.c ****     txt_tmp[i * bullet_len] = '\0';
 995:Drivers/lvgl/src/widgets/lv_textarea.c **** 
 996:Drivers/lvgl/src/widgets/lv_textarea.c ****     lv_label_set_text(ta->label, txt_tmp);
 997:Drivers/lvgl/src/widgets/lv_textarea.c ****     lv_mem_buf_release(txt_tmp);
 998:Drivers/lvgl/src/widgets/lv_textarea.c **** 
 999:Drivers/lvgl/src/widgets/lv_textarea.c ****     refr_cursor_area(obj);
1000:Drivers/lvgl/src/widgets/lv_textarea.c **** }
1001:Drivers/lvgl/src/widgets/lv_textarea.c **** 
1002:Drivers/lvgl/src/widgets/lv_textarea.c **** /**
1003:Drivers/lvgl/src/widgets/lv_textarea.c ****  * Test a unicode character if it is accepted or not. Checks max length and accepted char list.
1004:Drivers/lvgl/src/widgets/lv_textarea.c ****  * @param ta pointer to a test area object
1005:Drivers/lvgl/src/widgets/lv_textarea.c ****  * @param c a unicode character
ARM GAS  /var/folders/0z/tsy30v1j4xl4_7kw94k978ww0000gn/T//ccHqi1ZK.s 			page 24


1006:Drivers/lvgl/src/widgets/lv_textarea.c ****  * @return true: accepted; false: rejected
1007:Drivers/lvgl/src/widgets/lv_textarea.c ****  */
1008:Drivers/lvgl/src/widgets/lv_textarea.c **** static bool char_is_accepted(lv_obj_t * obj, uint32_t c)
1009:Drivers/lvgl/src/widgets/lv_textarea.c **** {
1010:Drivers/lvgl/src/widgets/lv_textarea.c ****     lv_textarea_t * ta = (lv_textarea_t *)obj;
1011:Drivers/lvgl/src/widgets/lv_textarea.c **** 
1012:Drivers/lvgl/src/widgets/lv_textarea.c ****     /*Too many characters?*/
1013:Drivers/lvgl/src/widgets/lv_textarea.c ****     if(ta->max_length > 0 && _lv_txt_get_encoded_length(lv_textarea_get_text(obj)) >= ta->max_lengt
1014:Drivers/lvgl/src/widgets/lv_textarea.c ****         return false;
1015:Drivers/lvgl/src/widgets/lv_textarea.c ****     }
1016:Drivers/lvgl/src/widgets/lv_textarea.c **** 
1017:Drivers/lvgl/src/widgets/lv_textarea.c ****     if(ta->accepted_chars == NULL || ta->accepted_chars[0] == '\0') return true;
1018:Drivers/lvgl/src/widgets/lv_textarea.c ****     /*Accepted character?*/
1019:Drivers/lvgl/src/widgets/lv_textarea.c ****     uint32_t i = 0;
1020:Drivers/lvgl/src/widgets/lv_textarea.c **** 
1021:Drivers/lvgl/src/widgets/lv_textarea.c ****     while(ta->accepted_chars[i] != '\0') {
1022:Drivers/lvgl/src/widgets/lv_textarea.c ****         uint32_t a = _lv_txt_encoded_next(ta->accepted_chars, &i);
1023:Drivers/lvgl/src/widgets/lv_textarea.c ****         if(a == c) return true; /*Accepted*/
1024:Drivers/lvgl/src/widgets/lv_textarea.c ****     }
1025:Drivers/lvgl/src/widgets/lv_textarea.c **** 
1026:Drivers/lvgl/src/widgets/lv_textarea.c ****     return false; /*The character wasn't in the list*/
1027:Drivers/lvgl/src/widgets/lv_textarea.c **** }
1028:Drivers/lvgl/src/widgets/lv_textarea.c **** 
1029:Drivers/lvgl/src/widgets/lv_textarea.c **** static void start_cursor_blink(lv_obj_t * obj)
1030:Drivers/lvgl/src/widgets/lv_textarea.c **** {
 171              		.loc 1 1030 1 is_stmt 1 view -0
 172              		.cfi_startproc
 173              		@ args = 0, pretend = 0, frame = 72
 174              		@ frame_needed = 0, uses_anonymous_args = 0
 175              		.loc 1 1030 1 is_stmt 0 view .LVU45
 176 0000 30B5     		push	{r4, r5, lr}
 177              		.cfi_def_cfa_offset 12
 178              		.cfi_offset 4, -12
 179              		.cfi_offset 5, -8
 180              		.cfi_offset 14, -4
 181 0002 93B0     		sub	sp, sp, #76
 182              		.cfi_def_cfa_offset 88
 183 0004 0446     		mov	r4, r0
1031:Drivers/lvgl/src/widgets/lv_textarea.c ****     lv_textarea_t * ta = (lv_textarea_t *)obj;
 184              		.loc 1 1031 5 is_stmt 1 view .LVU46
 185              	.LVL8:
1032:Drivers/lvgl/src/widgets/lv_textarea.c ****     uint32_t blink_time = lv_obj_get_style_anim_time(obj, LV_PART_CURSOR);
 186              		.loc 1 1032 5 view .LVU47
 187              	.LBB110:
 188              	.LBI110:
 189              		.file 3 "Drivers/lvgl/src/widgets/../core/lv_obj_style_gen.h"
   1:Drivers/lvgl/src/widgets/../core/lv_obj_style_gen.h **** static inline lv_coord_t lv_obj_get_style_width(const struct _lv_obj_t * obj, uint32_t part)
   2:Drivers/lvgl/src/widgets/../core/lv_obj_style_gen.h **** {
   3:Drivers/lvgl/src/widgets/../core/lv_obj_style_gen.h ****     lv_style_value_t v = lv_obj_get_style_prop(obj, part, LV_STYLE_WIDTH);
   4:Drivers/lvgl/src/widgets/../core/lv_obj_style_gen.h ****     return (lv_coord_t)v.num;
   5:Drivers/lvgl/src/widgets/../core/lv_obj_style_gen.h **** }
   6:Drivers/lvgl/src/widgets/../core/lv_obj_style_gen.h **** 
   7:Drivers/lvgl/src/widgets/../core/lv_obj_style_gen.h **** static inline lv_coord_t lv_obj_get_style_min_width(const struct _lv_obj_t * obj, uint32_t part)
   8:Drivers/lvgl/src/widgets/../core/lv_obj_style_gen.h **** {
   9:Drivers/lvgl/src/widgets/../core/lv_obj_style_gen.h ****     lv_style_value_t v = lv_obj_get_style_prop(obj, part, LV_STYLE_MIN_WIDTH);
  10:Drivers/lvgl/src/widgets/../core/lv_obj_style_gen.h ****     return (lv_coord_t)v.num;
  11:Drivers/lvgl/src/widgets/../core/lv_obj_style_gen.h **** }
ARM GAS  /var/folders/0z/tsy30v1j4xl4_7kw94k978ww0000gn/T//ccHqi1ZK.s 			page 25


  12:Drivers/lvgl/src/widgets/../core/lv_obj_style_gen.h **** 
  13:Drivers/lvgl/src/widgets/../core/lv_obj_style_gen.h **** static inline lv_coord_t lv_obj_get_style_max_width(const struct _lv_obj_t * obj, uint32_t part)
  14:Drivers/lvgl/src/widgets/../core/lv_obj_style_gen.h **** {
  15:Drivers/lvgl/src/widgets/../core/lv_obj_style_gen.h ****     lv_style_value_t v = lv_obj_get_style_prop(obj, part, LV_STYLE_MAX_WIDTH);
  16:Drivers/lvgl/src/widgets/../core/lv_obj_style_gen.h ****     return (lv_coord_t)v.num;
  17:Drivers/lvgl/src/widgets/../core/lv_obj_style_gen.h **** }
  18:Drivers/lvgl/src/widgets/../core/lv_obj_style_gen.h **** 
  19:Drivers/lvgl/src/widgets/../core/lv_obj_style_gen.h **** static inline lv_coord_t lv_obj_get_style_height(const struct _lv_obj_t * obj, uint32_t part)
  20:Drivers/lvgl/src/widgets/../core/lv_obj_style_gen.h **** {
  21:Drivers/lvgl/src/widgets/../core/lv_obj_style_gen.h ****     lv_style_value_t v = lv_obj_get_style_prop(obj, part, LV_STYLE_HEIGHT);
  22:Drivers/lvgl/src/widgets/../core/lv_obj_style_gen.h ****     return (lv_coord_t)v.num;
  23:Drivers/lvgl/src/widgets/../core/lv_obj_style_gen.h **** }
  24:Drivers/lvgl/src/widgets/../core/lv_obj_style_gen.h **** 
  25:Drivers/lvgl/src/widgets/../core/lv_obj_style_gen.h **** static inline lv_coord_t lv_obj_get_style_min_height(const struct _lv_obj_t * obj, uint32_t part)
  26:Drivers/lvgl/src/widgets/../core/lv_obj_style_gen.h **** {
  27:Drivers/lvgl/src/widgets/../core/lv_obj_style_gen.h ****     lv_style_value_t v = lv_obj_get_style_prop(obj, part, LV_STYLE_MIN_HEIGHT);
  28:Drivers/lvgl/src/widgets/../core/lv_obj_style_gen.h ****     return (lv_coord_t)v.num;
  29:Drivers/lvgl/src/widgets/../core/lv_obj_style_gen.h **** }
  30:Drivers/lvgl/src/widgets/../core/lv_obj_style_gen.h **** 
  31:Drivers/lvgl/src/widgets/../core/lv_obj_style_gen.h **** static inline lv_coord_t lv_obj_get_style_max_height(const struct _lv_obj_t * obj, uint32_t part)
  32:Drivers/lvgl/src/widgets/../core/lv_obj_style_gen.h **** {
  33:Drivers/lvgl/src/widgets/../core/lv_obj_style_gen.h ****     lv_style_value_t v = lv_obj_get_style_prop(obj, part, LV_STYLE_MAX_HEIGHT);
  34:Drivers/lvgl/src/widgets/../core/lv_obj_style_gen.h ****     return (lv_coord_t)v.num;
  35:Drivers/lvgl/src/widgets/../core/lv_obj_style_gen.h **** }
  36:Drivers/lvgl/src/widgets/../core/lv_obj_style_gen.h **** 
  37:Drivers/lvgl/src/widgets/../core/lv_obj_style_gen.h **** static inline lv_coord_t lv_obj_get_style_x(const struct _lv_obj_t * obj, uint32_t part)
  38:Drivers/lvgl/src/widgets/../core/lv_obj_style_gen.h **** {
  39:Drivers/lvgl/src/widgets/../core/lv_obj_style_gen.h ****     lv_style_value_t v = lv_obj_get_style_prop(obj, part, LV_STYLE_X);
  40:Drivers/lvgl/src/widgets/../core/lv_obj_style_gen.h ****     return (lv_coord_t)v.num;
  41:Drivers/lvgl/src/widgets/../core/lv_obj_style_gen.h **** }
  42:Drivers/lvgl/src/widgets/../core/lv_obj_style_gen.h **** 
  43:Drivers/lvgl/src/widgets/../core/lv_obj_style_gen.h **** static inline lv_coord_t lv_obj_get_style_y(const struct _lv_obj_t * obj, uint32_t part)
  44:Drivers/lvgl/src/widgets/../core/lv_obj_style_gen.h **** {
  45:Drivers/lvgl/src/widgets/../core/lv_obj_style_gen.h ****     lv_style_value_t v = lv_obj_get_style_prop(obj, part, LV_STYLE_Y);
  46:Drivers/lvgl/src/widgets/../core/lv_obj_style_gen.h ****     return (lv_coord_t)v.num;
  47:Drivers/lvgl/src/widgets/../core/lv_obj_style_gen.h **** }
  48:Drivers/lvgl/src/widgets/../core/lv_obj_style_gen.h **** 
  49:Drivers/lvgl/src/widgets/../core/lv_obj_style_gen.h **** static inline lv_align_t lv_obj_get_style_align(const struct _lv_obj_t * obj, uint32_t part)
  50:Drivers/lvgl/src/widgets/../core/lv_obj_style_gen.h **** {
  51:Drivers/lvgl/src/widgets/../core/lv_obj_style_gen.h ****     lv_style_value_t v = lv_obj_get_style_prop(obj, part, LV_STYLE_ALIGN);
  52:Drivers/lvgl/src/widgets/../core/lv_obj_style_gen.h ****     return (lv_align_t)v.num;
  53:Drivers/lvgl/src/widgets/../core/lv_obj_style_gen.h **** }
  54:Drivers/lvgl/src/widgets/../core/lv_obj_style_gen.h **** 
  55:Drivers/lvgl/src/widgets/../core/lv_obj_style_gen.h **** static inline lv_coord_t lv_obj_get_style_transform_width(const struct _lv_obj_t * obj, uint32_t pa
  56:Drivers/lvgl/src/widgets/../core/lv_obj_style_gen.h **** {
  57:Drivers/lvgl/src/widgets/../core/lv_obj_style_gen.h ****     lv_style_value_t v = lv_obj_get_style_prop(obj, part, LV_STYLE_TRANSFORM_WIDTH);
  58:Drivers/lvgl/src/widgets/../core/lv_obj_style_gen.h ****     return (lv_coord_t)v.num;
  59:Drivers/lvgl/src/widgets/../core/lv_obj_style_gen.h **** }
  60:Drivers/lvgl/src/widgets/../core/lv_obj_style_gen.h **** 
  61:Drivers/lvgl/src/widgets/../core/lv_obj_style_gen.h **** static inline lv_coord_t lv_obj_get_style_transform_height(const struct _lv_obj_t * obj, uint32_t p
  62:Drivers/lvgl/src/widgets/../core/lv_obj_style_gen.h **** {
  63:Drivers/lvgl/src/widgets/../core/lv_obj_style_gen.h ****     lv_style_value_t v = lv_obj_get_style_prop(obj, part, LV_STYLE_TRANSFORM_HEIGHT);
  64:Drivers/lvgl/src/widgets/../core/lv_obj_style_gen.h ****     return (lv_coord_t)v.num;
  65:Drivers/lvgl/src/widgets/../core/lv_obj_style_gen.h **** }
  66:Drivers/lvgl/src/widgets/../core/lv_obj_style_gen.h **** 
  67:Drivers/lvgl/src/widgets/../core/lv_obj_style_gen.h **** static inline lv_coord_t lv_obj_get_style_translate_x(const struct _lv_obj_t * obj, uint32_t part)
  68:Drivers/lvgl/src/widgets/../core/lv_obj_style_gen.h **** {
ARM GAS  /var/folders/0z/tsy30v1j4xl4_7kw94k978ww0000gn/T//ccHqi1ZK.s 			page 26


  69:Drivers/lvgl/src/widgets/../core/lv_obj_style_gen.h ****     lv_style_value_t v = lv_obj_get_style_prop(obj, part, LV_STYLE_TRANSLATE_X);
  70:Drivers/lvgl/src/widgets/../core/lv_obj_style_gen.h ****     return (lv_coord_t)v.num;
  71:Drivers/lvgl/src/widgets/../core/lv_obj_style_gen.h **** }
  72:Drivers/lvgl/src/widgets/../core/lv_obj_style_gen.h **** 
  73:Drivers/lvgl/src/widgets/../core/lv_obj_style_gen.h **** static inline lv_coord_t lv_obj_get_style_translate_y(const struct _lv_obj_t * obj, uint32_t part)
  74:Drivers/lvgl/src/widgets/../core/lv_obj_style_gen.h **** {
  75:Drivers/lvgl/src/widgets/../core/lv_obj_style_gen.h ****     lv_style_value_t v = lv_obj_get_style_prop(obj, part, LV_STYLE_TRANSLATE_Y);
  76:Drivers/lvgl/src/widgets/../core/lv_obj_style_gen.h ****     return (lv_coord_t)v.num;
  77:Drivers/lvgl/src/widgets/../core/lv_obj_style_gen.h **** }
  78:Drivers/lvgl/src/widgets/../core/lv_obj_style_gen.h **** 
  79:Drivers/lvgl/src/widgets/../core/lv_obj_style_gen.h **** static inline lv_coord_t lv_obj_get_style_transform_zoom(const struct _lv_obj_t * obj, uint32_t par
  80:Drivers/lvgl/src/widgets/../core/lv_obj_style_gen.h **** {
  81:Drivers/lvgl/src/widgets/../core/lv_obj_style_gen.h ****     lv_style_value_t v = lv_obj_get_style_prop(obj, part, LV_STYLE_TRANSFORM_ZOOM);
  82:Drivers/lvgl/src/widgets/../core/lv_obj_style_gen.h ****     return (lv_coord_t)v.num;
  83:Drivers/lvgl/src/widgets/../core/lv_obj_style_gen.h **** }
  84:Drivers/lvgl/src/widgets/../core/lv_obj_style_gen.h **** 
  85:Drivers/lvgl/src/widgets/../core/lv_obj_style_gen.h **** static inline lv_coord_t lv_obj_get_style_transform_angle(const struct _lv_obj_t * obj, uint32_t pa
  86:Drivers/lvgl/src/widgets/../core/lv_obj_style_gen.h **** {
  87:Drivers/lvgl/src/widgets/../core/lv_obj_style_gen.h ****     lv_style_value_t v = lv_obj_get_style_prop(obj, part, LV_STYLE_TRANSFORM_ANGLE);
  88:Drivers/lvgl/src/widgets/../core/lv_obj_style_gen.h ****     return (lv_coord_t)v.num;
  89:Drivers/lvgl/src/widgets/../core/lv_obj_style_gen.h **** }
  90:Drivers/lvgl/src/widgets/../core/lv_obj_style_gen.h **** 
  91:Drivers/lvgl/src/widgets/../core/lv_obj_style_gen.h **** static inline lv_coord_t lv_obj_get_style_transform_pivot_x(const struct _lv_obj_t * obj, uint32_t 
  92:Drivers/lvgl/src/widgets/../core/lv_obj_style_gen.h **** {
  93:Drivers/lvgl/src/widgets/../core/lv_obj_style_gen.h ****     lv_style_value_t v = lv_obj_get_style_prop(obj, part, LV_STYLE_TRANSFORM_PIVOT_X);
  94:Drivers/lvgl/src/widgets/../core/lv_obj_style_gen.h ****     return (lv_coord_t)v.num;
  95:Drivers/lvgl/src/widgets/../core/lv_obj_style_gen.h **** }
  96:Drivers/lvgl/src/widgets/../core/lv_obj_style_gen.h **** 
  97:Drivers/lvgl/src/widgets/../core/lv_obj_style_gen.h **** static inline lv_coord_t lv_obj_get_style_transform_pivot_y(const struct _lv_obj_t * obj, uint32_t 
  98:Drivers/lvgl/src/widgets/../core/lv_obj_style_gen.h **** {
  99:Drivers/lvgl/src/widgets/../core/lv_obj_style_gen.h ****     lv_style_value_t v = lv_obj_get_style_prop(obj, part, LV_STYLE_TRANSFORM_PIVOT_Y);
 100:Drivers/lvgl/src/widgets/../core/lv_obj_style_gen.h ****     return (lv_coord_t)v.num;
 101:Drivers/lvgl/src/widgets/../core/lv_obj_style_gen.h **** }
 102:Drivers/lvgl/src/widgets/../core/lv_obj_style_gen.h **** 
 103:Drivers/lvgl/src/widgets/../core/lv_obj_style_gen.h **** static inline lv_coord_t lv_obj_get_style_pad_top(const struct _lv_obj_t * obj, uint32_t part)
 104:Drivers/lvgl/src/widgets/../core/lv_obj_style_gen.h **** {
 105:Drivers/lvgl/src/widgets/../core/lv_obj_style_gen.h ****     lv_style_value_t v = lv_obj_get_style_prop(obj, part, LV_STYLE_PAD_TOP);
 106:Drivers/lvgl/src/widgets/../core/lv_obj_style_gen.h ****     return (lv_coord_t)v.num;
 107:Drivers/lvgl/src/widgets/../core/lv_obj_style_gen.h **** }
 108:Drivers/lvgl/src/widgets/../core/lv_obj_style_gen.h **** 
 109:Drivers/lvgl/src/widgets/../core/lv_obj_style_gen.h **** static inline lv_coord_t lv_obj_get_style_pad_bottom(const struct _lv_obj_t * obj, uint32_t part)
 110:Drivers/lvgl/src/widgets/../core/lv_obj_style_gen.h **** {
 111:Drivers/lvgl/src/widgets/../core/lv_obj_style_gen.h ****     lv_style_value_t v = lv_obj_get_style_prop(obj, part, LV_STYLE_PAD_BOTTOM);
 112:Drivers/lvgl/src/widgets/../core/lv_obj_style_gen.h ****     return (lv_coord_t)v.num;
 113:Drivers/lvgl/src/widgets/../core/lv_obj_style_gen.h **** }
 114:Drivers/lvgl/src/widgets/../core/lv_obj_style_gen.h **** 
 115:Drivers/lvgl/src/widgets/../core/lv_obj_style_gen.h **** static inline lv_coord_t lv_obj_get_style_pad_left(const struct _lv_obj_t * obj, uint32_t part)
 116:Drivers/lvgl/src/widgets/../core/lv_obj_style_gen.h **** {
 117:Drivers/lvgl/src/widgets/../core/lv_obj_style_gen.h ****     lv_style_value_t v = lv_obj_get_style_prop(obj, part, LV_STYLE_PAD_LEFT);
 118:Drivers/lvgl/src/widgets/../core/lv_obj_style_gen.h ****     return (lv_coord_t)v.num;
 119:Drivers/lvgl/src/widgets/../core/lv_obj_style_gen.h **** }
 120:Drivers/lvgl/src/widgets/../core/lv_obj_style_gen.h **** 
 121:Drivers/lvgl/src/widgets/../core/lv_obj_style_gen.h **** static inline lv_coord_t lv_obj_get_style_pad_right(const struct _lv_obj_t * obj, uint32_t part)
 122:Drivers/lvgl/src/widgets/../core/lv_obj_style_gen.h **** {
 123:Drivers/lvgl/src/widgets/../core/lv_obj_style_gen.h ****     lv_style_value_t v = lv_obj_get_style_prop(obj, part, LV_STYLE_PAD_RIGHT);
 124:Drivers/lvgl/src/widgets/../core/lv_obj_style_gen.h ****     return (lv_coord_t)v.num;
 125:Drivers/lvgl/src/widgets/../core/lv_obj_style_gen.h **** }
ARM GAS  /var/folders/0z/tsy30v1j4xl4_7kw94k978ww0000gn/T//ccHqi1ZK.s 			page 27


 126:Drivers/lvgl/src/widgets/../core/lv_obj_style_gen.h **** 
 127:Drivers/lvgl/src/widgets/../core/lv_obj_style_gen.h **** static inline lv_coord_t lv_obj_get_style_pad_row(const struct _lv_obj_t * obj, uint32_t part)
 128:Drivers/lvgl/src/widgets/../core/lv_obj_style_gen.h **** {
 129:Drivers/lvgl/src/widgets/../core/lv_obj_style_gen.h ****     lv_style_value_t v = lv_obj_get_style_prop(obj, part, LV_STYLE_PAD_ROW);
 130:Drivers/lvgl/src/widgets/../core/lv_obj_style_gen.h ****     return (lv_coord_t)v.num;
 131:Drivers/lvgl/src/widgets/../core/lv_obj_style_gen.h **** }
 132:Drivers/lvgl/src/widgets/../core/lv_obj_style_gen.h **** 
 133:Drivers/lvgl/src/widgets/../core/lv_obj_style_gen.h **** static inline lv_coord_t lv_obj_get_style_pad_column(const struct _lv_obj_t * obj, uint32_t part)
 134:Drivers/lvgl/src/widgets/../core/lv_obj_style_gen.h **** {
 135:Drivers/lvgl/src/widgets/../core/lv_obj_style_gen.h ****     lv_style_value_t v = lv_obj_get_style_prop(obj, part, LV_STYLE_PAD_COLUMN);
 136:Drivers/lvgl/src/widgets/../core/lv_obj_style_gen.h ****     return (lv_coord_t)v.num;
 137:Drivers/lvgl/src/widgets/../core/lv_obj_style_gen.h **** }
 138:Drivers/lvgl/src/widgets/../core/lv_obj_style_gen.h **** 
 139:Drivers/lvgl/src/widgets/../core/lv_obj_style_gen.h **** static inline lv_color_t lv_obj_get_style_bg_color(const struct _lv_obj_t * obj, uint32_t part)
 140:Drivers/lvgl/src/widgets/../core/lv_obj_style_gen.h **** {
 141:Drivers/lvgl/src/widgets/../core/lv_obj_style_gen.h ****     lv_style_value_t v = lv_obj_get_style_prop(obj, part, LV_STYLE_BG_COLOR);
 142:Drivers/lvgl/src/widgets/../core/lv_obj_style_gen.h ****     return v.color;
 143:Drivers/lvgl/src/widgets/../core/lv_obj_style_gen.h **** }
 144:Drivers/lvgl/src/widgets/../core/lv_obj_style_gen.h **** 
 145:Drivers/lvgl/src/widgets/../core/lv_obj_style_gen.h **** static inline lv_color_t lv_obj_get_style_bg_color_filtered(const struct _lv_obj_t * obj, uint32_t 
 146:Drivers/lvgl/src/widgets/../core/lv_obj_style_gen.h **** {
 147:Drivers/lvgl/src/widgets/../core/lv_obj_style_gen.h ****     lv_style_value_t v = _lv_obj_style_apply_color_filter(obj, part, lv_obj_get_style_prop(obj, par
 148:Drivers/lvgl/src/widgets/../core/lv_obj_style_gen.h ****     return v.color;
 149:Drivers/lvgl/src/widgets/../core/lv_obj_style_gen.h **** }
 150:Drivers/lvgl/src/widgets/../core/lv_obj_style_gen.h **** 
 151:Drivers/lvgl/src/widgets/../core/lv_obj_style_gen.h **** static inline lv_opa_t lv_obj_get_style_bg_opa(const struct _lv_obj_t * obj, uint32_t part)
 152:Drivers/lvgl/src/widgets/../core/lv_obj_style_gen.h **** {
 153:Drivers/lvgl/src/widgets/../core/lv_obj_style_gen.h ****     lv_style_value_t v = lv_obj_get_style_prop(obj, part, LV_STYLE_BG_OPA);
 154:Drivers/lvgl/src/widgets/../core/lv_obj_style_gen.h ****     return (lv_opa_t)v.num;
 155:Drivers/lvgl/src/widgets/../core/lv_obj_style_gen.h **** }
 156:Drivers/lvgl/src/widgets/../core/lv_obj_style_gen.h **** 
 157:Drivers/lvgl/src/widgets/../core/lv_obj_style_gen.h **** static inline lv_color_t lv_obj_get_style_bg_grad_color(const struct _lv_obj_t * obj, uint32_t part
 158:Drivers/lvgl/src/widgets/../core/lv_obj_style_gen.h **** {
 159:Drivers/lvgl/src/widgets/../core/lv_obj_style_gen.h ****     lv_style_value_t v = lv_obj_get_style_prop(obj, part, LV_STYLE_BG_GRAD_COLOR);
 160:Drivers/lvgl/src/widgets/../core/lv_obj_style_gen.h ****     return v.color;
 161:Drivers/lvgl/src/widgets/../core/lv_obj_style_gen.h **** }
 162:Drivers/lvgl/src/widgets/../core/lv_obj_style_gen.h **** 
 163:Drivers/lvgl/src/widgets/../core/lv_obj_style_gen.h **** static inline lv_color_t lv_obj_get_style_bg_grad_color_filtered(const struct _lv_obj_t * obj, uint
 164:Drivers/lvgl/src/widgets/../core/lv_obj_style_gen.h **** {
 165:Drivers/lvgl/src/widgets/../core/lv_obj_style_gen.h ****     lv_style_value_t v = _lv_obj_style_apply_color_filter(obj, part, lv_obj_get_style_prop(obj, par
 166:Drivers/lvgl/src/widgets/../core/lv_obj_style_gen.h ****     return v.color;
 167:Drivers/lvgl/src/widgets/../core/lv_obj_style_gen.h **** }
 168:Drivers/lvgl/src/widgets/../core/lv_obj_style_gen.h **** 
 169:Drivers/lvgl/src/widgets/../core/lv_obj_style_gen.h **** static inline lv_grad_dir_t lv_obj_get_style_bg_grad_dir(const struct _lv_obj_t * obj, uint32_t par
 170:Drivers/lvgl/src/widgets/../core/lv_obj_style_gen.h **** {
 171:Drivers/lvgl/src/widgets/../core/lv_obj_style_gen.h ****     lv_style_value_t v = lv_obj_get_style_prop(obj, part, LV_STYLE_BG_GRAD_DIR);
 172:Drivers/lvgl/src/widgets/../core/lv_obj_style_gen.h ****     return (lv_grad_dir_t)v.num;
 173:Drivers/lvgl/src/widgets/../core/lv_obj_style_gen.h **** }
 174:Drivers/lvgl/src/widgets/../core/lv_obj_style_gen.h **** 
 175:Drivers/lvgl/src/widgets/../core/lv_obj_style_gen.h **** static inline lv_coord_t lv_obj_get_style_bg_main_stop(const struct _lv_obj_t * obj, uint32_t part)
 176:Drivers/lvgl/src/widgets/../core/lv_obj_style_gen.h **** {
 177:Drivers/lvgl/src/widgets/../core/lv_obj_style_gen.h ****     lv_style_value_t v = lv_obj_get_style_prop(obj, part, LV_STYLE_BG_MAIN_STOP);
 178:Drivers/lvgl/src/widgets/../core/lv_obj_style_gen.h ****     return (lv_coord_t)v.num;
 179:Drivers/lvgl/src/widgets/../core/lv_obj_style_gen.h **** }
 180:Drivers/lvgl/src/widgets/../core/lv_obj_style_gen.h **** 
 181:Drivers/lvgl/src/widgets/../core/lv_obj_style_gen.h **** static inline lv_coord_t lv_obj_get_style_bg_grad_stop(const struct _lv_obj_t * obj, uint32_t part)
 182:Drivers/lvgl/src/widgets/../core/lv_obj_style_gen.h **** {
ARM GAS  /var/folders/0z/tsy30v1j4xl4_7kw94k978ww0000gn/T//ccHqi1ZK.s 			page 28


 183:Drivers/lvgl/src/widgets/../core/lv_obj_style_gen.h ****     lv_style_value_t v = lv_obj_get_style_prop(obj, part, LV_STYLE_BG_GRAD_STOP);
 184:Drivers/lvgl/src/widgets/../core/lv_obj_style_gen.h ****     return (lv_coord_t)v.num;
 185:Drivers/lvgl/src/widgets/../core/lv_obj_style_gen.h **** }
 186:Drivers/lvgl/src/widgets/../core/lv_obj_style_gen.h **** 
 187:Drivers/lvgl/src/widgets/../core/lv_obj_style_gen.h **** static inline const lv_grad_dsc_t * lv_obj_get_style_bg_grad(const struct _lv_obj_t * obj, uint32_t
 188:Drivers/lvgl/src/widgets/../core/lv_obj_style_gen.h **** {
 189:Drivers/lvgl/src/widgets/../core/lv_obj_style_gen.h ****     lv_style_value_t v = lv_obj_get_style_prop(obj, part, LV_STYLE_BG_GRAD);
 190:Drivers/lvgl/src/widgets/../core/lv_obj_style_gen.h ****     return (const lv_grad_dsc_t *)v.ptr;
 191:Drivers/lvgl/src/widgets/../core/lv_obj_style_gen.h **** }
 192:Drivers/lvgl/src/widgets/../core/lv_obj_style_gen.h **** 
 193:Drivers/lvgl/src/widgets/../core/lv_obj_style_gen.h **** static inline lv_dither_mode_t lv_obj_get_style_bg_dither_mode(const struct _lv_obj_t * obj, uint32
 194:Drivers/lvgl/src/widgets/../core/lv_obj_style_gen.h **** {
 195:Drivers/lvgl/src/widgets/../core/lv_obj_style_gen.h ****     lv_style_value_t v = lv_obj_get_style_prop(obj, part, LV_STYLE_BG_DITHER_MODE);
 196:Drivers/lvgl/src/widgets/../core/lv_obj_style_gen.h ****     return (lv_dither_mode_t)v.num;
 197:Drivers/lvgl/src/widgets/../core/lv_obj_style_gen.h **** }
 198:Drivers/lvgl/src/widgets/../core/lv_obj_style_gen.h **** 
 199:Drivers/lvgl/src/widgets/../core/lv_obj_style_gen.h **** static inline const void * lv_obj_get_style_bg_img_src(const struct _lv_obj_t * obj, uint32_t part)
 200:Drivers/lvgl/src/widgets/../core/lv_obj_style_gen.h **** {
 201:Drivers/lvgl/src/widgets/../core/lv_obj_style_gen.h ****     lv_style_value_t v = lv_obj_get_style_prop(obj, part, LV_STYLE_BG_IMG_SRC);
 202:Drivers/lvgl/src/widgets/../core/lv_obj_style_gen.h ****     return (const void *)v.ptr;
 203:Drivers/lvgl/src/widgets/../core/lv_obj_style_gen.h **** }
 204:Drivers/lvgl/src/widgets/../core/lv_obj_style_gen.h **** 
 205:Drivers/lvgl/src/widgets/../core/lv_obj_style_gen.h **** static inline lv_opa_t lv_obj_get_style_bg_img_opa(const struct _lv_obj_t * obj, uint32_t part)
 206:Drivers/lvgl/src/widgets/../core/lv_obj_style_gen.h **** {
 207:Drivers/lvgl/src/widgets/../core/lv_obj_style_gen.h ****     lv_style_value_t v = lv_obj_get_style_prop(obj, part, LV_STYLE_BG_IMG_OPA);
 208:Drivers/lvgl/src/widgets/../core/lv_obj_style_gen.h ****     return (lv_opa_t)v.num;
 209:Drivers/lvgl/src/widgets/../core/lv_obj_style_gen.h **** }
 210:Drivers/lvgl/src/widgets/../core/lv_obj_style_gen.h **** 
 211:Drivers/lvgl/src/widgets/../core/lv_obj_style_gen.h **** static inline lv_color_t lv_obj_get_style_bg_img_recolor(const struct _lv_obj_t * obj, uint32_t par
 212:Drivers/lvgl/src/widgets/../core/lv_obj_style_gen.h **** {
 213:Drivers/lvgl/src/widgets/../core/lv_obj_style_gen.h ****     lv_style_value_t v = lv_obj_get_style_prop(obj, part, LV_STYLE_BG_IMG_RECOLOR);
 214:Drivers/lvgl/src/widgets/../core/lv_obj_style_gen.h ****     return v.color;
 215:Drivers/lvgl/src/widgets/../core/lv_obj_style_gen.h **** }
 216:Drivers/lvgl/src/widgets/../core/lv_obj_style_gen.h **** 
 217:Drivers/lvgl/src/widgets/../core/lv_obj_style_gen.h **** static inline lv_color_t lv_obj_get_style_bg_img_recolor_filtered(const struct _lv_obj_t * obj, uin
 218:Drivers/lvgl/src/widgets/../core/lv_obj_style_gen.h **** {
 219:Drivers/lvgl/src/widgets/../core/lv_obj_style_gen.h ****     lv_style_value_t v = _lv_obj_style_apply_color_filter(obj, part, lv_obj_get_style_prop(obj, par
 220:Drivers/lvgl/src/widgets/../core/lv_obj_style_gen.h ****     return v.color;
 221:Drivers/lvgl/src/widgets/../core/lv_obj_style_gen.h **** }
 222:Drivers/lvgl/src/widgets/../core/lv_obj_style_gen.h **** 
 223:Drivers/lvgl/src/widgets/../core/lv_obj_style_gen.h **** static inline lv_opa_t lv_obj_get_style_bg_img_recolor_opa(const struct _lv_obj_t * obj, uint32_t p
 224:Drivers/lvgl/src/widgets/../core/lv_obj_style_gen.h **** {
 225:Drivers/lvgl/src/widgets/../core/lv_obj_style_gen.h ****     lv_style_value_t v = lv_obj_get_style_prop(obj, part, LV_STYLE_BG_IMG_RECOLOR_OPA);
 226:Drivers/lvgl/src/widgets/../core/lv_obj_style_gen.h ****     return (lv_opa_t)v.num;
 227:Drivers/lvgl/src/widgets/../core/lv_obj_style_gen.h **** }
 228:Drivers/lvgl/src/widgets/../core/lv_obj_style_gen.h **** 
 229:Drivers/lvgl/src/widgets/../core/lv_obj_style_gen.h **** static inline bool lv_obj_get_style_bg_img_tiled(const struct _lv_obj_t * obj, uint32_t part)
 230:Drivers/lvgl/src/widgets/../core/lv_obj_style_gen.h **** {
 231:Drivers/lvgl/src/widgets/../core/lv_obj_style_gen.h ****     lv_style_value_t v = lv_obj_get_style_prop(obj, part, LV_STYLE_BG_IMG_TILED);
 232:Drivers/lvgl/src/widgets/../core/lv_obj_style_gen.h ****     return (bool)v.num;
 233:Drivers/lvgl/src/widgets/../core/lv_obj_style_gen.h **** }
 234:Drivers/lvgl/src/widgets/../core/lv_obj_style_gen.h **** 
 235:Drivers/lvgl/src/widgets/../core/lv_obj_style_gen.h **** static inline lv_color_t lv_obj_get_style_border_color(const struct _lv_obj_t * obj, uint32_t part)
 236:Drivers/lvgl/src/widgets/../core/lv_obj_style_gen.h **** {
 237:Drivers/lvgl/src/widgets/../core/lv_obj_style_gen.h ****     lv_style_value_t v = lv_obj_get_style_prop(obj, part, LV_STYLE_BORDER_COLOR);
 238:Drivers/lvgl/src/widgets/../core/lv_obj_style_gen.h ****     return v.color;
 239:Drivers/lvgl/src/widgets/../core/lv_obj_style_gen.h **** }
ARM GAS  /var/folders/0z/tsy30v1j4xl4_7kw94k978ww0000gn/T//ccHqi1ZK.s 			page 29


 240:Drivers/lvgl/src/widgets/../core/lv_obj_style_gen.h **** 
 241:Drivers/lvgl/src/widgets/../core/lv_obj_style_gen.h **** static inline lv_color_t lv_obj_get_style_border_color_filtered(const struct _lv_obj_t * obj, uint3
 242:Drivers/lvgl/src/widgets/../core/lv_obj_style_gen.h **** {
 243:Drivers/lvgl/src/widgets/../core/lv_obj_style_gen.h ****     lv_style_value_t v = _lv_obj_style_apply_color_filter(obj, part, lv_obj_get_style_prop(obj, par
 244:Drivers/lvgl/src/widgets/../core/lv_obj_style_gen.h ****     return v.color;
 245:Drivers/lvgl/src/widgets/../core/lv_obj_style_gen.h **** }
 246:Drivers/lvgl/src/widgets/../core/lv_obj_style_gen.h **** 
 247:Drivers/lvgl/src/widgets/../core/lv_obj_style_gen.h **** static inline lv_opa_t lv_obj_get_style_border_opa(const struct _lv_obj_t * obj, uint32_t part)
 248:Drivers/lvgl/src/widgets/../core/lv_obj_style_gen.h **** {
 249:Drivers/lvgl/src/widgets/../core/lv_obj_style_gen.h ****     lv_style_value_t v = lv_obj_get_style_prop(obj, part, LV_STYLE_BORDER_OPA);
 250:Drivers/lvgl/src/widgets/../core/lv_obj_style_gen.h ****     return (lv_opa_t)v.num;
 251:Drivers/lvgl/src/widgets/../core/lv_obj_style_gen.h **** }
 252:Drivers/lvgl/src/widgets/../core/lv_obj_style_gen.h **** 
 253:Drivers/lvgl/src/widgets/../core/lv_obj_style_gen.h **** static inline lv_coord_t lv_obj_get_style_border_width(const struct _lv_obj_t * obj, uint32_t part)
 254:Drivers/lvgl/src/widgets/../core/lv_obj_style_gen.h **** {
 255:Drivers/lvgl/src/widgets/../core/lv_obj_style_gen.h ****     lv_style_value_t v = lv_obj_get_style_prop(obj, part, LV_STYLE_BORDER_WIDTH);
 256:Drivers/lvgl/src/widgets/../core/lv_obj_style_gen.h ****     return (lv_coord_t)v.num;
 257:Drivers/lvgl/src/widgets/../core/lv_obj_style_gen.h **** }
 258:Drivers/lvgl/src/widgets/../core/lv_obj_style_gen.h **** 
 259:Drivers/lvgl/src/widgets/../core/lv_obj_style_gen.h **** static inline lv_border_side_t lv_obj_get_style_border_side(const struct _lv_obj_t * obj, uint32_t 
 260:Drivers/lvgl/src/widgets/../core/lv_obj_style_gen.h **** {
 261:Drivers/lvgl/src/widgets/../core/lv_obj_style_gen.h ****     lv_style_value_t v = lv_obj_get_style_prop(obj, part, LV_STYLE_BORDER_SIDE);
 262:Drivers/lvgl/src/widgets/../core/lv_obj_style_gen.h ****     return (lv_border_side_t)v.num;
 263:Drivers/lvgl/src/widgets/../core/lv_obj_style_gen.h **** }
 264:Drivers/lvgl/src/widgets/../core/lv_obj_style_gen.h **** 
 265:Drivers/lvgl/src/widgets/../core/lv_obj_style_gen.h **** static inline bool lv_obj_get_style_border_post(const struct _lv_obj_t * obj, uint32_t part)
 266:Drivers/lvgl/src/widgets/../core/lv_obj_style_gen.h **** {
 267:Drivers/lvgl/src/widgets/../core/lv_obj_style_gen.h ****     lv_style_value_t v = lv_obj_get_style_prop(obj, part, LV_STYLE_BORDER_POST);
 268:Drivers/lvgl/src/widgets/../core/lv_obj_style_gen.h ****     return (bool)v.num;
 269:Drivers/lvgl/src/widgets/../core/lv_obj_style_gen.h **** }
 270:Drivers/lvgl/src/widgets/../core/lv_obj_style_gen.h **** 
 271:Drivers/lvgl/src/widgets/../core/lv_obj_style_gen.h **** static inline lv_coord_t lv_obj_get_style_outline_width(const struct _lv_obj_t * obj, uint32_t part
 272:Drivers/lvgl/src/widgets/../core/lv_obj_style_gen.h **** {
 273:Drivers/lvgl/src/widgets/../core/lv_obj_style_gen.h ****     lv_style_value_t v = lv_obj_get_style_prop(obj, part, LV_STYLE_OUTLINE_WIDTH);
 274:Drivers/lvgl/src/widgets/../core/lv_obj_style_gen.h ****     return (lv_coord_t)v.num;
 275:Drivers/lvgl/src/widgets/../core/lv_obj_style_gen.h **** }
 276:Drivers/lvgl/src/widgets/../core/lv_obj_style_gen.h **** 
 277:Drivers/lvgl/src/widgets/../core/lv_obj_style_gen.h **** static inline lv_color_t lv_obj_get_style_outline_color(const struct _lv_obj_t * obj, uint32_t part
 278:Drivers/lvgl/src/widgets/../core/lv_obj_style_gen.h **** {
 279:Drivers/lvgl/src/widgets/../core/lv_obj_style_gen.h ****     lv_style_value_t v = lv_obj_get_style_prop(obj, part, LV_STYLE_OUTLINE_COLOR);
 280:Drivers/lvgl/src/widgets/../core/lv_obj_style_gen.h ****     return v.color;
 281:Drivers/lvgl/src/widgets/../core/lv_obj_style_gen.h **** }
 282:Drivers/lvgl/src/widgets/../core/lv_obj_style_gen.h **** 
 283:Drivers/lvgl/src/widgets/../core/lv_obj_style_gen.h **** static inline lv_color_t lv_obj_get_style_outline_color_filtered(const struct _lv_obj_t * obj, uint
 284:Drivers/lvgl/src/widgets/../core/lv_obj_style_gen.h **** {
 285:Drivers/lvgl/src/widgets/../core/lv_obj_style_gen.h ****     lv_style_value_t v = _lv_obj_style_apply_color_filter(obj, part, lv_obj_get_style_prop(obj, par
 286:Drivers/lvgl/src/widgets/../core/lv_obj_style_gen.h ****     return v.color;
 287:Drivers/lvgl/src/widgets/../core/lv_obj_style_gen.h **** }
 288:Drivers/lvgl/src/widgets/../core/lv_obj_style_gen.h **** 
 289:Drivers/lvgl/src/widgets/../core/lv_obj_style_gen.h **** static inline lv_opa_t lv_obj_get_style_outline_opa(const struct _lv_obj_t * obj, uint32_t part)
 290:Drivers/lvgl/src/widgets/../core/lv_obj_style_gen.h **** {
 291:Drivers/lvgl/src/widgets/../core/lv_obj_style_gen.h ****     lv_style_value_t v = lv_obj_get_style_prop(obj, part, LV_STYLE_OUTLINE_OPA);
 292:Drivers/lvgl/src/widgets/../core/lv_obj_style_gen.h ****     return (lv_opa_t)v.num;
 293:Drivers/lvgl/src/widgets/../core/lv_obj_style_gen.h **** }
 294:Drivers/lvgl/src/widgets/../core/lv_obj_style_gen.h **** 
 295:Drivers/lvgl/src/widgets/../core/lv_obj_style_gen.h **** static inline lv_coord_t lv_obj_get_style_outline_pad(const struct _lv_obj_t * obj, uint32_t part)
 296:Drivers/lvgl/src/widgets/../core/lv_obj_style_gen.h **** {
ARM GAS  /var/folders/0z/tsy30v1j4xl4_7kw94k978ww0000gn/T//ccHqi1ZK.s 			page 30


 297:Drivers/lvgl/src/widgets/../core/lv_obj_style_gen.h ****     lv_style_value_t v = lv_obj_get_style_prop(obj, part, LV_STYLE_OUTLINE_PAD);
 298:Drivers/lvgl/src/widgets/../core/lv_obj_style_gen.h ****     return (lv_coord_t)v.num;
 299:Drivers/lvgl/src/widgets/../core/lv_obj_style_gen.h **** }
 300:Drivers/lvgl/src/widgets/../core/lv_obj_style_gen.h **** 
 301:Drivers/lvgl/src/widgets/../core/lv_obj_style_gen.h **** static inline lv_coord_t lv_obj_get_style_shadow_width(const struct _lv_obj_t * obj, uint32_t part)
 302:Drivers/lvgl/src/widgets/../core/lv_obj_style_gen.h **** {
 303:Drivers/lvgl/src/widgets/../core/lv_obj_style_gen.h ****     lv_style_value_t v = lv_obj_get_style_prop(obj, part, LV_STYLE_SHADOW_WIDTH);
 304:Drivers/lvgl/src/widgets/../core/lv_obj_style_gen.h ****     return (lv_coord_t)v.num;
 305:Drivers/lvgl/src/widgets/../core/lv_obj_style_gen.h **** }
 306:Drivers/lvgl/src/widgets/../core/lv_obj_style_gen.h **** 
 307:Drivers/lvgl/src/widgets/../core/lv_obj_style_gen.h **** static inline lv_coord_t lv_obj_get_style_shadow_ofs_x(const struct _lv_obj_t * obj, uint32_t part)
 308:Drivers/lvgl/src/widgets/../core/lv_obj_style_gen.h **** {
 309:Drivers/lvgl/src/widgets/../core/lv_obj_style_gen.h ****     lv_style_value_t v = lv_obj_get_style_prop(obj, part, LV_STYLE_SHADOW_OFS_X);
 310:Drivers/lvgl/src/widgets/../core/lv_obj_style_gen.h ****     return (lv_coord_t)v.num;
 311:Drivers/lvgl/src/widgets/../core/lv_obj_style_gen.h **** }
 312:Drivers/lvgl/src/widgets/../core/lv_obj_style_gen.h **** 
 313:Drivers/lvgl/src/widgets/../core/lv_obj_style_gen.h **** static inline lv_coord_t lv_obj_get_style_shadow_ofs_y(const struct _lv_obj_t * obj, uint32_t part)
 314:Drivers/lvgl/src/widgets/../core/lv_obj_style_gen.h **** {
 315:Drivers/lvgl/src/widgets/../core/lv_obj_style_gen.h ****     lv_style_value_t v = lv_obj_get_style_prop(obj, part, LV_STYLE_SHADOW_OFS_Y);
 316:Drivers/lvgl/src/widgets/../core/lv_obj_style_gen.h ****     return (lv_coord_t)v.num;
 317:Drivers/lvgl/src/widgets/../core/lv_obj_style_gen.h **** }
 318:Drivers/lvgl/src/widgets/../core/lv_obj_style_gen.h **** 
 319:Drivers/lvgl/src/widgets/../core/lv_obj_style_gen.h **** static inline lv_coord_t lv_obj_get_style_shadow_spread(const struct _lv_obj_t * obj, uint32_t part
 320:Drivers/lvgl/src/widgets/../core/lv_obj_style_gen.h **** {
 321:Drivers/lvgl/src/widgets/../core/lv_obj_style_gen.h ****     lv_style_value_t v = lv_obj_get_style_prop(obj, part, LV_STYLE_SHADOW_SPREAD);
 322:Drivers/lvgl/src/widgets/../core/lv_obj_style_gen.h ****     return (lv_coord_t)v.num;
 323:Drivers/lvgl/src/widgets/../core/lv_obj_style_gen.h **** }
 324:Drivers/lvgl/src/widgets/../core/lv_obj_style_gen.h **** 
 325:Drivers/lvgl/src/widgets/../core/lv_obj_style_gen.h **** static inline lv_color_t lv_obj_get_style_shadow_color(const struct _lv_obj_t * obj, uint32_t part)
 326:Drivers/lvgl/src/widgets/../core/lv_obj_style_gen.h **** {
 327:Drivers/lvgl/src/widgets/../core/lv_obj_style_gen.h ****     lv_style_value_t v = lv_obj_get_style_prop(obj, part, LV_STYLE_SHADOW_COLOR);
 328:Drivers/lvgl/src/widgets/../core/lv_obj_style_gen.h ****     return v.color;
 329:Drivers/lvgl/src/widgets/../core/lv_obj_style_gen.h **** }
 330:Drivers/lvgl/src/widgets/../core/lv_obj_style_gen.h **** 
 331:Drivers/lvgl/src/widgets/../core/lv_obj_style_gen.h **** static inline lv_color_t lv_obj_get_style_shadow_color_filtered(const struct _lv_obj_t * obj, uint3
 332:Drivers/lvgl/src/widgets/../core/lv_obj_style_gen.h **** {
 333:Drivers/lvgl/src/widgets/../core/lv_obj_style_gen.h ****     lv_style_value_t v = _lv_obj_style_apply_color_filter(obj, part, lv_obj_get_style_prop(obj, par
 334:Drivers/lvgl/src/widgets/../core/lv_obj_style_gen.h ****     return v.color;
 335:Drivers/lvgl/src/widgets/../core/lv_obj_style_gen.h **** }
 336:Drivers/lvgl/src/widgets/../core/lv_obj_style_gen.h **** 
 337:Drivers/lvgl/src/widgets/../core/lv_obj_style_gen.h **** static inline lv_opa_t lv_obj_get_style_shadow_opa(const struct _lv_obj_t * obj, uint32_t part)
 338:Drivers/lvgl/src/widgets/../core/lv_obj_style_gen.h **** {
 339:Drivers/lvgl/src/widgets/../core/lv_obj_style_gen.h ****     lv_style_value_t v = lv_obj_get_style_prop(obj, part, LV_STYLE_SHADOW_OPA);
 340:Drivers/lvgl/src/widgets/../core/lv_obj_style_gen.h ****     return (lv_opa_t)v.num;
 341:Drivers/lvgl/src/widgets/../core/lv_obj_style_gen.h **** }
 342:Drivers/lvgl/src/widgets/../core/lv_obj_style_gen.h **** 
 343:Drivers/lvgl/src/widgets/../core/lv_obj_style_gen.h **** static inline lv_opa_t lv_obj_get_style_img_opa(const struct _lv_obj_t * obj, uint32_t part)
 344:Drivers/lvgl/src/widgets/../core/lv_obj_style_gen.h **** {
 345:Drivers/lvgl/src/widgets/../core/lv_obj_style_gen.h ****     lv_style_value_t v = lv_obj_get_style_prop(obj, part, LV_STYLE_IMG_OPA);
 346:Drivers/lvgl/src/widgets/../core/lv_obj_style_gen.h ****     return (lv_opa_t)v.num;
 347:Drivers/lvgl/src/widgets/../core/lv_obj_style_gen.h **** }
 348:Drivers/lvgl/src/widgets/../core/lv_obj_style_gen.h **** 
 349:Drivers/lvgl/src/widgets/../core/lv_obj_style_gen.h **** static inline lv_color_t lv_obj_get_style_img_recolor(const struct _lv_obj_t * obj, uint32_t part)
 350:Drivers/lvgl/src/widgets/../core/lv_obj_style_gen.h **** {
 351:Drivers/lvgl/src/widgets/../core/lv_obj_style_gen.h ****     lv_style_value_t v = lv_obj_get_style_prop(obj, part, LV_STYLE_IMG_RECOLOR);
 352:Drivers/lvgl/src/widgets/../core/lv_obj_style_gen.h ****     return v.color;
 353:Drivers/lvgl/src/widgets/../core/lv_obj_style_gen.h **** }
ARM GAS  /var/folders/0z/tsy30v1j4xl4_7kw94k978ww0000gn/T//ccHqi1ZK.s 			page 31


 354:Drivers/lvgl/src/widgets/../core/lv_obj_style_gen.h **** 
 355:Drivers/lvgl/src/widgets/../core/lv_obj_style_gen.h **** static inline lv_color_t lv_obj_get_style_img_recolor_filtered(const struct _lv_obj_t * obj, uint32
 356:Drivers/lvgl/src/widgets/../core/lv_obj_style_gen.h **** {
 357:Drivers/lvgl/src/widgets/../core/lv_obj_style_gen.h ****     lv_style_value_t v = _lv_obj_style_apply_color_filter(obj, part, lv_obj_get_style_prop(obj, par
 358:Drivers/lvgl/src/widgets/../core/lv_obj_style_gen.h ****     return v.color;
 359:Drivers/lvgl/src/widgets/../core/lv_obj_style_gen.h **** }
 360:Drivers/lvgl/src/widgets/../core/lv_obj_style_gen.h **** 
 361:Drivers/lvgl/src/widgets/../core/lv_obj_style_gen.h **** static inline lv_opa_t lv_obj_get_style_img_recolor_opa(const struct _lv_obj_t * obj, uint32_t part
 362:Drivers/lvgl/src/widgets/../core/lv_obj_style_gen.h **** {
 363:Drivers/lvgl/src/widgets/../core/lv_obj_style_gen.h ****     lv_style_value_t v = lv_obj_get_style_prop(obj, part, LV_STYLE_IMG_RECOLOR_OPA);
 364:Drivers/lvgl/src/widgets/../core/lv_obj_style_gen.h ****     return (lv_opa_t)v.num;
 365:Drivers/lvgl/src/widgets/../core/lv_obj_style_gen.h **** }
 366:Drivers/lvgl/src/widgets/../core/lv_obj_style_gen.h **** 
 367:Drivers/lvgl/src/widgets/../core/lv_obj_style_gen.h **** static inline lv_coord_t lv_obj_get_style_line_width(const struct _lv_obj_t * obj, uint32_t part)
 368:Drivers/lvgl/src/widgets/../core/lv_obj_style_gen.h **** {
 369:Drivers/lvgl/src/widgets/../core/lv_obj_style_gen.h ****     lv_style_value_t v = lv_obj_get_style_prop(obj, part, LV_STYLE_LINE_WIDTH);
 370:Drivers/lvgl/src/widgets/../core/lv_obj_style_gen.h ****     return (lv_coord_t)v.num;
 371:Drivers/lvgl/src/widgets/../core/lv_obj_style_gen.h **** }
 372:Drivers/lvgl/src/widgets/../core/lv_obj_style_gen.h **** 
 373:Drivers/lvgl/src/widgets/../core/lv_obj_style_gen.h **** static inline lv_coord_t lv_obj_get_style_line_dash_width(const struct _lv_obj_t * obj, uint32_t pa
 374:Drivers/lvgl/src/widgets/../core/lv_obj_style_gen.h **** {
 375:Drivers/lvgl/src/widgets/../core/lv_obj_style_gen.h ****     lv_style_value_t v = lv_obj_get_style_prop(obj, part, LV_STYLE_LINE_DASH_WIDTH);
 376:Drivers/lvgl/src/widgets/../core/lv_obj_style_gen.h ****     return (lv_coord_t)v.num;
 377:Drivers/lvgl/src/widgets/../core/lv_obj_style_gen.h **** }
 378:Drivers/lvgl/src/widgets/../core/lv_obj_style_gen.h **** 
 379:Drivers/lvgl/src/widgets/../core/lv_obj_style_gen.h **** static inline lv_coord_t lv_obj_get_style_line_dash_gap(const struct _lv_obj_t * obj, uint32_t part
 380:Drivers/lvgl/src/widgets/../core/lv_obj_style_gen.h **** {
 381:Drivers/lvgl/src/widgets/../core/lv_obj_style_gen.h ****     lv_style_value_t v = lv_obj_get_style_prop(obj, part, LV_STYLE_LINE_DASH_GAP);
 382:Drivers/lvgl/src/widgets/../core/lv_obj_style_gen.h ****     return (lv_coord_t)v.num;
 383:Drivers/lvgl/src/widgets/../core/lv_obj_style_gen.h **** }
 384:Drivers/lvgl/src/widgets/../core/lv_obj_style_gen.h **** 
 385:Drivers/lvgl/src/widgets/../core/lv_obj_style_gen.h **** static inline bool lv_obj_get_style_line_rounded(const struct _lv_obj_t * obj, uint32_t part)
 386:Drivers/lvgl/src/widgets/../core/lv_obj_style_gen.h **** {
 387:Drivers/lvgl/src/widgets/../core/lv_obj_style_gen.h ****     lv_style_value_t v = lv_obj_get_style_prop(obj, part, LV_STYLE_LINE_ROUNDED);
 388:Drivers/lvgl/src/widgets/../core/lv_obj_style_gen.h ****     return (bool)v.num;
 389:Drivers/lvgl/src/widgets/../core/lv_obj_style_gen.h **** }
 390:Drivers/lvgl/src/widgets/../core/lv_obj_style_gen.h **** 
 391:Drivers/lvgl/src/widgets/../core/lv_obj_style_gen.h **** static inline lv_color_t lv_obj_get_style_line_color(const struct _lv_obj_t * obj, uint32_t part)
 392:Drivers/lvgl/src/widgets/../core/lv_obj_style_gen.h **** {
 393:Drivers/lvgl/src/widgets/../core/lv_obj_style_gen.h ****     lv_style_value_t v = lv_obj_get_style_prop(obj, part, LV_STYLE_LINE_COLOR);
 394:Drivers/lvgl/src/widgets/../core/lv_obj_style_gen.h ****     return v.color;
 395:Drivers/lvgl/src/widgets/../core/lv_obj_style_gen.h **** }
 396:Drivers/lvgl/src/widgets/../core/lv_obj_style_gen.h **** 
 397:Drivers/lvgl/src/widgets/../core/lv_obj_style_gen.h **** static inline lv_color_t lv_obj_get_style_line_color_filtered(const struct _lv_obj_t * obj, uint32_
 398:Drivers/lvgl/src/widgets/../core/lv_obj_style_gen.h **** {
 399:Drivers/lvgl/src/widgets/../core/lv_obj_style_gen.h ****     lv_style_value_t v = _lv_obj_style_apply_color_filter(obj, part, lv_obj_get_style_prop(obj, par
 400:Drivers/lvgl/src/widgets/../core/lv_obj_style_gen.h ****     return v.color;
 401:Drivers/lvgl/src/widgets/../core/lv_obj_style_gen.h **** }
 402:Drivers/lvgl/src/widgets/../core/lv_obj_style_gen.h **** 
 403:Drivers/lvgl/src/widgets/../core/lv_obj_style_gen.h **** static inline lv_opa_t lv_obj_get_style_line_opa(const struct _lv_obj_t * obj, uint32_t part)
 404:Drivers/lvgl/src/widgets/../core/lv_obj_style_gen.h **** {
 405:Drivers/lvgl/src/widgets/../core/lv_obj_style_gen.h ****     lv_style_value_t v = lv_obj_get_style_prop(obj, part, LV_STYLE_LINE_OPA);
 406:Drivers/lvgl/src/widgets/../core/lv_obj_style_gen.h ****     return (lv_opa_t)v.num;
 407:Drivers/lvgl/src/widgets/../core/lv_obj_style_gen.h **** }
 408:Drivers/lvgl/src/widgets/../core/lv_obj_style_gen.h **** 
 409:Drivers/lvgl/src/widgets/../core/lv_obj_style_gen.h **** static inline lv_coord_t lv_obj_get_style_arc_width(const struct _lv_obj_t * obj, uint32_t part)
 410:Drivers/lvgl/src/widgets/../core/lv_obj_style_gen.h **** {
ARM GAS  /var/folders/0z/tsy30v1j4xl4_7kw94k978ww0000gn/T//ccHqi1ZK.s 			page 32


 411:Drivers/lvgl/src/widgets/../core/lv_obj_style_gen.h ****     lv_style_value_t v = lv_obj_get_style_prop(obj, part, LV_STYLE_ARC_WIDTH);
 412:Drivers/lvgl/src/widgets/../core/lv_obj_style_gen.h ****     return (lv_coord_t)v.num;
 413:Drivers/lvgl/src/widgets/../core/lv_obj_style_gen.h **** }
 414:Drivers/lvgl/src/widgets/../core/lv_obj_style_gen.h **** 
 415:Drivers/lvgl/src/widgets/../core/lv_obj_style_gen.h **** static inline bool lv_obj_get_style_arc_rounded(const struct _lv_obj_t * obj, uint32_t part)
 416:Drivers/lvgl/src/widgets/../core/lv_obj_style_gen.h **** {
 417:Drivers/lvgl/src/widgets/../core/lv_obj_style_gen.h ****     lv_style_value_t v = lv_obj_get_style_prop(obj, part, LV_STYLE_ARC_ROUNDED);
 418:Drivers/lvgl/src/widgets/../core/lv_obj_style_gen.h ****     return (bool)v.num;
 419:Drivers/lvgl/src/widgets/../core/lv_obj_style_gen.h **** }
 420:Drivers/lvgl/src/widgets/../core/lv_obj_style_gen.h **** 
 421:Drivers/lvgl/src/widgets/../core/lv_obj_style_gen.h **** static inline lv_color_t lv_obj_get_style_arc_color(const struct _lv_obj_t * obj, uint32_t part)
 422:Drivers/lvgl/src/widgets/../core/lv_obj_style_gen.h **** {
 423:Drivers/lvgl/src/widgets/../core/lv_obj_style_gen.h ****     lv_style_value_t v = lv_obj_get_style_prop(obj, part, LV_STYLE_ARC_COLOR);
 424:Drivers/lvgl/src/widgets/../core/lv_obj_style_gen.h ****     return v.color;
 425:Drivers/lvgl/src/widgets/../core/lv_obj_style_gen.h **** }
 426:Drivers/lvgl/src/widgets/../core/lv_obj_style_gen.h **** 
 427:Drivers/lvgl/src/widgets/../core/lv_obj_style_gen.h **** static inline lv_color_t lv_obj_get_style_arc_color_filtered(const struct _lv_obj_t * obj, uint32_t
 428:Drivers/lvgl/src/widgets/../core/lv_obj_style_gen.h **** {
 429:Drivers/lvgl/src/widgets/../core/lv_obj_style_gen.h ****     lv_style_value_t v = _lv_obj_style_apply_color_filter(obj, part, lv_obj_get_style_prop(obj, par
 430:Drivers/lvgl/src/widgets/../core/lv_obj_style_gen.h ****     return v.color;
 431:Drivers/lvgl/src/widgets/../core/lv_obj_style_gen.h **** }
 432:Drivers/lvgl/src/widgets/../core/lv_obj_style_gen.h **** 
 433:Drivers/lvgl/src/widgets/../core/lv_obj_style_gen.h **** static inline lv_opa_t lv_obj_get_style_arc_opa(const struct _lv_obj_t * obj, uint32_t part)
 434:Drivers/lvgl/src/widgets/../core/lv_obj_style_gen.h **** {
 435:Drivers/lvgl/src/widgets/../core/lv_obj_style_gen.h ****     lv_style_value_t v = lv_obj_get_style_prop(obj, part, LV_STYLE_ARC_OPA);
 436:Drivers/lvgl/src/widgets/../core/lv_obj_style_gen.h ****     return (lv_opa_t)v.num;
 437:Drivers/lvgl/src/widgets/../core/lv_obj_style_gen.h **** }
 438:Drivers/lvgl/src/widgets/../core/lv_obj_style_gen.h **** 
 439:Drivers/lvgl/src/widgets/../core/lv_obj_style_gen.h **** static inline const void * lv_obj_get_style_arc_img_src(const struct _lv_obj_t * obj, uint32_t part
 440:Drivers/lvgl/src/widgets/../core/lv_obj_style_gen.h **** {
 441:Drivers/lvgl/src/widgets/../core/lv_obj_style_gen.h ****     lv_style_value_t v = lv_obj_get_style_prop(obj, part, LV_STYLE_ARC_IMG_SRC);
 442:Drivers/lvgl/src/widgets/../core/lv_obj_style_gen.h ****     return (const void *)v.ptr;
 443:Drivers/lvgl/src/widgets/../core/lv_obj_style_gen.h **** }
 444:Drivers/lvgl/src/widgets/../core/lv_obj_style_gen.h **** 
 445:Drivers/lvgl/src/widgets/../core/lv_obj_style_gen.h **** static inline lv_color_t lv_obj_get_style_text_color(const struct _lv_obj_t * obj, uint32_t part)
 446:Drivers/lvgl/src/widgets/../core/lv_obj_style_gen.h **** {
 447:Drivers/lvgl/src/widgets/../core/lv_obj_style_gen.h ****     lv_style_value_t v = lv_obj_get_style_prop(obj, part, LV_STYLE_TEXT_COLOR);
 448:Drivers/lvgl/src/widgets/../core/lv_obj_style_gen.h ****     return v.color;
 449:Drivers/lvgl/src/widgets/../core/lv_obj_style_gen.h **** }
 450:Drivers/lvgl/src/widgets/../core/lv_obj_style_gen.h **** 
 451:Drivers/lvgl/src/widgets/../core/lv_obj_style_gen.h **** static inline lv_color_t lv_obj_get_style_text_color_filtered(const struct _lv_obj_t * obj, uint32_
 452:Drivers/lvgl/src/widgets/../core/lv_obj_style_gen.h **** {
 453:Drivers/lvgl/src/widgets/../core/lv_obj_style_gen.h ****     lv_style_value_t v = _lv_obj_style_apply_color_filter(obj, part, lv_obj_get_style_prop(obj, par
 454:Drivers/lvgl/src/widgets/../core/lv_obj_style_gen.h ****     return v.color;
 455:Drivers/lvgl/src/widgets/../core/lv_obj_style_gen.h **** }
 456:Drivers/lvgl/src/widgets/../core/lv_obj_style_gen.h **** 
 457:Drivers/lvgl/src/widgets/../core/lv_obj_style_gen.h **** static inline lv_opa_t lv_obj_get_style_text_opa(const struct _lv_obj_t * obj, uint32_t part)
 458:Drivers/lvgl/src/widgets/../core/lv_obj_style_gen.h **** {
 459:Drivers/lvgl/src/widgets/../core/lv_obj_style_gen.h ****     lv_style_value_t v = lv_obj_get_style_prop(obj, part, LV_STYLE_TEXT_OPA);
 460:Drivers/lvgl/src/widgets/../core/lv_obj_style_gen.h ****     return (lv_opa_t)v.num;
 461:Drivers/lvgl/src/widgets/../core/lv_obj_style_gen.h **** }
 462:Drivers/lvgl/src/widgets/../core/lv_obj_style_gen.h **** 
 463:Drivers/lvgl/src/widgets/../core/lv_obj_style_gen.h **** static inline const lv_font_t * lv_obj_get_style_text_font(const struct _lv_obj_t * obj, uint32_t p
 464:Drivers/lvgl/src/widgets/../core/lv_obj_style_gen.h **** {
 465:Drivers/lvgl/src/widgets/../core/lv_obj_style_gen.h ****     lv_style_value_t v = lv_obj_get_style_prop(obj, part, LV_STYLE_TEXT_FONT);
 466:Drivers/lvgl/src/widgets/../core/lv_obj_style_gen.h ****     return (const lv_font_t *)v.ptr;
 467:Drivers/lvgl/src/widgets/../core/lv_obj_style_gen.h **** }
ARM GAS  /var/folders/0z/tsy30v1j4xl4_7kw94k978ww0000gn/T//ccHqi1ZK.s 			page 33


 468:Drivers/lvgl/src/widgets/../core/lv_obj_style_gen.h **** 
 469:Drivers/lvgl/src/widgets/../core/lv_obj_style_gen.h **** static inline lv_coord_t lv_obj_get_style_text_letter_space(const struct _lv_obj_t * obj, uint32_t 
 470:Drivers/lvgl/src/widgets/../core/lv_obj_style_gen.h **** {
 471:Drivers/lvgl/src/widgets/../core/lv_obj_style_gen.h ****     lv_style_value_t v = lv_obj_get_style_prop(obj, part, LV_STYLE_TEXT_LETTER_SPACE);
 472:Drivers/lvgl/src/widgets/../core/lv_obj_style_gen.h ****     return (lv_coord_t)v.num;
 473:Drivers/lvgl/src/widgets/../core/lv_obj_style_gen.h **** }
 474:Drivers/lvgl/src/widgets/../core/lv_obj_style_gen.h **** 
 475:Drivers/lvgl/src/widgets/../core/lv_obj_style_gen.h **** static inline lv_coord_t lv_obj_get_style_text_line_space(const struct _lv_obj_t * obj, uint32_t pa
 476:Drivers/lvgl/src/widgets/../core/lv_obj_style_gen.h **** {
 477:Drivers/lvgl/src/widgets/../core/lv_obj_style_gen.h ****     lv_style_value_t v = lv_obj_get_style_prop(obj, part, LV_STYLE_TEXT_LINE_SPACE);
 478:Drivers/lvgl/src/widgets/../core/lv_obj_style_gen.h ****     return (lv_coord_t)v.num;
 479:Drivers/lvgl/src/widgets/../core/lv_obj_style_gen.h **** }
 480:Drivers/lvgl/src/widgets/../core/lv_obj_style_gen.h **** 
 481:Drivers/lvgl/src/widgets/../core/lv_obj_style_gen.h **** static inline lv_text_decor_t lv_obj_get_style_text_decor(const struct _lv_obj_t * obj, uint32_t pa
 482:Drivers/lvgl/src/widgets/../core/lv_obj_style_gen.h **** {
 483:Drivers/lvgl/src/widgets/../core/lv_obj_style_gen.h ****     lv_style_value_t v = lv_obj_get_style_prop(obj, part, LV_STYLE_TEXT_DECOR);
 484:Drivers/lvgl/src/widgets/../core/lv_obj_style_gen.h ****     return (lv_text_decor_t)v.num;
 485:Drivers/lvgl/src/widgets/../core/lv_obj_style_gen.h **** }
 486:Drivers/lvgl/src/widgets/../core/lv_obj_style_gen.h **** 
 487:Drivers/lvgl/src/widgets/../core/lv_obj_style_gen.h **** static inline lv_text_align_t lv_obj_get_style_text_align(const struct _lv_obj_t * obj, uint32_t pa
 488:Drivers/lvgl/src/widgets/../core/lv_obj_style_gen.h **** {
 489:Drivers/lvgl/src/widgets/../core/lv_obj_style_gen.h ****     lv_style_value_t v = lv_obj_get_style_prop(obj, part, LV_STYLE_TEXT_ALIGN);
 490:Drivers/lvgl/src/widgets/../core/lv_obj_style_gen.h ****     return (lv_text_align_t)v.num;
 491:Drivers/lvgl/src/widgets/../core/lv_obj_style_gen.h **** }
 492:Drivers/lvgl/src/widgets/../core/lv_obj_style_gen.h **** 
 493:Drivers/lvgl/src/widgets/../core/lv_obj_style_gen.h **** static inline lv_coord_t lv_obj_get_style_radius(const struct _lv_obj_t * obj, uint32_t part)
 494:Drivers/lvgl/src/widgets/../core/lv_obj_style_gen.h **** {
 495:Drivers/lvgl/src/widgets/../core/lv_obj_style_gen.h ****     lv_style_value_t v = lv_obj_get_style_prop(obj, part, LV_STYLE_RADIUS);
 496:Drivers/lvgl/src/widgets/../core/lv_obj_style_gen.h ****     return (lv_coord_t)v.num;
 497:Drivers/lvgl/src/widgets/../core/lv_obj_style_gen.h **** }
 498:Drivers/lvgl/src/widgets/../core/lv_obj_style_gen.h **** 
 499:Drivers/lvgl/src/widgets/../core/lv_obj_style_gen.h **** static inline bool lv_obj_get_style_clip_corner(const struct _lv_obj_t * obj, uint32_t part)
 500:Drivers/lvgl/src/widgets/../core/lv_obj_style_gen.h **** {
 501:Drivers/lvgl/src/widgets/../core/lv_obj_style_gen.h ****     lv_style_value_t v = lv_obj_get_style_prop(obj, part, LV_STYLE_CLIP_CORNER);
 502:Drivers/lvgl/src/widgets/../core/lv_obj_style_gen.h ****     return (bool)v.num;
 503:Drivers/lvgl/src/widgets/../core/lv_obj_style_gen.h **** }
 504:Drivers/lvgl/src/widgets/../core/lv_obj_style_gen.h **** 
 505:Drivers/lvgl/src/widgets/../core/lv_obj_style_gen.h **** static inline lv_opa_t lv_obj_get_style_opa(const struct _lv_obj_t * obj, uint32_t part)
 506:Drivers/lvgl/src/widgets/../core/lv_obj_style_gen.h **** {
 507:Drivers/lvgl/src/widgets/../core/lv_obj_style_gen.h ****     lv_style_value_t v = lv_obj_get_style_prop(obj, part, LV_STYLE_OPA);
 508:Drivers/lvgl/src/widgets/../core/lv_obj_style_gen.h ****     return (lv_opa_t)v.num;
 509:Drivers/lvgl/src/widgets/../core/lv_obj_style_gen.h **** }
 510:Drivers/lvgl/src/widgets/../core/lv_obj_style_gen.h **** 
 511:Drivers/lvgl/src/widgets/../core/lv_obj_style_gen.h **** static inline lv_opa_t lv_obj_get_style_opa_layered(const struct _lv_obj_t * obj, uint32_t part)
 512:Drivers/lvgl/src/widgets/../core/lv_obj_style_gen.h **** {
 513:Drivers/lvgl/src/widgets/../core/lv_obj_style_gen.h ****     lv_style_value_t v = lv_obj_get_style_prop(obj, part, LV_STYLE_OPA_LAYERED);
 514:Drivers/lvgl/src/widgets/../core/lv_obj_style_gen.h ****     return (lv_opa_t)v.num;
 515:Drivers/lvgl/src/widgets/../core/lv_obj_style_gen.h **** }
 516:Drivers/lvgl/src/widgets/../core/lv_obj_style_gen.h **** 
 517:Drivers/lvgl/src/widgets/../core/lv_obj_style_gen.h **** static inline const lv_color_filter_dsc_t * lv_obj_get_style_color_filter_dsc(const struct _lv_obj_
 518:Drivers/lvgl/src/widgets/../core/lv_obj_style_gen.h **** {
 519:Drivers/lvgl/src/widgets/../core/lv_obj_style_gen.h ****     lv_style_value_t v = lv_obj_get_style_prop(obj, part, LV_STYLE_COLOR_FILTER_DSC);
 520:Drivers/lvgl/src/widgets/../core/lv_obj_style_gen.h ****     return (const lv_color_filter_dsc_t *)v.ptr;
 521:Drivers/lvgl/src/widgets/../core/lv_obj_style_gen.h **** }
 522:Drivers/lvgl/src/widgets/../core/lv_obj_style_gen.h **** 
 523:Drivers/lvgl/src/widgets/../core/lv_obj_style_gen.h **** static inline lv_opa_t lv_obj_get_style_color_filter_opa(const struct _lv_obj_t * obj, uint32_t par
 524:Drivers/lvgl/src/widgets/../core/lv_obj_style_gen.h **** {
ARM GAS  /var/folders/0z/tsy30v1j4xl4_7kw94k978ww0000gn/T//ccHqi1ZK.s 			page 34


 525:Drivers/lvgl/src/widgets/../core/lv_obj_style_gen.h ****     lv_style_value_t v = lv_obj_get_style_prop(obj, part, LV_STYLE_COLOR_FILTER_OPA);
 526:Drivers/lvgl/src/widgets/../core/lv_obj_style_gen.h ****     return (lv_opa_t)v.num;
 527:Drivers/lvgl/src/widgets/../core/lv_obj_style_gen.h **** }
 528:Drivers/lvgl/src/widgets/../core/lv_obj_style_gen.h **** 
 529:Drivers/lvgl/src/widgets/../core/lv_obj_style_gen.h **** static inline const lv_anim_t * lv_obj_get_style_anim(const struct _lv_obj_t * obj, uint32_t part)
 530:Drivers/lvgl/src/widgets/../core/lv_obj_style_gen.h **** {
 531:Drivers/lvgl/src/widgets/../core/lv_obj_style_gen.h ****     lv_style_value_t v = lv_obj_get_style_prop(obj, part, LV_STYLE_ANIM);
 532:Drivers/lvgl/src/widgets/../core/lv_obj_style_gen.h ****     return (const lv_anim_t *)v.ptr;
 533:Drivers/lvgl/src/widgets/../core/lv_obj_style_gen.h **** }
 534:Drivers/lvgl/src/widgets/../core/lv_obj_style_gen.h **** 
 535:Drivers/lvgl/src/widgets/../core/lv_obj_style_gen.h **** static inline uint32_t lv_obj_get_style_anim_time(const struct _lv_obj_t * obj, uint32_t part)
 190              		.loc 3 535 24 view .LVU48
 191              	.LBB111:
 536:Drivers/lvgl/src/widgets/../core/lv_obj_style_gen.h **** {
 537:Drivers/lvgl/src/widgets/../core/lv_obj_style_gen.h ****     lv_style_value_t v = lv_obj_get_style_prop(obj, part, LV_STYLE_ANIM_TIME);
 192              		.loc 3 537 5 view .LVU49
 193              		.loc 3 537 26 is_stmt 0 view .LVU50
 194 0006 6522     		movs	r2, #101
 195 0008 4FF4E021 		mov	r1, #458752
 196 000c FFF7FEFF 		bl	lv_obj_get_style_prop
 197              	.LVL9:
 538:Drivers/lvgl/src/widgets/../core/lv_obj_style_gen.h ****     return (uint32_t)v.num;
 198              		.loc 3 538 5 is_stmt 1 view .LVU51
 199              		.loc 3 538 5 is_stmt 0 view .LVU52
 200              	.LBE111:
 201              	.LBE110:
1033:Drivers/lvgl/src/widgets/lv_textarea.c ****     if(blink_time == 0) {
 202              		.loc 1 1033 5 is_stmt 1 view .LVU53
 203              		.loc 1 1033 7 is_stmt 0 view .LVU54
 204 0010 58B9     		cbnz	r0, .L11
1034:Drivers/lvgl/src/widgets/lv_textarea.c ****         lv_anim_del(obj, cursor_blink_anim_cb);
 205              		.loc 1 1034 9 is_stmt 1 view .LVU55
 206 0012 1249     		ldr	r1, .L14
 207 0014 2046     		mov	r0, r4
 208              	.LVL10:
 209              		.loc 1 1034 9 is_stmt 0 view .LVU56
 210 0016 FFF7FEFF 		bl	lv_anim_del
 211              	.LVL11:
1035:Drivers/lvgl/src/widgets/lv_textarea.c ****         ta->cursor.show = 1;
 212              		.loc 1 1035 9 is_stmt 1 view .LVU57
 213              		.loc 1 1035 25 is_stmt 0 view .LVU58
 214 001a 94F85430 		ldrb	r3, [r4, #84]	@ zero_extendqisi2
 215 001e 43F00103 		orr	r3, r3, #1
 216 0022 84F85430 		strb	r3, [r4, #84]
 217              	.L10:
1036:Drivers/lvgl/src/widgets/lv_textarea.c ****     }
1037:Drivers/lvgl/src/widgets/lv_textarea.c ****     else {
1038:Drivers/lvgl/src/widgets/lv_textarea.c ****         lv_anim_t a;
1039:Drivers/lvgl/src/widgets/lv_textarea.c ****         lv_anim_init(&a);
1040:Drivers/lvgl/src/widgets/lv_textarea.c ****         lv_anim_set_var(&a, ta);
1041:Drivers/lvgl/src/widgets/lv_textarea.c ****         lv_anim_set_exec_cb(&a, cursor_blink_anim_cb);
1042:Drivers/lvgl/src/widgets/lv_textarea.c ****         lv_anim_set_time(&a, blink_time);
1043:Drivers/lvgl/src/widgets/lv_textarea.c ****         lv_anim_set_playback_time(&a, blink_time);
1044:Drivers/lvgl/src/widgets/lv_textarea.c ****         lv_anim_set_values(&a, 1, 0);
1045:Drivers/lvgl/src/widgets/lv_textarea.c ****         lv_anim_set_path_cb(&a, lv_anim_path_step);
1046:Drivers/lvgl/src/widgets/lv_textarea.c ****         lv_anim_set_repeat_count(&a, LV_ANIM_REPEAT_INFINITE);
1047:Drivers/lvgl/src/widgets/lv_textarea.c ****         lv_anim_start(&a);
ARM GAS  /var/folders/0z/tsy30v1j4xl4_7kw94k978ww0000gn/T//ccHqi1ZK.s 			page 35


1048:Drivers/lvgl/src/widgets/lv_textarea.c ****     }
1049:Drivers/lvgl/src/widgets/lv_textarea.c **** }
 218              		.loc 1 1049 1 view .LVU59
 219 0026 13B0     		add	sp, sp, #76
 220              		.cfi_remember_state
 221              		.cfi_def_cfa_offset 12
 222              		@ sp needed
 223 0028 30BD     		pop	{r4, r5, pc}
 224              	.LVL12:
 225              	.L11:
 226              		.cfi_restore_state
 227              		.loc 1 1049 1 view .LVU60
 228 002a 0546     		mov	r5, r0
 229              	.LBB112:
1038:Drivers/lvgl/src/widgets/lv_textarea.c ****         lv_anim_init(&a);
 230              		.loc 1 1038 9 is_stmt 1 view .LVU61
1039:Drivers/lvgl/src/widgets/lv_textarea.c ****         lv_anim_set_var(&a, ta);
 231              		.loc 1 1039 9 view .LVU62
 232 002c 01A8     		add	r0, sp, #4
 233              	.LVL13:
1039:Drivers/lvgl/src/widgets/lv_textarea.c ****         lv_anim_set_var(&a, ta);
 234              		.loc 1 1039 9 is_stmt 0 view .LVU63
 235 002e FFF7FEFF 		bl	lv_anim_init
 236              	.LVL14:
1040:Drivers/lvgl/src/widgets/lv_textarea.c ****         lv_anim_set_exec_cb(&a, cursor_blink_anim_cb);
 237              		.loc 1 1040 9 is_stmt 1 view .LVU64
 238              	.LBB113:
 239              	.LBI113:
 240              		.file 4 "Drivers/lvgl/src/widgets/../core/../misc/lv_anim.h"
   1:Drivers/lvgl/src/widgets/../core/../misc/lv_anim.h **** /**
   2:Drivers/lvgl/src/widgets/../core/../misc/lv_anim.h ****  * @file lv_anim.h
   3:Drivers/lvgl/src/widgets/../core/../misc/lv_anim.h ****  *
   4:Drivers/lvgl/src/widgets/../core/../misc/lv_anim.h ****  */
   5:Drivers/lvgl/src/widgets/../core/../misc/lv_anim.h **** 
   6:Drivers/lvgl/src/widgets/../core/../misc/lv_anim.h **** #ifndef LV_ANIM_H
   7:Drivers/lvgl/src/widgets/../core/../misc/lv_anim.h **** #define LV_ANIM_H
   8:Drivers/lvgl/src/widgets/../core/../misc/lv_anim.h **** 
   9:Drivers/lvgl/src/widgets/../core/../misc/lv_anim.h **** #ifdef __cplusplus
  10:Drivers/lvgl/src/widgets/../core/../misc/lv_anim.h **** extern "C" {
  11:Drivers/lvgl/src/widgets/../core/../misc/lv_anim.h **** #endif
  12:Drivers/lvgl/src/widgets/../core/../misc/lv_anim.h **** 
  13:Drivers/lvgl/src/widgets/../core/../misc/lv_anim.h **** /*********************
  14:Drivers/lvgl/src/widgets/../core/../misc/lv_anim.h ****  *      INCLUDES
  15:Drivers/lvgl/src/widgets/../core/../misc/lv_anim.h ****  *********************/
  16:Drivers/lvgl/src/widgets/../core/../misc/lv_anim.h **** #include "../lv_conf_internal.h"
  17:Drivers/lvgl/src/widgets/../core/../misc/lv_anim.h **** 
  18:Drivers/lvgl/src/widgets/../core/../misc/lv_anim.h **** #include <stdint.h>
  19:Drivers/lvgl/src/widgets/../core/../misc/lv_anim.h **** #include <stdbool.h>
  20:Drivers/lvgl/src/widgets/../core/../misc/lv_anim.h **** #include <stddef.h>
  21:Drivers/lvgl/src/widgets/../core/../misc/lv_anim.h **** 
  22:Drivers/lvgl/src/widgets/../core/../misc/lv_anim.h **** /*********************
  23:Drivers/lvgl/src/widgets/../core/../misc/lv_anim.h ****  *      DEFINES
  24:Drivers/lvgl/src/widgets/../core/../misc/lv_anim.h ****  *********************/
  25:Drivers/lvgl/src/widgets/../core/../misc/lv_anim.h **** 
  26:Drivers/lvgl/src/widgets/../core/../misc/lv_anim.h **** #define LV_ANIM_REPEAT_INFINITE      0xFFFF
  27:Drivers/lvgl/src/widgets/../core/../misc/lv_anim.h **** #define LV_ANIM_PLAYTIME_INFINITE    0xFFFFFFFF
  28:Drivers/lvgl/src/widgets/../core/../misc/lv_anim.h **** 
ARM GAS  /var/folders/0z/tsy30v1j4xl4_7kw94k978ww0000gn/T//ccHqi1ZK.s 			page 36


  29:Drivers/lvgl/src/widgets/../core/../misc/lv_anim.h **** LV_EXPORT_CONST_INT(LV_ANIM_REPEAT_INFINITE);
  30:Drivers/lvgl/src/widgets/../core/../misc/lv_anim.h **** LV_EXPORT_CONST_INT(LV_ANIM_PLAYTIME_INFINITE);
  31:Drivers/lvgl/src/widgets/../core/../misc/lv_anim.h **** 
  32:Drivers/lvgl/src/widgets/../core/../misc/lv_anim.h **** /**********************
  33:Drivers/lvgl/src/widgets/../core/../misc/lv_anim.h ****  *      TYPEDEFS
  34:Drivers/lvgl/src/widgets/../core/../misc/lv_anim.h ****  **********************/
  35:Drivers/lvgl/src/widgets/../core/../misc/lv_anim.h **** 
  36:Drivers/lvgl/src/widgets/../core/../misc/lv_anim.h **** /** Can be used to indicate if animations are enabled or disabled in a case*/
  37:Drivers/lvgl/src/widgets/../core/../misc/lv_anim.h **** typedef enum {
  38:Drivers/lvgl/src/widgets/../core/../misc/lv_anim.h ****     LV_ANIM_OFF,
  39:Drivers/lvgl/src/widgets/../core/../misc/lv_anim.h ****     LV_ANIM_ON,
  40:Drivers/lvgl/src/widgets/../core/../misc/lv_anim.h **** } lv_anim_enable_t;
  41:Drivers/lvgl/src/widgets/../core/../misc/lv_anim.h **** 
  42:Drivers/lvgl/src/widgets/../core/../misc/lv_anim.h **** struct _lv_anim_t;
  43:Drivers/lvgl/src/widgets/../core/../misc/lv_anim.h **** struct _lv_timer_t;
  44:Drivers/lvgl/src/widgets/../core/../misc/lv_anim.h **** 
  45:Drivers/lvgl/src/widgets/../core/../misc/lv_anim.h **** /** Get the current value during an animation*/
  46:Drivers/lvgl/src/widgets/../core/../misc/lv_anim.h **** typedef int32_t (*lv_anim_path_cb_t)(const struct _lv_anim_t *);
  47:Drivers/lvgl/src/widgets/../core/../misc/lv_anim.h **** 
  48:Drivers/lvgl/src/widgets/../core/../misc/lv_anim.h **** /** Generic prototype of "animator" functions.
  49:Drivers/lvgl/src/widgets/../core/../misc/lv_anim.h ****  * First parameter is the variable to animate.
  50:Drivers/lvgl/src/widgets/../core/../misc/lv_anim.h ****  * Second parameter is the value to set.
  51:Drivers/lvgl/src/widgets/../core/../misc/lv_anim.h ****  * Compatible with `lv_xxx_set_yyy(obj, value)` functions
  52:Drivers/lvgl/src/widgets/../core/../misc/lv_anim.h ****  * The `x` in `_xcb_t` means it's not a fully generic prototype because
  53:Drivers/lvgl/src/widgets/../core/../misc/lv_anim.h ****  * it doesn't receive `lv_anim_t *` as its first argument*/
  54:Drivers/lvgl/src/widgets/../core/../misc/lv_anim.h **** typedef void (*lv_anim_exec_xcb_t)(void *, int32_t);
  55:Drivers/lvgl/src/widgets/../core/../misc/lv_anim.h **** 
  56:Drivers/lvgl/src/widgets/../core/../misc/lv_anim.h **** /** Same as `lv_anim_exec_xcb_t` but receives `lv_anim_t *` as the first parameter.
  57:Drivers/lvgl/src/widgets/../core/../misc/lv_anim.h ****  * It's more consistent but less convenient. Might be used by binding generator functions.*/
  58:Drivers/lvgl/src/widgets/../core/../misc/lv_anim.h **** typedef void (*lv_anim_custom_exec_cb_t)(struct _lv_anim_t *, int32_t);
  59:Drivers/lvgl/src/widgets/../core/../misc/lv_anim.h **** 
  60:Drivers/lvgl/src/widgets/../core/../misc/lv_anim.h **** /** Callback to call when the animation is ready*/
  61:Drivers/lvgl/src/widgets/../core/../misc/lv_anim.h **** typedef void (*lv_anim_ready_cb_t)(struct _lv_anim_t *);
  62:Drivers/lvgl/src/widgets/../core/../misc/lv_anim.h **** 
  63:Drivers/lvgl/src/widgets/../core/../misc/lv_anim.h **** /** Callback to call when the animation really stars (considering `delay`)*/
  64:Drivers/lvgl/src/widgets/../core/../misc/lv_anim.h **** typedef void (*lv_anim_start_cb_t)(struct _lv_anim_t *);
  65:Drivers/lvgl/src/widgets/../core/../misc/lv_anim.h **** 
  66:Drivers/lvgl/src/widgets/../core/../misc/lv_anim.h **** /** Callback used when the animation values are relative to get the current value*/
  67:Drivers/lvgl/src/widgets/../core/../misc/lv_anim.h **** typedef int32_t (*lv_anim_get_value_cb_t)(struct _lv_anim_t *);
  68:Drivers/lvgl/src/widgets/../core/../misc/lv_anim.h **** 
  69:Drivers/lvgl/src/widgets/../core/../misc/lv_anim.h **** /** Callback used when the animation is deleted*/
  70:Drivers/lvgl/src/widgets/../core/../misc/lv_anim.h **** typedef void (*lv_anim_deleted_cb_t)(struct _lv_anim_t *);
  71:Drivers/lvgl/src/widgets/../core/../misc/lv_anim.h **** 
  72:Drivers/lvgl/src/widgets/../core/../misc/lv_anim.h **** /** Describes an animation*/
  73:Drivers/lvgl/src/widgets/../core/../misc/lv_anim.h **** typedef struct _lv_anim_t {
  74:Drivers/lvgl/src/widgets/../core/../misc/lv_anim.h ****     void * var;                          /**<Variable to animate*/
  75:Drivers/lvgl/src/widgets/../core/../misc/lv_anim.h ****     lv_anim_exec_xcb_t exec_cb;          /**< Function to execute to animate*/
  76:Drivers/lvgl/src/widgets/../core/../misc/lv_anim.h ****     lv_anim_start_cb_t start_cb;         /**< Call it when the animation is starts (considering `de
  77:Drivers/lvgl/src/widgets/../core/../misc/lv_anim.h ****     lv_anim_ready_cb_t ready_cb;         /**< Call it when the animation is ready*/
  78:Drivers/lvgl/src/widgets/../core/../misc/lv_anim.h ****     lv_anim_deleted_cb_t deleted_cb;     /**< Call it when the animation is deleted*/
  79:Drivers/lvgl/src/widgets/../core/../misc/lv_anim.h ****     lv_anim_get_value_cb_t get_value_cb; /**< Get the current value in relative mode*/
  80:Drivers/lvgl/src/widgets/../core/../misc/lv_anim.h **** #if LV_USE_USER_DATA
  81:Drivers/lvgl/src/widgets/../core/../misc/lv_anim.h ****     void * user_data; /**< Custom user data*/
  82:Drivers/lvgl/src/widgets/../core/../misc/lv_anim.h **** #endif
  83:Drivers/lvgl/src/widgets/../core/../misc/lv_anim.h ****     lv_anim_path_cb_t path_cb;         /**< Describe the path (curve) of animations*/
  84:Drivers/lvgl/src/widgets/../core/../misc/lv_anim.h ****     int32_t start_value;               /**< Start value*/
  85:Drivers/lvgl/src/widgets/../core/../misc/lv_anim.h ****     int32_t current_value;             /**< Current value*/
ARM GAS  /var/folders/0z/tsy30v1j4xl4_7kw94k978ww0000gn/T//ccHqi1ZK.s 			page 37


  86:Drivers/lvgl/src/widgets/../core/../misc/lv_anim.h ****     int32_t end_value;                 /**< End value*/
  87:Drivers/lvgl/src/widgets/../core/../misc/lv_anim.h ****     int32_t time;                /**< Animation time in ms*/
  88:Drivers/lvgl/src/widgets/../core/../misc/lv_anim.h ****     int32_t act_time;            /**< Current time in animation. Set to negative to make delay.*/
  89:Drivers/lvgl/src/widgets/../core/../misc/lv_anim.h ****     uint32_t playback_delay;     /**< Wait before play back*/
  90:Drivers/lvgl/src/widgets/../core/../misc/lv_anim.h ****     uint32_t playback_time;      /**< Duration of playback animation*/
  91:Drivers/lvgl/src/widgets/../core/../misc/lv_anim.h ****     uint32_t repeat_delay;       /**< Wait before repeat*/
  92:Drivers/lvgl/src/widgets/../core/../misc/lv_anim.h ****     uint16_t repeat_cnt;         /**< Repeat count for the animation*/
  93:Drivers/lvgl/src/widgets/../core/../misc/lv_anim.h ****     uint8_t early_apply  : 1;    /**< 1: Apply start value immediately even is there is `delay`*/
  94:Drivers/lvgl/src/widgets/../core/../misc/lv_anim.h **** 
  95:Drivers/lvgl/src/widgets/../core/../misc/lv_anim.h ****     /*Animation system use these - user shouldn't set*/
  96:Drivers/lvgl/src/widgets/../core/../misc/lv_anim.h ****     uint8_t playback_now : 1; /**< Play back is in progress*/
  97:Drivers/lvgl/src/widgets/../core/../misc/lv_anim.h ****     uint8_t run_round : 1;    /**< Indicates the animation has run in this round*/
  98:Drivers/lvgl/src/widgets/../core/../misc/lv_anim.h ****     uint8_t start_cb_called : 1;    /**< Indicates that the `start_cb` was already called*/
  99:Drivers/lvgl/src/widgets/../core/../misc/lv_anim.h **** } lv_anim_t;
 100:Drivers/lvgl/src/widgets/../core/../misc/lv_anim.h **** 
 101:Drivers/lvgl/src/widgets/../core/../misc/lv_anim.h **** /**********************
 102:Drivers/lvgl/src/widgets/../core/../misc/lv_anim.h ****  * GLOBAL PROTOTYPES
 103:Drivers/lvgl/src/widgets/../core/../misc/lv_anim.h ****  **********************/
 104:Drivers/lvgl/src/widgets/../core/../misc/lv_anim.h **** 
 105:Drivers/lvgl/src/widgets/../core/../misc/lv_anim.h **** /**
 106:Drivers/lvgl/src/widgets/../core/../misc/lv_anim.h ****  * Init. the animation module
 107:Drivers/lvgl/src/widgets/../core/../misc/lv_anim.h ****  */
 108:Drivers/lvgl/src/widgets/../core/../misc/lv_anim.h **** void _lv_anim_core_init(void);
 109:Drivers/lvgl/src/widgets/../core/../misc/lv_anim.h **** 
 110:Drivers/lvgl/src/widgets/../core/../misc/lv_anim.h **** /**
 111:Drivers/lvgl/src/widgets/../core/../misc/lv_anim.h ****  * Initialize an animation variable.
 112:Drivers/lvgl/src/widgets/../core/../misc/lv_anim.h ****  * E.g.:
 113:Drivers/lvgl/src/widgets/../core/../misc/lv_anim.h ****  * lv_anim_t a;
 114:Drivers/lvgl/src/widgets/../core/../misc/lv_anim.h ****  * lv_anim_init(&a);
 115:Drivers/lvgl/src/widgets/../core/../misc/lv_anim.h ****  * lv_anim_set_...(&a);
 116:Drivers/lvgl/src/widgets/../core/../misc/lv_anim.h ****  * lv_anim_start(&a);
 117:Drivers/lvgl/src/widgets/../core/../misc/lv_anim.h ****  * @param a     pointer to an `lv_anim_t` variable to initialize
 118:Drivers/lvgl/src/widgets/../core/../misc/lv_anim.h ****  */
 119:Drivers/lvgl/src/widgets/../core/../misc/lv_anim.h **** void lv_anim_init(lv_anim_t * a);
 120:Drivers/lvgl/src/widgets/../core/../misc/lv_anim.h **** 
 121:Drivers/lvgl/src/widgets/../core/../misc/lv_anim.h **** /**
 122:Drivers/lvgl/src/widgets/../core/../misc/lv_anim.h ****  * Set a variable to animate
 123:Drivers/lvgl/src/widgets/../core/../misc/lv_anim.h ****  * @param a     pointer to an initialized `lv_anim_t` variable
 124:Drivers/lvgl/src/widgets/../core/../misc/lv_anim.h ****  * @param var   pointer to a variable to animate
 125:Drivers/lvgl/src/widgets/../core/../misc/lv_anim.h ****  */
 126:Drivers/lvgl/src/widgets/../core/../misc/lv_anim.h **** static inline void lv_anim_set_var(lv_anim_t * a, void * var)
 241              		.loc 4 126 20 view .LVU65
 242              	.LBB114:
 127:Drivers/lvgl/src/widgets/../core/../misc/lv_anim.h **** {
 128:Drivers/lvgl/src/widgets/../core/../misc/lv_anim.h ****     a->var = var;
 243              		.loc 4 128 5 view .LVU66
 244              		.loc 4 128 12 is_stmt 0 view .LVU67
 245 0032 0194     		str	r4, [sp, #4]
 246              	.LVL15:
 247              		.loc 4 128 12 view .LVU68
 248              	.LBE114:
 249              	.LBE113:
1041:Drivers/lvgl/src/widgets/lv_textarea.c ****         lv_anim_set_time(&a, blink_time);
 250              		.loc 1 1041 9 is_stmt 1 view .LVU69
 251              	.LBB115:
 252              	.LBI115:
 129:Drivers/lvgl/src/widgets/../core/../misc/lv_anim.h **** }
ARM GAS  /var/folders/0z/tsy30v1j4xl4_7kw94k978ww0000gn/T//ccHqi1ZK.s 			page 38


 130:Drivers/lvgl/src/widgets/../core/../misc/lv_anim.h **** 
 131:Drivers/lvgl/src/widgets/../core/../misc/lv_anim.h **** /**
 132:Drivers/lvgl/src/widgets/../core/../misc/lv_anim.h ****  * Set a function to animate `var`
 133:Drivers/lvgl/src/widgets/../core/../misc/lv_anim.h ****  * @param a         pointer to an initialized `lv_anim_t` variable
 134:Drivers/lvgl/src/widgets/../core/../misc/lv_anim.h ****  * @param exec_cb   a function to execute during animation
 135:Drivers/lvgl/src/widgets/../core/../misc/lv_anim.h ****  *                  LVGL's built-in functions can be used.
 136:Drivers/lvgl/src/widgets/../core/../misc/lv_anim.h ****  *                  E.g. lv_obj_set_x
 137:Drivers/lvgl/src/widgets/../core/../misc/lv_anim.h ****  */
 138:Drivers/lvgl/src/widgets/../core/../misc/lv_anim.h **** static inline void lv_anim_set_exec_cb(lv_anim_t * a, lv_anim_exec_xcb_t exec_cb)
 253              		.loc 4 138 20 view .LVU70
 254              	.LBB116:
 139:Drivers/lvgl/src/widgets/../core/../misc/lv_anim.h **** {
 140:Drivers/lvgl/src/widgets/../core/../misc/lv_anim.h ****     a->exec_cb = exec_cb;
 255              		.loc 4 140 5 view .LVU71
 256              		.loc 4 140 16 is_stmt 0 view .LVU72
 257 0034 094B     		ldr	r3, .L14
 258 0036 0293     		str	r3, [sp, #8]
 259              	.LVL16:
 260              		.loc 4 140 16 view .LVU73
 261              	.LBE116:
 262              	.LBE115:
1042:Drivers/lvgl/src/widgets/lv_textarea.c ****         lv_anim_set_playback_time(&a, blink_time);
 263              		.loc 1 1042 9 is_stmt 1 view .LVU74
 264              	.LBB117:
 265              	.LBI117:
 141:Drivers/lvgl/src/widgets/../core/../misc/lv_anim.h **** }
 142:Drivers/lvgl/src/widgets/../core/../misc/lv_anim.h **** 
 143:Drivers/lvgl/src/widgets/../core/../misc/lv_anim.h **** /**
 144:Drivers/lvgl/src/widgets/../core/../misc/lv_anim.h ****  * Set the duration of an animation
 145:Drivers/lvgl/src/widgets/../core/../misc/lv_anim.h ****  * @param a         pointer to an initialized `lv_anim_t` variable
 146:Drivers/lvgl/src/widgets/../core/../misc/lv_anim.h ****  * @param duration  duration of the animation in milliseconds
 147:Drivers/lvgl/src/widgets/../core/../misc/lv_anim.h ****  */
 148:Drivers/lvgl/src/widgets/../core/../misc/lv_anim.h **** static inline void lv_anim_set_time(lv_anim_t * a, uint32_t duration)
 266              		.loc 4 148 20 view .LVU75
 267              	.LBB118:
 149:Drivers/lvgl/src/widgets/../core/../misc/lv_anim.h **** {
 150:Drivers/lvgl/src/widgets/../core/../misc/lv_anim.h ****     a->time = duration;
 268              		.loc 4 150 5 view .LVU76
 269              		.loc 4 150 13 is_stmt 0 view .LVU77
 270 0038 0C95     		str	r5, [sp, #48]
 271              	.LVL17:
 272              		.loc 4 150 13 view .LVU78
 273              	.LBE118:
 274              	.LBE117:
1043:Drivers/lvgl/src/widgets/lv_textarea.c ****         lv_anim_set_values(&a, 1, 0);
 275              		.loc 1 1043 9 is_stmt 1 view .LVU79
 276              	.LBB119:
 277              	.LBI119:
 151:Drivers/lvgl/src/widgets/../core/../misc/lv_anim.h **** }
 152:Drivers/lvgl/src/widgets/../core/../misc/lv_anim.h **** 
 153:Drivers/lvgl/src/widgets/../core/../misc/lv_anim.h **** /**
 154:Drivers/lvgl/src/widgets/../core/../misc/lv_anim.h ****  * Set a delay before starting the animation
 155:Drivers/lvgl/src/widgets/../core/../misc/lv_anim.h ****  * @param a         pointer to an initialized `lv_anim_t` variable
 156:Drivers/lvgl/src/widgets/../core/../misc/lv_anim.h ****  * @param delay     delay before the animation in milliseconds
 157:Drivers/lvgl/src/widgets/../core/../misc/lv_anim.h ****  */
 158:Drivers/lvgl/src/widgets/../core/../misc/lv_anim.h **** static inline void lv_anim_set_delay(lv_anim_t * a, uint32_t delay)
 159:Drivers/lvgl/src/widgets/../core/../misc/lv_anim.h **** {
ARM GAS  /var/folders/0z/tsy30v1j4xl4_7kw94k978ww0000gn/T//ccHqi1ZK.s 			page 39


 160:Drivers/lvgl/src/widgets/../core/../misc/lv_anim.h ****     a->act_time = -(int32_t)(delay);
 161:Drivers/lvgl/src/widgets/../core/../misc/lv_anim.h **** }
 162:Drivers/lvgl/src/widgets/../core/../misc/lv_anim.h **** 
 163:Drivers/lvgl/src/widgets/../core/../misc/lv_anim.h **** /**
 164:Drivers/lvgl/src/widgets/../core/../misc/lv_anim.h ****  * Set the start and end values of an animation
 165:Drivers/lvgl/src/widgets/../core/../misc/lv_anim.h ****  * @param a         pointer to an initialized `lv_anim_t` variable
 166:Drivers/lvgl/src/widgets/../core/../misc/lv_anim.h ****  * @param start     the start value
 167:Drivers/lvgl/src/widgets/../core/../misc/lv_anim.h ****  * @param end       the end value
 168:Drivers/lvgl/src/widgets/../core/../misc/lv_anim.h ****  */
 169:Drivers/lvgl/src/widgets/../core/../misc/lv_anim.h **** static inline void lv_anim_set_values(lv_anim_t * a, int32_t start, int32_t end)
 170:Drivers/lvgl/src/widgets/../core/../misc/lv_anim.h **** {
 171:Drivers/lvgl/src/widgets/../core/../misc/lv_anim.h ****     a->start_value = start;
 172:Drivers/lvgl/src/widgets/../core/../misc/lv_anim.h ****     a->current_value = start;
 173:Drivers/lvgl/src/widgets/../core/../misc/lv_anim.h ****     a->end_value = end;
 174:Drivers/lvgl/src/widgets/../core/../misc/lv_anim.h **** }
 175:Drivers/lvgl/src/widgets/../core/../misc/lv_anim.h **** 
 176:Drivers/lvgl/src/widgets/../core/../misc/lv_anim.h **** /**
 177:Drivers/lvgl/src/widgets/../core/../misc/lv_anim.h ****  * Similar to `lv_anim_set_exec_cb` but `lv_anim_custom_exec_cb_t` receives
 178:Drivers/lvgl/src/widgets/../core/../misc/lv_anim.h ****  * `lv_anim_t * ` as its first parameter instead of `void *`.
 179:Drivers/lvgl/src/widgets/../core/../misc/lv_anim.h ****  * This function might be used when LVGL is bound to other languages because
 180:Drivers/lvgl/src/widgets/../core/../misc/lv_anim.h ****  * it's more consistent to have `lv_anim_t *` as first parameter.
 181:Drivers/lvgl/src/widgets/../core/../misc/lv_anim.h ****  * The variable to animate can be stored in the animation's `user_data`
 182:Drivers/lvgl/src/widgets/../core/../misc/lv_anim.h ****  * @param a         pointer to an initialized `lv_anim_t` variable
 183:Drivers/lvgl/src/widgets/../core/../misc/lv_anim.h ****  * @param exec_cb   a function to execute.
 184:Drivers/lvgl/src/widgets/../core/../misc/lv_anim.h ****  */
 185:Drivers/lvgl/src/widgets/../core/../misc/lv_anim.h **** static inline void lv_anim_set_custom_exec_cb(lv_anim_t * a, lv_anim_custom_exec_cb_t exec_cb)
 186:Drivers/lvgl/src/widgets/../core/../misc/lv_anim.h **** {
 187:Drivers/lvgl/src/widgets/../core/../misc/lv_anim.h ****     a->var     = a;
 188:Drivers/lvgl/src/widgets/../core/../misc/lv_anim.h ****     a->exec_cb = (lv_anim_exec_xcb_t)exec_cb;
 189:Drivers/lvgl/src/widgets/../core/../misc/lv_anim.h **** }
 190:Drivers/lvgl/src/widgets/../core/../misc/lv_anim.h **** 
 191:Drivers/lvgl/src/widgets/../core/../misc/lv_anim.h **** /**
 192:Drivers/lvgl/src/widgets/../core/../misc/lv_anim.h ****  * Set the path (curve) of the animation.
 193:Drivers/lvgl/src/widgets/../core/../misc/lv_anim.h ****  * @param a         pointer to an initialized `lv_anim_t` variable
 194:Drivers/lvgl/src/widgets/../core/../misc/lv_anim.h ****  * @param path_cb a function to set the current value of the animation.
 195:Drivers/lvgl/src/widgets/../core/../misc/lv_anim.h ****  */
 196:Drivers/lvgl/src/widgets/../core/../misc/lv_anim.h **** static inline void lv_anim_set_path_cb(lv_anim_t * a, lv_anim_path_cb_t path_cb)
 197:Drivers/lvgl/src/widgets/../core/../misc/lv_anim.h **** {
 198:Drivers/lvgl/src/widgets/../core/../misc/lv_anim.h ****     a->path_cb = path_cb;
 199:Drivers/lvgl/src/widgets/../core/../misc/lv_anim.h **** }
 200:Drivers/lvgl/src/widgets/../core/../misc/lv_anim.h **** 
 201:Drivers/lvgl/src/widgets/../core/../misc/lv_anim.h **** /**
 202:Drivers/lvgl/src/widgets/../core/../misc/lv_anim.h ****  * Set a function call when the animation really starts (considering `delay`)
 203:Drivers/lvgl/src/widgets/../core/../misc/lv_anim.h ****  * @param a         pointer to an initialized `lv_anim_t` variable
 204:Drivers/lvgl/src/widgets/../core/../misc/lv_anim.h ****  * @param start_cb  a function call when the animation starts
 205:Drivers/lvgl/src/widgets/../core/../misc/lv_anim.h ****  */
 206:Drivers/lvgl/src/widgets/../core/../misc/lv_anim.h **** static inline void lv_anim_set_start_cb(lv_anim_t * a, lv_anim_start_cb_t start_cb)
 207:Drivers/lvgl/src/widgets/../core/../misc/lv_anim.h **** {
 208:Drivers/lvgl/src/widgets/../core/../misc/lv_anim.h ****     a->start_cb = start_cb;
 209:Drivers/lvgl/src/widgets/../core/../misc/lv_anim.h **** }
 210:Drivers/lvgl/src/widgets/../core/../misc/lv_anim.h **** 
 211:Drivers/lvgl/src/widgets/../core/../misc/lv_anim.h **** /**
 212:Drivers/lvgl/src/widgets/../core/../misc/lv_anim.h ****  * Set a function to use the current value of the variable and make start and end value
 213:Drivers/lvgl/src/widgets/../core/../misc/lv_anim.h ****  * relative to the returned current value.
 214:Drivers/lvgl/src/widgets/../core/../misc/lv_anim.h ****  * @param a             pointer to an initialized `lv_anim_t` variable
 215:Drivers/lvgl/src/widgets/../core/../misc/lv_anim.h ****  * @param get_value_cb  a function call when the animation starts
 216:Drivers/lvgl/src/widgets/../core/../misc/lv_anim.h ****  */
ARM GAS  /var/folders/0z/tsy30v1j4xl4_7kw94k978ww0000gn/T//ccHqi1ZK.s 			page 40


 217:Drivers/lvgl/src/widgets/../core/../misc/lv_anim.h **** static inline void lv_anim_set_get_value_cb(lv_anim_t * a, lv_anim_get_value_cb_t get_value_cb)
 218:Drivers/lvgl/src/widgets/../core/../misc/lv_anim.h **** {
 219:Drivers/lvgl/src/widgets/../core/../misc/lv_anim.h ****     a->get_value_cb = get_value_cb;
 220:Drivers/lvgl/src/widgets/../core/../misc/lv_anim.h **** }
 221:Drivers/lvgl/src/widgets/../core/../misc/lv_anim.h **** 
 222:Drivers/lvgl/src/widgets/../core/../misc/lv_anim.h **** /**
 223:Drivers/lvgl/src/widgets/../core/../misc/lv_anim.h ****  * Set a function call when the animation is ready
 224:Drivers/lvgl/src/widgets/../core/../misc/lv_anim.h ****  * @param a         pointer to an initialized `lv_anim_t` variable
 225:Drivers/lvgl/src/widgets/../core/../misc/lv_anim.h ****  * @param ready_cb  a function call when the animation is ready
 226:Drivers/lvgl/src/widgets/../core/../misc/lv_anim.h ****  */
 227:Drivers/lvgl/src/widgets/../core/../misc/lv_anim.h **** static inline void lv_anim_set_ready_cb(lv_anim_t * a, lv_anim_ready_cb_t ready_cb)
 228:Drivers/lvgl/src/widgets/../core/../misc/lv_anim.h **** {
 229:Drivers/lvgl/src/widgets/../core/../misc/lv_anim.h ****     a->ready_cb = ready_cb;
 230:Drivers/lvgl/src/widgets/../core/../misc/lv_anim.h **** }
 231:Drivers/lvgl/src/widgets/../core/../misc/lv_anim.h **** 
 232:Drivers/lvgl/src/widgets/../core/../misc/lv_anim.h **** /**
 233:Drivers/lvgl/src/widgets/../core/../misc/lv_anim.h ****  * Set a function call when the animation is deleted.
 234:Drivers/lvgl/src/widgets/../core/../misc/lv_anim.h ****  * @param a         pointer to an initialized `lv_anim_t` variable
 235:Drivers/lvgl/src/widgets/../core/../misc/lv_anim.h ****  * @param deleted_cb  a function call when the animation is deleted
 236:Drivers/lvgl/src/widgets/../core/../misc/lv_anim.h ****  */
 237:Drivers/lvgl/src/widgets/../core/../misc/lv_anim.h **** static inline void lv_anim_set_deleted_cb(lv_anim_t * a, lv_anim_deleted_cb_t deleted_cb)
 238:Drivers/lvgl/src/widgets/../core/../misc/lv_anim.h **** {
 239:Drivers/lvgl/src/widgets/../core/../misc/lv_anim.h ****     a->deleted_cb = deleted_cb;
 240:Drivers/lvgl/src/widgets/../core/../misc/lv_anim.h **** }
 241:Drivers/lvgl/src/widgets/../core/../misc/lv_anim.h **** 
 242:Drivers/lvgl/src/widgets/../core/../misc/lv_anim.h **** /**
 243:Drivers/lvgl/src/widgets/../core/../misc/lv_anim.h ****  * Make the animation to play back to when the forward direction is ready
 244:Drivers/lvgl/src/widgets/../core/../misc/lv_anim.h ****  * @param a         pointer to an initialized `lv_anim_t` variable
 245:Drivers/lvgl/src/widgets/../core/../misc/lv_anim.h ****  * @param time      the duration of the playback animation in milliseconds. 0: disable playback
 246:Drivers/lvgl/src/widgets/../core/../misc/lv_anim.h ****  */
 247:Drivers/lvgl/src/widgets/../core/../misc/lv_anim.h **** static inline void lv_anim_set_playback_time(lv_anim_t * a, uint32_t time)
 278              		.loc 4 247 20 view .LVU80
 279              	.LBB120:
 248:Drivers/lvgl/src/widgets/../core/../misc/lv_anim.h **** {
 249:Drivers/lvgl/src/widgets/../core/../misc/lv_anim.h ****     a->playback_time = time;
 280              		.loc 4 249 5 view .LVU81
 281              		.loc 4 249 22 is_stmt 0 view .LVU82
 282 003a 0F95     		str	r5, [sp, #60]
 283              	.LVL18:
 284              		.loc 4 249 22 view .LVU83
 285              	.LBE120:
 286              	.LBE119:
1044:Drivers/lvgl/src/widgets/lv_textarea.c ****         lv_anim_set_path_cb(&a, lv_anim_path_step);
 287              		.loc 1 1044 9 is_stmt 1 view .LVU84
 288              	.LBB121:
 289              	.LBI121:
 169:Drivers/lvgl/src/widgets/../core/../misc/lv_anim.h **** {
 290              		.loc 4 169 20 view .LVU85
 291              	.LBB122:
 171:Drivers/lvgl/src/widgets/../core/../misc/lv_anim.h ****     a->current_value = start;
 292              		.loc 4 171 5 view .LVU86
 171:Drivers/lvgl/src/widgets/../core/../misc/lv_anim.h ****     a->current_value = start;
 293              		.loc 4 171 20 is_stmt 0 view .LVU87
 294 003c 0123     		movs	r3, #1
 295 003e 0993     		str	r3, [sp, #36]
 172:Drivers/lvgl/src/widgets/../core/../misc/lv_anim.h ****     a->end_value = end;
 296              		.loc 4 172 5 is_stmt 1 view .LVU88
ARM GAS  /var/folders/0z/tsy30v1j4xl4_7kw94k978ww0000gn/T//ccHqi1ZK.s 			page 41


 172:Drivers/lvgl/src/widgets/../core/../misc/lv_anim.h ****     a->end_value = end;
 297              		.loc 4 172 22 is_stmt 0 view .LVU89
 298 0040 0A93     		str	r3, [sp, #40]
 173:Drivers/lvgl/src/widgets/../core/../misc/lv_anim.h **** }
 299              		.loc 4 173 5 is_stmt 1 view .LVU90
 173:Drivers/lvgl/src/widgets/../core/../misc/lv_anim.h **** }
 300              		.loc 4 173 18 is_stmt 0 view .LVU91
 301 0042 0023     		movs	r3, #0
 302 0044 0B93     		str	r3, [sp, #44]
 303              	.LVL19:
 173:Drivers/lvgl/src/widgets/../core/../misc/lv_anim.h **** }
 304              		.loc 4 173 18 view .LVU92
 305              	.LBE122:
 306              	.LBE121:
1045:Drivers/lvgl/src/widgets/lv_textarea.c ****         lv_anim_set_repeat_count(&a, LV_ANIM_REPEAT_INFINITE);
 307              		.loc 1 1045 9 is_stmt 1 view .LVU93
 308              	.LBB123:
 309              	.LBI123:
 196:Drivers/lvgl/src/widgets/../core/../misc/lv_anim.h **** {
 310              		.loc 4 196 20 view .LVU94
 311              	.LBB124:
 198:Drivers/lvgl/src/widgets/../core/../misc/lv_anim.h **** }
 312              		.loc 4 198 5 view .LVU95
 198:Drivers/lvgl/src/widgets/../core/../misc/lv_anim.h **** }
 313              		.loc 4 198 16 is_stmt 0 view .LVU96
 314 0046 064B     		ldr	r3, .L14+4
 315 0048 0893     		str	r3, [sp, #32]
 316              	.LVL20:
 198:Drivers/lvgl/src/widgets/../core/../misc/lv_anim.h **** }
 317              		.loc 4 198 16 view .LVU97
 318              	.LBE124:
 319              	.LBE123:
1046:Drivers/lvgl/src/widgets/lv_textarea.c ****         lv_anim_start(&a);
 320              		.loc 1 1046 9 is_stmt 1 view .LVU98
 321              	.LBB125:
 322              	.LBI125:
 250:Drivers/lvgl/src/widgets/../core/../misc/lv_anim.h **** }
 251:Drivers/lvgl/src/widgets/../core/../misc/lv_anim.h **** 
 252:Drivers/lvgl/src/widgets/../core/../misc/lv_anim.h **** /**
 253:Drivers/lvgl/src/widgets/../core/../misc/lv_anim.h ****  * Make the animation to play back to when the forward direction is ready
 254:Drivers/lvgl/src/widgets/../core/../misc/lv_anim.h ****  * @param a         pointer to an initialized `lv_anim_t` variable
 255:Drivers/lvgl/src/widgets/../core/../misc/lv_anim.h ****  * @param delay     delay in milliseconds before starting the playback animation.
 256:Drivers/lvgl/src/widgets/../core/../misc/lv_anim.h ****  */
 257:Drivers/lvgl/src/widgets/../core/../misc/lv_anim.h **** static inline void lv_anim_set_playback_delay(lv_anim_t * a, uint32_t delay)
 258:Drivers/lvgl/src/widgets/../core/../misc/lv_anim.h **** {
 259:Drivers/lvgl/src/widgets/../core/../misc/lv_anim.h ****     a->playback_delay = delay;
 260:Drivers/lvgl/src/widgets/../core/../misc/lv_anim.h **** }
 261:Drivers/lvgl/src/widgets/../core/../misc/lv_anim.h **** 
 262:Drivers/lvgl/src/widgets/../core/../misc/lv_anim.h **** /**
 263:Drivers/lvgl/src/widgets/../core/../misc/lv_anim.h ****  * Make the animation repeat itself.
 264:Drivers/lvgl/src/widgets/../core/../misc/lv_anim.h ****  * @param a         pointer to an initialized `lv_anim_t` variable
 265:Drivers/lvgl/src/widgets/../core/../misc/lv_anim.h ****  * @param cnt       repeat count or `LV_ANIM_REPEAT_INFINITE` for infinite repetition. 0: to disabl
 266:Drivers/lvgl/src/widgets/../core/../misc/lv_anim.h ****  */
 267:Drivers/lvgl/src/widgets/../core/../misc/lv_anim.h **** static inline void lv_anim_set_repeat_count(lv_anim_t * a, uint16_t cnt)
 323              		.loc 4 267 20 view .LVU99
 324              	.LBB126:
 268:Drivers/lvgl/src/widgets/../core/../misc/lv_anim.h **** {
ARM GAS  /var/folders/0z/tsy30v1j4xl4_7kw94k978ww0000gn/T//ccHqi1ZK.s 			page 42


 269:Drivers/lvgl/src/widgets/../core/../misc/lv_anim.h ****     a->repeat_cnt = cnt;
 325              		.loc 4 269 5 view .LVU100
 326              		.loc 4 269 19 is_stmt 0 view .LVU101
 327 004a 4FF6FF73 		movw	r3, #65535
 328 004e ADF84430 		strh	r3, [sp, #68]	@ movhi
 329              	.LVL21:
 330              		.loc 4 269 19 view .LVU102
 331              	.LBE126:
 332              	.LBE125:
1047:Drivers/lvgl/src/widgets/lv_textarea.c ****     }
 333              		.loc 1 1047 9 is_stmt 1 view .LVU103
 334 0052 01A8     		add	r0, sp, #4
 335 0054 FFF7FEFF 		bl	lv_anim_start
 336              	.LVL22:
 337              	.LBE112:
 338              		.loc 1 1049 1 is_stmt 0 view .LVU104
 339 0058 E5E7     		b	.L10
 340              	.L15:
 341 005a 00BF     		.align	2
 342              	.L14:
 343 005c 00000000 		.word	cursor_blink_anim_cb
 344 0060 00000000 		.word	lv_anim_path_step
 345              		.cfi_endproc
 346              	.LFE206:
 348              		.section	.text.draw_placeholder,"ax",%progbits
 349              		.align	1
 350              		.syntax unified
 351              		.thumb
 352              		.thumb_func
 354              	draw_placeholder:
 355              	.LVL23:
 356              	.LFB210:
1050:Drivers/lvgl/src/widgets/lv_textarea.c **** 
1051:Drivers/lvgl/src/widgets/lv_textarea.c **** static void refr_cursor_area(lv_obj_t * obj)
1052:Drivers/lvgl/src/widgets/lv_textarea.c **** {
1053:Drivers/lvgl/src/widgets/lv_textarea.c ****     lv_textarea_t * ta = (lv_textarea_t *)obj;
1054:Drivers/lvgl/src/widgets/lv_textarea.c **** 
1055:Drivers/lvgl/src/widgets/lv_textarea.c ****     const lv_font_t * font = lv_obj_get_style_text_font(obj, LV_PART_MAIN);
1056:Drivers/lvgl/src/widgets/lv_textarea.c ****     lv_coord_t line_space = lv_obj_get_style_text_line_space(obj, LV_PART_MAIN);
1057:Drivers/lvgl/src/widgets/lv_textarea.c **** 
1058:Drivers/lvgl/src/widgets/lv_textarea.c ****     uint32_t cur_pos = lv_textarea_get_cursor_pos(obj);
1059:Drivers/lvgl/src/widgets/lv_textarea.c ****     const char * txt = lv_label_get_text(ta->label);
1060:Drivers/lvgl/src/widgets/lv_textarea.c **** 
1061:Drivers/lvgl/src/widgets/lv_textarea.c ****     uint32_t byte_pos = _lv_txt_encoded_get_byte_id(txt, cur_pos);
1062:Drivers/lvgl/src/widgets/lv_textarea.c ****     uint32_t letter = _lv_txt_encoded_next(&txt[byte_pos], NULL);
1063:Drivers/lvgl/src/widgets/lv_textarea.c **** 
1064:Drivers/lvgl/src/widgets/lv_textarea.c ****     /* Letter height and width */
1065:Drivers/lvgl/src/widgets/lv_textarea.c ****     const lv_coord_t letter_h = lv_font_get_line_height(font);
1066:Drivers/lvgl/src/widgets/lv_textarea.c ****     /*Set letter_w (set not 0 on non printable but valid chars)*/
1067:Drivers/lvgl/src/widgets/lv_textarea.c ****     uint32_t letter_space = letter;
1068:Drivers/lvgl/src/widgets/lv_textarea.c ****     if(is_valid_but_non_printable_char(letter)) {
1069:Drivers/lvgl/src/widgets/lv_textarea.c ****         letter_space = ' ';
1070:Drivers/lvgl/src/widgets/lv_textarea.c ****     }
1071:Drivers/lvgl/src/widgets/lv_textarea.c ****     lv_coord_t letter_w = lv_font_get_glyph_width(font, letter_space, IGNORE_KERNING);
1072:Drivers/lvgl/src/widgets/lv_textarea.c **** 
1073:Drivers/lvgl/src/widgets/lv_textarea.c ****     lv_point_t letter_pos;
1074:Drivers/lvgl/src/widgets/lv_textarea.c ****     lv_label_get_letter_pos(ta->label, cur_pos, &letter_pos);
ARM GAS  /var/folders/0z/tsy30v1j4xl4_7kw94k978ww0000gn/T//ccHqi1ZK.s 			page 43


1075:Drivers/lvgl/src/widgets/lv_textarea.c **** 
1076:Drivers/lvgl/src/widgets/lv_textarea.c ****     lv_text_align_t align = lv_obj_calculate_style_text_align(ta->label, LV_PART_MAIN, lv_label_get
1077:Drivers/lvgl/src/widgets/lv_textarea.c **** 
1078:Drivers/lvgl/src/widgets/lv_textarea.c ****     /*If the cursor is out of the text (most right) draw it to the next line*/
1079:Drivers/lvgl/src/widgets/lv_textarea.c ****     if(((letter_pos.x + ta->label->coords.x1) + letter_w > ta->label->coords.x2) &&
1080:Drivers/lvgl/src/widgets/lv_textarea.c ****        (ta->one_line == 0 && align != LV_TEXT_ALIGN_RIGHT)) {
1081:Drivers/lvgl/src/widgets/lv_textarea.c **** 
1082:Drivers/lvgl/src/widgets/lv_textarea.c ****         letter_pos.x = 0;
1083:Drivers/lvgl/src/widgets/lv_textarea.c ****         letter_pos.y += letter_h + line_space;
1084:Drivers/lvgl/src/widgets/lv_textarea.c **** 
1085:Drivers/lvgl/src/widgets/lv_textarea.c ****         if(letter != '\0') {
1086:Drivers/lvgl/src/widgets/lv_textarea.c ****             byte_pos += _lv_txt_encoded_size(&txt[byte_pos]);
1087:Drivers/lvgl/src/widgets/lv_textarea.c ****             letter = _lv_txt_encoded_next(&txt[byte_pos], NULL);
1088:Drivers/lvgl/src/widgets/lv_textarea.c ****         }
1089:Drivers/lvgl/src/widgets/lv_textarea.c **** 
1090:Drivers/lvgl/src/widgets/lv_textarea.c ****         uint32_t tmp = letter;
1091:Drivers/lvgl/src/widgets/lv_textarea.c ****         if(is_valid_but_non_printable_char(letter)) {
1092:Drivers/lvgl/src/widgets/lv_textarea.c ****             tmp = ' ';
1093:Drivers/lvgl/src/widgets/lv_textarea.c ****         }
1094:Drivers/lvgl/src/widgets/lv_textarea.c ****         letter_w = lv_font_get_glyph_width(font, tmp, IGNORE_KERNING);
1095:Drivers/lvgl/src/widgets/lv_textarea.c ****     }
1096:Drivers/lvgl/src/widgets/lv_textarea.c **** 
1097:Drivers/lvgl/src/widgets/lv_textarea.c ****     /*Save the byte position. It is required to draw `LV_CURSOR_BLOCK`*/
1098:Drivers/lvgl/src/widgets/lv_textarea.c ****     ta->cursor.txt_byte_pos = byte_pos;
1099:Drivers/lvgl/src/widgets/lv_textarea.c **** 
1100:Drivers/lvgl/src/widgets/lv_textarea.c ****     /*Calculate the cursor according to its type*/
1101:Drivers/lvgl/src/widgets/lv_textarea.c ****     lv_coord_t border_width = lv_obj_get_style_border_width(obj, LV_PART_CURSOR);
1102:Drivers/lvgl/src/widgets/lv_textarea.c ****     lv_coord_t top = lv_obj_get_style_pad_top(obj, LV_PART_CURSOR) + border_width;
1103:Drivers/lvgl/src/widgets/lv_textarea.c ****     lv_coord_t bottom = lv_obj_get_style_pad_bottom(obj, LV_PART_CURSOR) + border_width;
1104:Drivers/lvgl/src/widgets/lv_textarea.c ****     lv_coord_t left = lv_obj_get_style_pad_left(obj, LV_PART_CURSOR) + border_width;
1105:Drivers/lvgl/src/widgets/lv_textarea.c ****     lv_coord_t right = lv_obj_get_style_pad_right(obj, LV_PART_CURSOR) + border_width;
1106:Drivers/lvgl/src/widgets/lv_textarea.c **** 
1107:Drivers/lvgl/src/widgets/lv_textarea.c ****     lv_area_t cur_area;
1108:Drivers/lvgl/src/widgets/lv_textarea.c ****     cur_area.x1 = letter_pos.x - left;
1109:Drivers/lvgl/src/widgets/lv_textarea.c ****     cur_area.y1 = letter_pos.y - top;
1110:Drivers/lvgl/src/widgets/lv_textarea.c ****     cur_area.x2 = letter_pos.x + right + letter_w - 1;
1111:Drivers/lvgl/src/widgets/lv_textarea.c ****     cur_area.y2 = letter_pos.y + bottom + letter_h - 1;
1112:Drivers/lvgl/src/widgets/lv_textarea.c **** 
1113:Drivers/lvgl/src/widgets/lv_textarea.c ****     /*Save the new area*/
1114:Drivers/lvgl/src/widgets/lv_textarea.c ****     lv_area_t area_tmp;
1115:Drivers/lvgl/src/widgets/lv_textarea.c ****     lv_area_copy(&area_tmp, &ta->cursor.area);
1116:Drivers/lvgl/src/widgets/lv_textarea.c ****     area_tmp.x1 += ta->label->coords.x1;
1117:Drivers/lvgl/src/widgets/lv_textarea.c ****     area_tmp.y1 += ta->label->coords.y1;
1118:Drivers/lvgl/src/widgets/lv_textarea.c ****     area_tmp.x2 += ta->label->coords.x1;
1119:Drivers/lvgl/src/widgets/lv_textarea.c ****     area_tmp.y2 += ta->label->coords.y1;
1120:Drivers/lvgl/src/widgets/lv_textarea.c ****     lv_obj_invalidate_area(obj, &area_tmp);
1121:Drivers/lvgl/src/widgets/lv_textarea.c **** 
1122:Drivers/lvgl/src/widgets/lv_textarea.c ****     lv_area_copy(&ta->cursor.area, &cur_area);
1123:Drivers/lvgl/src/widgets/lv_textarea.c **** 
1124:Drivers/lvgl/src/widgets/lv_textarea.c ****     lv_area_copy(&area_tmp, &ta->cursor.area);
1125:Drivers/lvgl/src/widgets/lv_textarea.c ****     area_tmp.x1 += ta->label->coords.x1;
1126:Drivers/lvgl/src/widgets/lv_textarea.c ****     area_tmp.y1 += ta->label->coords.y1;
1127:Drivers/lvgl/src/widgets/lv_textarea.c ****     area_tmp.x2 += ta->label->coords.x1;
1128:Drivers/lvgl/src/widgets/lv_textarea.c ****     area_tmp.y2 += ta->label->coords.y1;
1129:Drivers/lvgl/src/widgets/lv_textarea.c ****     lv_obj_invalidate_area(obj, &area_tmp);
1130:Drivers/lvgl/src/widgets/lv_textarea.c **** }
1131:Drivers/lvgl/src/widgets/lv_textarea.c **** 
ARM GAS  /var/folders/0z/tsy30v1j4xl4_7kw94k978ww0000gn/T//ccHqi1ZK.s 			page 44


1132:Drivers/lvgl/src/widgets/lv_textarea.c **** static void update_cursor_position_on_click(lv_event_t * e)
1133:Drivers/lvgl/src/widgets/lv_textarea.c **** {
1134:Drivers/lvgl/src/widgets/lv_textarea.c ****     lv_indev_t * click_source = lv_indev_get_act();
1135:Drivers/lvgl/src/widgets/lv_textarea.c ****     if(click_source == NULL) return;
1136:Drivers/lvgl/src/widgets/lv_textarea.c **** 
1137:Drivers/lvgl/src/widgets/lv_textarea.c ****     lv_obj_t * obj = lv_event_get_target(e);
1138:Drivers/lvgl/src/widgets/lv_textarea.c ****     lv_textarea_t * ta = (lv_textarea_t *)obj;
1139:Drivers/lvgl/src/widgets/lv_textarea.c ****     if(ta->cursor.click_pos == 0) return;
1140:Drivers/lvgl/src/widgets/lv_textarea.c **** 
1141:Drivers/lvgl/src/widgets/lv_textarea.c ****     if(lv_indev_get_type(click_source) == LV_INDEV_TYPE_KEYPAD ||
1142:Drivers/lvgl/src/widgets/lv_textarea.c ****        lv_indev_get_type(click_source) == LV_INDEV_TYPE_ENCODER) {
1143:Drivers/lvgl/src/widgets/lv_textarea.c ****         return;
1144:Drivers/lvgl/src/widgets/lv_textarea.c ****     }
1145:Drivers/lvgl/src/widgets/lv_textarea.c **** 
1146:Drivers/lvgl/src/widgets/lv_textarea.c ****     lv_area_t label_coords;
1147:Drivers/lvgl/src/widgets/lv_textarea.c ****     lv_obj_get_coords(ta->label, &label_coords);
1148:Drivers/lvgl/src/widgets/lv_textarea.c **** 
1149:Drivers/lvgl/src/widgets/lv_textarea.c ****     lv_point_t point_act, vect_act;
1150:Drivers/lvgl/src/widgets/lv_textarea.c ****     lv_indev_get_point(click_source, &point_act);
1151:Drivers/lvgl/src/widgets/lv_textarea.c ****     lv_indev_get_vect(click_source, &vect_act);
1152:Drivers/lvgl/src/widgets/lv_textarea.c **** 
1153:Drivers/lvgl/src/widgets/lv_textarea.c ****     if(point_act.x < 0 || point_act.y < 0) return; /*Ignore event from keypad*/
1154:Drivers/lvgl/src/widgets/lv_textarea.c ****     lv_point_t rel_pos;
1155:Drivers/lvgl/src/widgets/lv_textarea.c ****     rel_pos.x = point_act.x - label_coords.x1;
1156:Drivers/lvgl/src/widgets/lv_textarea.c ****     rel_pos.y = point_act.y - label_coords.y1;
1157:Drivers/lvgl/src/widgets/lv_textarea.c **** 
1158:Drivers/lvgl/src/widgets/lv_textarea.c ****     const lv_event_code_t code = lv_event_get_code(e);
1159:Drivers/lvgl/src/widgets/lv_textarea.c **** 
1160:Drivers/lvgl/src/widgets/lv_textarea.c ****     lv_coord_t label_width = lv_obj_get_width(ta->label);
1161:Drivers/lvgl/src/widgets/lv_textarea.c ****     uint16_t char_id_at_click = 0;
1162:Drivers/lvgl/src/widgets/lv_textarea.c **** 
1163:Drivers/lvgl/src/widgets/lv_textarea.c **** #if LV_LABEL_TEXT_SELECTION
1164:Drivers/lvgl/src/widgets/lv_textarea.c ****     lv_label_t * label_data = (lv_label_t *)ta->label;
1165:Drivers/lvgl/src/widgets/lv_textarea.c ****     bool click_outside_label = false;
1166:Drivers/lvgl/src/widgets/lv_textarea.c ****     /*Check if the click happened on the left side of the area outside the label*/
1167:Drivers/lvgl/src/widgets/lv_textarea.c ****     if(rel_pos.x < 0) {
1168:Drivers/lvgl/src/widgets/lv_textarea.c ****         char_id_at_click = 0;
1169:Drivers/lvgl/src/widgets/lv_textarea.c ****         click_outside_label = true;
1170:Drivers/lvgl/src/widgets/lv_textarea.c ****     }
1171:Drivers/lvgl/src/widgets/lv_textarea.c ****     /*Check if the click happened on the right side of the area outside the label*/
1172:Drivers/lvgl/src/widgets/lv_textarea.c ****     else if(rel_pos.x >= label_width) {
1173:Drivers/lvgl/src/widgets/lv_textarea.c ****         char_id_at_click = LV_TEXTAREA_CURSOR_LAST;
1174:Drivers/lvgl/src/widgets/lv_textarea.c ****         click_outside_label = true;
1175:Drivers/lvgl/src/widgets/lv_textarea.c ****     }
1176:Drivers/lvgl/src/widgets/lv_textarea.c ****     else {
1177:Drivers/lvgl/src/widgets/lv_textarea.c ****         char_id_at_click = lv_label_get_letter_on(ta->label, &rel_pos);
1178:Drivers/lvgl/src/widgets/lv_textarea.c ****         click_outside_label = !lv_label_is_char_under_pos(ta->label, &rel_pos);
1179:Drivers/lvgl/src/widgets/lv_textarea.c ****     }
1180:Drivers/lvgl/src/widgets/lv_textarea.c **** 
1181:Drivers/lvgl/src/widgets/lv_textarea.c ****     if(ta->text_sel_en) {
1182:Drivers/lvgl/src/widgets/lv_textarea.c ****         if(!ta->text_sel_in_prog && !click_outside_label && code == LV_EVENT_PRESSED) {
1183:Drivers/lvgl/src/widgets/lv_textarea.c ****             /*Input device just went down. Store the selection start position*/
1184:Drivers/lvgl/src/widgets/lv_textarea.c ****             ta->sel_start    = char_id_at_click;
1185:Drivers/lvgl/src/widgets/lv_textarea.c ****             ta->sel_end      = LV_LABEL_TEXT_SELECTION_OFF;
1186:Drivers/lvgl/src/widgets/lv_textarea.c ****             ta->text_sel_in_prog = 1;
1187:Drivers/lvgl/src/widgets/lv_textarea.c ****             lv_obj_clear_flag(obj, LV_OBJ_FLAG_SCROLL_CHAIN);
1188:Drivers/lvgl/src/widgets/lv_textarea.c ****         }
ARM GAS  /var/folders/0z/tsy30v1j4xl4_7kw94k978ww0000gn/T//ccHqi1ZK.s 			page 45


1189:Drivers/lvgl/src/widgets/lv_textarea.c ****         else if(ta->text_sel_in_prog && code == LV_EVENT_PRESSING) {
1190:Drivers/lvgl/src/widgets/lv_textarea.c ****             /*Input device may be moving. Store the end position*/
1191:Drivers/lvgl/src/widgets/lv_textarea.c ****             ta->sel_end = char_id_at_click;
1192:Drivers/lvgl/src/widgets/lv_textarea.c ****         }
1193:Drivers/lvgl/src/widgets/lv_textarea.c ****         else if(ta->text_sel_in_prog && (code == LV_EVENT_PRESS_LOST || code == LV_EVENT_RELEASED))
1194:Drivers/lvgl/src/widgets/lv_textarea.c ****             /*Input device is released. Check if anything was selected.*/
1195:Drivers/lvgl/src/widgets/lv_textarea.c ****             lv_obj_add_flag(obj, LV_OBJ_FLAG_SCROLL_CHAIN);
1196:Drivers/lvgl/src/widgets/lv_textarea.c ****         }
1197:Drivers/lvgl/src/widgets/lv_textarea.c ****     }
1198:Drivers/lvgl/src/widgets/lv_textarea.c **** 
1199:Drivers/lvgl/src/widgets/lv_textarea.c ****     if(ta->text_sel_in_prog || code == LV_EVENT_PRESSED) lv_textarea_set_cursor_pos(obj, char_id_at
1200:Drivers/lvgl/src/widgets/lv_textarea.c **** 
1201:Drivers/lvgl/src/widgets/lv_textarea.c ****     if(ta->text_sel_in_prog) {
1202:Drivers/lvgl/src/widgets/lv_textarea.c ****         /*If the selected area has changed then update the real values and*/
1203:Drivers/lvgl/src/widgets/lv_textarea.c **** 
1204:Drivers/lvgl/src/widgets/lv_textarea.c ****         /*Invalidate the text area.*/
1205:Drivers/lvgl/src/widgets/lv_textarea.c ****         if(ta->sel_start > ta->sel_end) {
1206:Drivers/lvgl/src/widgets/lv_textarea.c ****             if(label_data->sel_start != ta->sel_end || label_data->sel_end != ta->sel_start) {
1207:Drivers/lvgl/src/widgets/lv_textarea.c ****                 label_data->sel_start = ta->sel_end;
1208:Drivers/lvgl/src/widgets/lv_textarea.c ****                 label_data->sel_end   = ta->sel_start;
1209:Drivers/lvgl/src/widgets/lv_textarea.c ****                 lv_obj_invalidate(obj);
1210:Drivers/lvgl/src/widgets/lv_textarea.c ****             }
1211:Drivers/lvgl/src/widgets/lv_textarea.c ****         }
1212:Drivers/lvgl/src/widgets/lv_textarea.c ****         else if(ta->sel_start < ta->sel_end) {
1213:Drivers/lvgl/src/widgets/lv_textarea.c ****             if(label_data->sel_start != ta->sel_start || label_data->sel_end != ta->sel_end) {
1214:Drivers/lvgl/src/widgets/lv_textarea.c ****                 label_data->sel_start = ta->sel_start;
1215:Drivers/lvgl/src/widgets/lv_textarea.c ****                 label_data->sel_end   = ta->sel_end;
1216:Drivers/lvgl/src/widgets/lv_textarea.c ****                 lv_obj_invalidate(obj);
1217:Drivers/lvgl/src/widgets/lv_textarea.c ****             }
1218:Drivers/lvgl/src/widgets/lv_textarea.c ****         }
1219:Drivers/lvgl/src/widgets/lv_textarea.c ****         else {
1220:Drivers/lvgl/src/widgets/lv_textarea.c ****             if(label_data->sel_start != LV_DRAW_LABEL_NO_TXT_SEL || label_data->sel_end != LV_DRAW_
1221:Drivers/lvgl/src/widgets/lv_textarea.c ****                 label_data->sel_start = LV_DRAW_LABEL_NO_TXT_SEL;
1222:Drivers/lvgl/src/widgets/lv_textarea.c ****                 label_data->sel_end   = LV_DRAW_LABEL_NO_TXT_SEL;
1223:Drivers/lvgl/src/widgets/lv_textarea.c ****                 lv_obj_invalidate(obj);
1224:Drivers/lvgl/src/widgets/lv_textarea.c ****             }
1225:Drivers/lvgl/src/widgets/lv_textarea.c ****         }
1226:Drivers/lvgl/src/widgets/lv_textarea.c ****         /*Finish selection if necessary*/
1227:Drivers/lvgl/src/widgets/lv_textarea.c ****         if(code == LV_EVENT_PRESS_LOST || code == LV_EVENT_RELEASED) {
1228:Drivers/lvgl/src/widgets/lv_textarea.c ****             ta->text_sel_in_prog = 0;
1229:Drivers/lvgl/src/widgets/lv_textarea.c ****         }
1230:Drivers/lvgl/src/widgets/lv_textarea.c ****     }
1231:Drivers/lvgl/src/widgets/lv_textarea.c **** #else
1232:Drivers/lvgl/src/widgets/lv_textarea.c ****     /*Check if the click happened on the left side of the area outside the label*/
1233:Drivers/lvgl/src/widgets/lv_textarea.c ****     if(rel_pos.x < 0) {
1234:Drivers/lvgl/src/widgets/lv_textarea.c ****         char_id_at_click = 0;
1235:Drivers/lvgl/src/widgets/lv_textarea.c ****     }
1236:Drivers/lvgl/src/widgets/lv_textarea.c ****     /*Check if the click happened on the right side of the area outside the label*/
1237:Drivers/lvgl/src/widgets/lv_textarea.c ****     else if(rel_pos.x >= label_width) {
1238:Drivers/lvgl/src/widgets/lv_textarea.c ****         char_id_at_click = LV_TEXTAREA_CURSOR_LAST;
1239:Drivers/lvgl/src/widgets/lv_textarea.c ****     }
1240:Drivers/lvgl/src/widgets/lv_textarea.c ****     else {
1241:Drivers/lvgl/src/widgets/lv_textarea.c ****         char_id_at_click = lv_label_get_letter_on(ta->label, &rel_pos);
1242:Drivers/lvgl/src/widgets/lv_textarea.c ****     }
1243:Drivers/lvgl/src/widgets/lv_textarea.c **** 
1244:Drivers/lvgl/src/widgets/lv_textarea.c ****     if(code == LV_EVENT_PRESSED) lv_textarea_set_cursor_pos(obj, char_id_at_click);
1245:Drivers/lvgl/src/widgets/lv_textarea.c **** #endif
ARM GAS  /var/folders/0z/tsy30v1j4xl4_7kw94k978ww0000gn/T//ccHqi1ZK.s 			page 46


1246:Drivers/lvgl/src/widgets/lv_textarea.c **** }
1247:Drivers/lvgl/src/widgets/lv_textarea.c **** 
1248:Drivers/lvgl/src/widgets/lv_textarea.c **** /* Returns LV_RES_OK when no operation were performed
1249:Drivers/lvgl/src/widgets/lv_textarea.c ****  * Returns LV_RES_INV when a user defined text was inserted */
1250:Drivers/lvgl/src/widgets/lv_textarea.c **** static lv_res_t insert_handler(lv_obj_t * obj, const char * txt)
1251:Drivers/lvgl/src/widgets/lv_textarea.c **** {
1252:Drivers/lvgl/src/widgets/lv_textarea.c ****     ta_insert_replace = NULL;
1253:Drivers/lvgl/src/widgets/lv_textarea.c ****     lv_event_send(obj, LV_EVENT_INSERT, (char *)txt);
1254:Drivers/lvgl/src/widgets/lv_textarea.c **** 
1255:Drivers/lvgl/src/widgets/lv_textarea.c ****     /* Drop txt if insert replace is set to '\0' */
1256:Drivers/lvgl/src/widgets/lv_textarea.c ****     if(ta_insert_replace && ta_insert_replace[0] == '\0')
1257:Drivers/lvgl/src/widgets/lv_textarea.c ****         return LV_RES_INV;
1258:Drivers/lvgl/src/widgets/lv_textarea.c **** 
1259:Drivers/lvgl/src/widgets/lv_textarea.c ****     if(ta_insert_replace) {
1260:Drivers/lvgl/src/widgets/lv_textarea.c ****         /*Add the replaced text directly it's different from the original*/
1261:Drivers/lvgl/src/widgets/lv_textarea.c ****         if(strcmp(ta_insert_replace, txt)) {
1262:Drivers/lvgl/src/widgets/lv_textarea.c ****             lv_textarea_add_text(obj, ta_insert_replace);
1263:Drivers/lvgl/src/widgets/lv_textarea.c ****             return LV_RES_INV;
1264:Drivers/lvgl/src/widgets/lv_textarea.c ****         }
1265:Drivers/lvgl/src/widgets/lv_textarea.c ****     }
1266:Drivers/lvgl/src/widgets/lv_textarea.c **** 
1267:Drivers/lvgl/src/widgets/lv_textarea.c ****     return LV_RES_OK;
1268:Drivers/lvgl/src/widgets/lv_textarea.c **** }
1269:Drivers/lvgl/src/widgets/lv_textarea.c **** 
1270:Drivers/lvgl/src/widgets/lv_textarea.c **** static void draw_placeholder(lv_event_t * e)
1271:Drivers/lvgl/src/widgets/lv_textarea.c **** {
 357              		.loc 1 1271 1 is_stmt 1 view -0
 358              		.cfi_startproc
 359              		@ args = 0, pretend = 0, frame = 40
 360              		@ frame_needed = 0, uses_anonymous_args = 0
 361              		.loc 1 1271 1 is_stmt 0 view .LVU106
 362 0000 F0B5     		push	{r4, r5, r6, r7, lr}
 363              		.cfi_def_cfa_offset 20
 364              		.cfi_offset 4, -20
 365              		.cfi_offset 5, -16
 366              		.cfi_offset 6, -12
 367              		.cfi_offset 7, -8
 368              		.cfi_offset 14, -4
 369 0002 8DB0     		sub	sp, sp, #52
 370              		.cfi_def_cfa_offset 72
 371 0004 0546     		mov	r5, r0
1272:Drivers/lvgl/src/widgets/lv_textarea.c ****     lv_obj_t * obj = lv_event_get_target(e);
 372              		.loc 1 1272 5 is_stmt 1 view .LVU107
 373              		.loc 1 1272 22 is_stmt 0 view .LVU108
 374 0006 FFF7FEFF 		bl	lv_event_get_target
 375              	.LVL24:
 376              		.loc 1 1272 22 view .LVU109
 377 000a 0446     		mov	r4, r0
 378              	.LVL25:
1273:Drivers/lvgl/src/widgets/lv_textarea.c ****     lv_textarea_t * ta = (lv_textarea_t *)obj;
 379              		.loc 1 1273 5 is_stmt 1 view .LVU110
1274:Drivers/lvgl/src/widgets/lv_textarea.c ****     lv_draw_ctx_t * draw_ctx = lv_event_get_draw_ctx(e);
 380              		.loc 1 1274 5 view .LVU111
 381              		.loc 1 1274 32 is_stmt 0 view .LVU112
 382 000c 2846     		mov	r0, r5
 383              	.LVL26:
 384              		.loc 1 1274 32 view .LVU113
ARM GAS  /var/folders/0z/tsy30v1j4xl4_7kw94k978ww0000gn/T//ccHqi1ZK.s 			page 47


 385 000e FFF7FEFF 		bl	lv_event_get_draw_ctx
 386              	.LVL27:
 387 0012 0546     		mov	r5, r0
 388              	.LVL28:
1275:Drivers/lvgl/src/widgets/lv_textarea.c ****     const char * txt = lv_label_get_text(ta->label);
 389              		.loc 1 1275 5 is_stmt 1 view .LVU114
 390              		.loc 1 1275 24 is_stmt 0 view .LVU115
 391 0014 606A     		ldr	r0, [r4, #36]
 392              	.LVL29:
 393              		.loc 1 1275 24 view .LVU116
 394 0016 FFF7FEFF 		bl	lv_label_get_text
 395              	.LVL30:
1276:Drivers/lvgl/src/widgets/lv_textarea.c **** 
1277:Drivers/lvgl/src/widgets/lv_textarea.c ****     /*Draw the place holder*/
1278:Drivers/lvgl/src/widgets/lv_textarea.c ****     if(txt[0] == '\0' && ta->placeholder_txt && ta->placeholder_txt[0] != 0) {
 396              		.loc 1 1278 5 is_stmt 1 view .LVU117
 397              		.loc 1 1278 11 is_stmt 0 view .LVU118
 398 001a 0378     		ldrb	r3, [r0]	@ zero_extendqisi2
 399              		.loc 1 1278 7 view .LVU119
 400 001c 1BB9     		cbnz	r3, .L16
 401              		.loc 1 1278 28 discriminator 1 view .LVU120
 402 001e A36A     		ldr	r3, [r4, #40]
 403              		.loc 1 1278 23 discriminator 1 view .LVU121
 404 0020 0BB1     		cbz	r3, .L16
 405              		.loc 1 1278 68 discriminator 2 view .LVU122
 406 0022 1B78     		ldrb	r3, [r3]	@ zero_extendqisi2
 407              		.loc 1 1278 46 discriminator 2 view .LVU123
 408 0024 0BB9     		cbnz	r3, .L20
 409              	.LVL31:
 410              	.L16:
1279:Drivers/lvgl/src/widgets/lv_textarea.c ****         lv_draw_label_dsc_t ph_dsc;
1280:Drivers/lvgl/src/widgets/lv_textarea.c ****         lv_draw_label_dsc_init(&ph_dsc);
1281:Drivers/lvgl/src/widgets/lv_textarea.c ****         lv_obj_init_draw_label_dsc(obj, LV_PART_TEXTAREA_PLACEHOLDER, &ph_dsc);
1282:Drivers/lvgl/src/widgets/lv_textarea.c **** 
1283:Drivers/lvgl/src/widgets/lv_textarea.c ****         if(ta->one_line) ph_dsc.flag |= LV_TEXT_FLAG_EXPAND;
1284:Drivers/lvgl/src/widgets/lv_textarea.c **** 
1285:Drivers/lvgl/src/widgets/lv_textarea.c ****         lv_coord_t left = lv_obj_get_style_pad_left(obj, LV_PART_MAIN);
1286:Drivers/lvgl/src/widgets/lv_textarea.c ****         lv_coord_t top = lv_obj_get_style_pad_top(obj, LV_PART_MAIN);
1287:Drivers/lvgl/src/widgets/lv_textarea.c ****         lv_coord_t border_width = lv_obj_get_style_border_width(obj, LV_PART_MAIN);
1288:Drivers/lvgl/src/widgets/lv_textarea.c ****         lv_area_t ph_coords;
1289:Drivers/lvgl/src/widgets/lv_textarea.c ****         lv_area_copy(&ph_coords, &obj->coords);
1290:Drivers/lvgl/src/widgets/lv_textarea.c ****         lv_area_move(&ph_coords, left + border_width, top + border_width);
1291:Drivers/lvgl/src/widgets/lv_textarea.c ****         lv_draw_label(draw_ctx, &ph_dsc, &ph_coords, ta->placeholder_txt, NULL);
1292:Drivers/lvgl/src/widgets/lv_textarea.c ****     }
1293:Drivers/lvgl/src/widgets/lv_textarea.c **** }
 411              		.loc 1 1293 1 view .LVU124
 412 0026 0DB0     		add	sp, sp, #52
 413              		.cfi_remember_state
 414              		.cfi_def_cfa_offset 20
 415              		@ sp needed
 416 0028 F0BD     		pop	{r4, r5, r6, r7, pc}
 417              	.LVL32:
 418              	.L20:
 419              		.cfi_restore_state
 420              	.LBB127:
1279:Drivers/lvgl/src/widgets/lv_textarea.c ****         lv_draw_label_dsc_t ph_dsc;
 421              		.loc 1 1279 9 is_stmt 1 view .LVU125
ARM GAS  /var/folders/0z/tsy30v1j4xl4_7kw94k978ww0000gn/T//ccHqi1ZK.s 			page 48


1280:Drivers/lvgl/src/widgets/lv_textarea.c ****         lv_obj_init_draw_label_dsc(obj, LV_PART_TEXTAREA_PLACEHOLDER, &ph_dsc);
 422              		.loc 1 1280 9 view .LVU126
 423 002a 04A8     		add	r0, sp, #16
 424              	.LVL33:
1280:Drivers/lvgl/src/widgets/lv_textarea.c ****         lv_obj_init_draw_label_dsc(obj, LV_PART_TEXTAREA_PLACEHOLDER, &ph_dsc);
 425              		.loc 1 1280 9 is_stmt 0 view .LVU127
 426 002c FFF7FEFF 		bl	lv_draw_label_dsc_init
 427              	.LVL34:
1281:Drivers/lvgl/src/widgets/lv_textarea.c **** 
 428              		.loc 1 1281 9 is_stmt 1 view .LVU128
 429 0030 04AA     		add	r2, sp, #16
 430 0032 4FF40021 		mov	r1, #524288
 431 0036 2046     		mov	r0, r4
 432 0038 FFF7FEFF 		bl	lv_obj_init_draw_label_dsc
 433              	.LVL35:
1283:Drivers/lvgl/src/widgets/lv_textarea.c **** 
 434              		.loc 1 1283 9 view .LVU129
1283:Drivers/lvgl/src/widgets/lv_textarea.c **** 
 435              		.loc 1 1283 12 is_stmt 0 view .LVU130
 436 003c 94F86030 		ldrb	r3, [r4, #96]	@ zero_extendqisi2
1283:Drivers/lvgl/src/widgets/lv_textarea.c **** 
 437              		.loc 1 1283 11 view .LVU131
 438 0040 13F0080F 		tst	r3, #8
 439 0044 05D0     		beq	.L18
1283:Drivers/lvgl/src/widgets/lv_textarea.c **** 
 440              		.loc 1 1283 26 is_stmt 1 discriminator 1 view .LVU132
1283:Drivers/lvgl/src/widgets/lv_textarea.c **** 
 441              		.loc 1 1283 38 is_stmt 0 discriminator 1 view .LVU133
 442 0046 9DF82D30 		ldrb	r3, [sp, #45]	@ zero_extendqisi2
 443 004a 43F00203 		orr	r3, r3, #2
 444 004e 8DF82D30 		strb	r3, [sp, #45]
 445              	.L18:
1285:Drivers/lvgl/src/widgets/lv_textarea.c ****         lv_coord_t top = lv_obj_get_style_pad_top(obj, LV_PART_MAIN);
 446              		.loc 1 1285 9 is_stmt 1 view .LVU134
 447              	.LVL36:
 448              	.LBB128:
 449              	.LBI128:
 115:Drivers/lvgl/src/widgets/../core/lv_obj_style_gen.h **** {
 450              		.loc 3 115 26 view .LVU135
 451              	.LBB129:
 117:Drivers/lvgl/src/widgets/../core/lv_obj_style_gen.h ****     return (lv_coord_t)v.num;
 452              		.loc 3 117 5 view .LVU136
 117:Drivers/lvgl/src/widgets/../core/lv_obj_style_gen.h ****     return (lv_coord_t)v.num;
 453              		.loc 3 117 26 is_stmt 0 view .LVU137
 454 0052 1222     		movs	r2, #18
 455 0054 0021     		movs	r1, #0
 456 0056 2046     		mov	r0, r4
 457 0058 FFF7FEFF 		bl	lv_obj_get_style_prop
 458              	.LVL37:
 459 005c 0646     		mov	r6, r0
 118:Drivers/lvgl/src/widgets/../core/lv_obj_style_gen.h **** }
 460              		.loc 3 118 5 is_stmt 1 view .LVU138
 461              	.LVL38:
 118:Drivers/lvgl/src/widgets/../core/lv_obj_style_gen.h **** }
 462              		.loc 3 118 5 is_stmt 0 view .LVU139
 463              	.LBE129:
 464              	.LBE128:
ARM GAS  /var/folders/0z/tsy30v1j4xl4_7kw94k978ww0000gn/T//ccHqi1ZK.s 			page 49


1286:Drivers/lvgl/src/widgets/lv_textarea.c ****         lv_coord_t border_width = lv_obj_get_style_border_width(obj, LV_PART_MAIN);
 465              		.loc 1 1286 9 is_stmt 1 view .LVU140
 466              	.LBB130:
 467              	.LBI130:
 103:Drivers/lvgl/src/widgets/../core/lv_obj_style_gen.h **** {
 468              		.loc 3 103 26 view .LVU141
 469              	.LBB131:
 105:Drivers/lvgl/src/widgets/../core/lv_obj_style_gen.h ****     return (lv_coord_t)v.num;
 470              		.loc 3 105 5 view .LVU142
 105:Drivers/lvgl/src/widgets/../core/lv_obj_style_gen.h ****     return (lv_coord_t)v.num;
 471              		.loc 3 105 26 is_stmt 0 view .LVU143
 472 005e 1022     		movs	r2, #16
 473 0060 0021     		movs	r1, #0
 474 0062 2046     		mov	r0, r4
 475 0064 FFF7FEFF 		bl	lv_obj_get_style_prop
 476              	.LVL39:
 477 0068 0746     		mov	r7, r0
 106:Drivers/lvgl/src/widgets/../core/lv_obj_style_gen.h **** }
 478              		.loc 3 106 5 is_stmt 1 view .LVU144
 479              	.LVL40:
 106:Drivers/lvgl/src/widgets/../core/lv_obj_style_gen.h **** }
 480              		.loc 3 106 5 is_stmt 0 view .LVU145
 481              	.LBE131:
 482              	.LBE130:
1287:Drivers/lvgl/src/widgets/lv_textarea.c ****         lv_area_t ph_coords;
 483              		.loc 1 1287 9 is_stmt 1 view .LVU146
 484              	.LBB132:
 485              	.LBI132:
 253:Drivers/lvgl/src/widgets/../core/lv_obj_style_gen.h **** {
 486              		.loc 3 253 26 view .LVU147
 487              	.LBB133:
 255:Drivers/lvgl/src/widgets/../core/lv_obj_style_gen.h ****     return (lv_coord_t)v.num;
 488              		.loc 3 255 5 view .LVU148
 255:Drivers/lvgl/src/widgets/../core/lv_obj_style_gen.h ****     return (lv_coord_t)v.num;
 489              		.loc 3 255 26 is_stmt 0 view .LVU149
 490 006a 3222     		movs	r2, #50
 491 006c 0021     		movs	r1, #0
 492 006e 2046     		mov	r0, r4
 493 0070 FFF7FEFF 		bl	lv_obj_get_style_prop
 494              	.LVL41:
 256:Drivers/lvgl/src/widgets/../core/lv_obj_style_gen.h **** }
 495              		.loc 3 256 5 is_stmt 1 view .LVU150
 256:Drivers/lvgl/src/widgets/../core/lv_obj_style_gen.h **** }
 496              		.loc 3 256 5 is_stmt 0 view .LVU151
 497              	.LBE133:
 498              	.LBE132:
1288:Drivers/lvgl/src/widgets/lv_textarea.c ****         lv_area_copy(&ph_coords, &obj->coords);
 499              		.loc 1 1288 9 is_stmt 1 view .LVU152
1289:Drivers/lvgl/src/widgets/lv_textarea.c ****         lv_area_move(&ph_coords, left + border_width, top + border_width);
 500              		.loc 1 1289 9 view .LVU153
 501              	.LBB134:
 502              	.LBI134:
 110:Drivers/lvgl/src/widgets/../core/../misc/../font/../misc/lv_area.h **** {
 503              		.loc 2 110 20 view .LVU154
 504              	.LBB135:
 112:Drivers/lvgl/src/widgets/../core/../misc/../font/../misc/lv_area.h ****     dest->y1 = src->y1;
 505              		.loc 2 112 5 view .LVU155
ARM GAS  /var/folders/0z/tsy30v1j4xl4_7kw94k978ww0000gn/T//ccHqi1ZK.s 			page 50


 112:Drivers/lvgl/src/widgets/../core/../misc/../font/../misc/lv_area.h ****     dest->y1 = src->y1;
 506              		.loc 2 112 19 is_stmt 0 view .LVU156
 507 0074 B4F91430 		ldrsh	r3, [r4, #20]
 112:Drivers/lvgl/src/widgets/../core/../misc/../font/../misc/lv_area.h ****     dest->y1 = src->y1;
 508              		.loc 2 112 14 view .LVU157
 509 0078 ADF80830 		strh	r3, [sp, #8]	@ movhi
 113:Drivers/lvgl/src/widgets/../core/../misc/../font/../misc/lv_area.h ****     dest->x2 = src->x2;
 510              		.loc 2 113 5 is_stmt 1 view .LVU158
 113:Drivers/lvgl/src/widgets/../core/../misc/../font/../misc/lv_area.h ****     dest->x2 = src->x2;
 511              		.loc 2 113 19 is_stmt 0 view .LVU159
 512 007c B4F91630 		ldrsh	r3, [r4, #22]
 113:Drivers/lvgl/src/widgets/../core/../misc/../font/../misc/lv_area.h ****     dest->x2 = src->x2;
 513              		.loc 2 113 14 view .LVU160
 514 0080 ADF80A30 		strh	r3, [sp, #10]	@ movhi
 114:Drivers/lvgl/src/widgets/../core/../misc/../font/../misc/lv_area.h ****     dest->y2 = src->y2;
 515              		.loc 2 114 5 is_stmt 1 view .LVU161
 114:Drivers/lvgl/src/widgets/../core/../misc/../font/../misc/lv_area.h ****     dest->y2 = src->y2;
 516              		.loc 2 114 19 is_stmt 0 view .LVU162
 517 0084 B4F91830 		ldrsh	r3, [r4, #24]
 114:Drivers/lvgl/src/widgets/../core/../misc/../font/../misc/lv_area.h ****     dest->y2 = src->y2;
 518              		.loc 2 114 14 view .LVU163
 519 0088 ADF80C30 		strh	r3, [sp, #12]	@ movhi
 520              		.loc 2 115 5 is_stmt 1 view .LVU164
 521              		.loc 2 115 19 is_stmt 0 view .LVU165
 522 008c B4F91A30 		ldrsh	r3, [r4, #26]
 523              		.loc 2 115 14 view .LVU166
 524 0090 ADF80E30 		strh	r3, [sp, #14]	@ movhi
 525              	.LVL42:
 526              		.loc 2 115 14 view .LVU167
 527              	.LBE135:
 528              	.LBE134:
1290:Drivers/lvgl/src/widgets/lv_textarea.c ****         lv_draw_label(draw_ctx, &ph_dsc, &ph_coords, ta->placeholder_txt, NULL);
 529              		.loc 1 1290 9 is_stmt 1 view .LVU168
1290:Drivers/lvgl/src/widgets/lv_textarea.c ****         lv_draw_label(draw_ctx, &ph_dsc, &ph_coords, ta->placeholder_txt, NULL);
 530              		.loc 1 1290 39 is_stmt 0 view .LVU169
 531 0094 82B2     		uxth	r2, r0
 532 0096 9119     		adds	r1, r2, r6
1290:Drivers/lvgl/src/widgets/lv_textarea.c ****         lv_draw_label(draw_ctx, &ph_dsc, &ph_coords, ta->placeholder_txt, NULL);
 533              		.loc 1 1290 59 view .LVU170
 534 0098 3A44     		add	r2, r2, r7
1290:Drivers/lvgl/src/widgets/lv_textarea.c ****         lv_draw_label(draw_ctx, &ph_dsc, &ph_coords, ta->placeholder_txt, NULL);
 535              		.loc 1 1290 9 view .LVU171
 536 009a 12B2     		sxth	r2, r2
 537 009c 09B2     		sxth	r1, r1
 538 009e 02A8     		add	r0, sp, #8
 539              	.LVL43:
1290:Drivers/lvgl/src/widgets/lv_textarea.c ****         lv_draw_label(draw_ctx, &ph_dsc, &ph_coords, ta->placeholder_txt, NULL);
 540              		.loc 1 1290 9 view .LVU172
 541 00a0 FFF7FEFF 		bl	lv_area_move
 542              	.LVL44:
1291:Drivers/lvgl/src/widgets/lv_textarea.c ****     }
 543              		.loc 1 1291 9 is_stmt 1 view .LVU173
1291:Drivers/lvgl/src/widgets/lv_textarea.c ****     }
 544              		.loc 1 1291 56 is_stmt 0 view .LVU174
 545 00a4 A36A     		ldr	r3, [r4, #40]
1291:Drivers/lvgl/src/widgets/lv_textarea.c ****     }
 546              		.loc 1 1291 9 view .LVU175
ARM GAS  /var/folders/0z/tsy30v1j4xl4_7kw94k978ww0000gn/T//ccHqi1ZK.s 			page 51


 547 00a6 0022     		movs	r2, #0
 548 00a8 0092     		str	r2, [sp]
 549 00aa 02AA     		add	r2, sp, #8
 550 00ac 04A9     		add	r1, sp, #16
 551 00ae 2846     		mov	r0, r5
 552 00b0 FFF7FEFF 		bl	lv_draw_label
 553              	.LVL45:
 554              	.LBE127:
 555              		.loc 1 1293 1 view .LVU176
 556 00b4 B7E7     		b	.L16
 557              		.cfi_endproc
 558              	.LFE210:
 560              		.section	.text.draw_cursor,"ax",%progbits
 561              		.align	1
 562              		.syntax unified
 563              		.thumb
 564              		.thumb_func
 566              	draw_cursor:
 567              	.LVL46:
 568              	.LFB211:
1294:Drivers/lvgl/src/widgets/lv_textarea.c **** 
1295:Drivers/lvgl/src/widgets/lv_textarea.c **** static void draw_cursor(lv_event_t * e)
1296:Drivers/lvgl/src/widgets/lv_textarea.c **** {
 569              		.loc 1 1296 1 is_stmt 1 view -0
 570              		.cfi_startproc
 571              		@ args = 0, pretend = 0, frame = 104
 572              		@ frame_needed = 0, uses_anonymous_args = 0
 573              		.loc 1 1296 1 is_stmt 0 view .LVU178
 574 0000 2DE9F043 		push	{r4, r5, r6, r7, r8, r9, lr}
 575              		.cfi_def_cfa_offset 28
 576              		.cfi_offset 4, -28
 577              		.cfi_offset 5, -24
 578              		.cfi_offset 6, -20
 579              		.cfi_offset 7, -16
 580              		.cfi_offset 8, -12
 581              		.cfi_offset 9, -8
 582              		.cfi_offset 14, -4
 583 0004 9DB0     		sub	sp, sp, #116
 584              		.cfi_def_cfa_offset 144
 585 0006 0546     		mov	r5, r0
1297:Drivers/lvgl/src/widgets/lv_textarea.c ****     lv_obj_t * obj = lv_event_get_target(e);
 586              		.loc 1 1297 5 is_stmt 1 view .LVU179
 587              		.loc 1 1297 22 is_stmt 0 view .LVU180
 588 0008 FFF7FEFF 		bl	lv_event_get_target
 589              	.LVL47:
 590              		.loc 1 1297 22 view .LVU181
 591 000c 0446     		mov	r4, r0
 592              	.LVL48:
1298:Drivers/lvgl/src/widgets/lv_textarea.c ****     lv_textarea_t * ta = (lv_textarea_t *)obj;
 593              		.loc 1 1298 5 is_stmt 1 view .LVU182
1299:Drivers/lvgl/src/widgets/lv_textarea.c ****     lv_draw_ctx_t * draw_ctx = lv_event_get_draw_ctx(e);
 594              		.loc 1 1299 5 view .LVU183
 595              		.loc 1 1299 32 is_stmt 0 view .LVU184
 596 000e 2846     		mov	r0, r5
 597              	.LVL49:
 598              		.loc 1 1299 32 view .LVU185
 599 0010 FFF7FEFF 		bl	lv_event_get_draw_ctx
ARM GAS  /var/folders/0z/tsy30v1j4xl4_7kw94k978ww0000gn/T//ccHqi1ZK.s 			page 52


 600              	.LVL50:
 601 0014 0646     		mov	r6, r0
 602              	.LVL51:
1300:Drivers/lvgl/src/widgets/lv_textarea.c ****     const char * txt = lv_label_get_text(ta->label);
 603              		.loc 1 1300 5 is_stmt 1 view .LVU186
 604              		.loc 1 1300 24 is_stmt 0 view .LVU187
 605 0016 606A     		ldr	r0, [r4, #36]
 606              	.LVL52:
 607              		.loc 1 1300 24 view .LVU188
 608 0018 FFF7FEFF 		bl	lv_label_get_text
 609              	.LVL53:
1301:Drivers/lvgl/src/widgets/lv_textarea.c **** 
1302:Drivers/lvgl/src/widgets/lv_textarea.c ****     if(ta->cursor.show == 0) return;
 610              		.loc 1 1302 5 is_stmt 1 view .LVU189
 611              		.loc 1 1302 24 is_stmt 0 view .LVU190
 612 001c 94F85430 		ldrb	r3, [r4, #84]	@ zero_extendqisi2
 613              		.loc 1 1302 7 view .LVU191
 614 0020 13F0010F 		tst	r3, #1
 615 0024 02D1     		bne	.L27
 616              	.LVL54:
 617              	.L21:
1303:Drivers/lvgl/src/widgets/lv_textarea.c **** 
1304:Drivers/lvgl/src/widgets/lv_textarea.c ****     lv_draw_rect_dsc_t cur_dsc;
1305:Drivers/lvgl/src/widgets/lv_textarea.c ****     lv_draw_rect_dsc_init(&cur_dsc);
1306:Drivers/lvgl/src/widgets/lv_textarea.c ****     lv_obj_init_draw_rect_dsc(obj, LV_PART_CURSOR, &cur_dsc);
1307:Drivers/lvgl/src/widgets/lv_textarea.c **** 
1308:Drivers/lvgl/src/widgets/lv_textarea.c ****     /*Draw he cursor according to the type*/
1309:Drivers/lvgl/src/widgets/lv_textarea.c ****     lv_area_t cur_area;
1310:Drivers/lvgl/src/widgets/lv_textarea.c ****     lv_area_copy(&cur_area, &ta->cursor.area);
1311:Drivers/lvgl/src/widgets/lv_textarea.c **** 
1312:Drivers/lvgl/src/widgets/lv_textarea.c **** 
1313:Drivers/lvgl/src/widgets/lv_textarea.c ****     cur_area.x1 += ta->label->coords.x1;
1314:Drivers/lvgl/src/widgets/lv_textarea.c ****     cur_area.y1 += ta->label->coords.y1;
1315:Drivers/lvgl/src/widgets/lv_textarea.c ****     cur_area.x2 += ta->label->coords.x1;
1316:Drivers/lvgl/src/widgets/lv_textarea.c ****     cur_area.y2 += ta->label->coords.y1;
1317:Drivers/lvgl/src/widgets/lv_textarea.c **** 
1318:Drivers/lvgl/src/widgets/lv_textarea.c ****     lv_draw_rect(draw_ctx, &cur_dsc, &cur_area);
1319:Drivers/lvgl/src/widgets/lv_textarea.c **** 
1320:Drivers/lvgl/src/widgets/lv_textarea.c ****     lv_coord_t border_width = lv_obj_get_style_border_width(obj, LV_PART_CURSOR);
1321:Drivers/lvgl/src/widgets/lv_textarea.c ****     lv_coord_t left = lv_obj_get_style_pad_left(obj, LV_PART_CURSOR) + border_width;
1322:Drivers/lvgl/src/widgets/lv_textarea.c ****     lv_coord_t top = lv_obj_get_style_pad_top(obj, LV_PART_CURSOR) + border_width;
1323:Drivers/lvgl/src/widgets/lv_textarea.c ****     char letter_buf[8] = {0};
1324:Drivers/lvgl/src/widgets/lv_textarea.c ****     lv_memcpy(letter_buf, &txt[ta->cursor.txt_byte_pos], _lv_txt_encoded_size(&txt[ta->cursor.txt_b
1325:Drivers/lvgl/src/widgets/lv_textarea.c **** 
1326:Drivers/lvgl/src/widgets/lv_textarea.c ****     cur_area.x1 += left;
1327:Drivers/lvgl/src/widgets/lv_textarea.c ****     cur_area.y1 += top;
1328:Drivers/lvgl/src/widgets/lv_textarea.c **** 
1329:Drivers/lvgl/src/widgets/lv_textarea.c ****     /*Draw the letter over the cursor only if
1330:Drivers/lvgl/src/widgets/lv_textarea.c ****      *the cursor has background or the letter has different color than the original.
1331:Drivers/lvgl/src/widgets/lv_textarea.c ****      *Else the original letter is drawn twice which makes it look bolder*/
1332:Drivers/lvgl/src/widgets/lv_textarea.c ****     lv_color_t label_color = lv_obj_get_style_text_color(ta->label, 0);
1333:Drivers/lvgl/src/widgets/lv_textarea.c ****     lv_draw_label_dsc_t cur_label_dsc;
1334:Drivers/lvgl/src/widgets/lv_textarea.c ****     lv_draw_label_dsc_init(&cur_label_dsc);
1335:Drivers/lvgl/src/widgets/lv_textarea.c ****     lv_obj_init_draw_label_dsc(obj, LV_PART_CURSOR, &cur_label_dsc);
1336:Drivers/lvgl/src/widgets/lv_textarea.c ****     if(cur_dsc.bg_opa > LV_OPA_MIN || cur_label_dsc.color.full != label_color.full) {
1337:Drivers/lvgl/src/widgets/lv_textarea.c ****         lv_draw_label(draw_ctx, &cur_label_dsc, &cur_area, letter_buf, NULL);
1338:Drivers/lvgl/src/widgets/lv_textarea.c ****     }
ARM GAS  /var/folders/0z/tsy30v1j4xl4_7kw94k978ww0000gn/T//ccHqi1ZK.s 			page 53


1339:Drivers/lvgl/src/widgets/lv_textarea.c **** }
 618              		.loc 1 1339 1 view .LVU192
 619 0026 1DB0     		add	sp, sp, #116
 620              		.cfi_remember_state
 621              		.cfi_def_cfa_offset 28
 622              		@ sp needed
 623 0028 BDE8F083 		pop	{r4, r5, r6, r7, r8, r9, pc}
 624              	.LVL55:
 625              	.L27:
 626              		.cfi_restore_state
 627              		.loc 1 1339 1 view .LVU193
 628 002c 0746     		mov	r7, r0
1304:Drivers/lvgl/src/widgets/lv_textarea.c ****     lv_draw_rect_dsc_init(&cur_dsc);
 629              		.loc 1 1304 5 is_stmt 1 view .LVU194
1305:Drivers/lvgl/src/widgets/lv_textarea.c ****     lv_obj_init_draw_rect_dsc(obj, LV_PART_CURSOR, &cur_dsc);
 630              		.loc 1 1305 5 view .LVU195
 631 002e 0EA8     		add	r0, sp, #56
 632              	.LVL56:
1305:Drivers/lvgl/src/widgets/lv_textarea.c ****     lv_obj_init_draw_rect_dsc(obj, LV_PART_CURSOR, &cur_dsc);
 633              		.loc 1 1305 5 is_stmt 0 view .LVU196
 634 0030 FFF7FEFF 		bl	lv_draw_rect_dsc_init
 635              	.LVL57:
1306:Drivers/lvgl/src/widgets/lv_textarea.c **** 
 636              		.loc 1 1306 5 is_stmt 1 view .LVU197
 637 0034 0EAA     		add	r2, sp, #56
 638 0036 4FF4E021 		mov	r1, #458752
 639 003a 2046     		mov	r0, r4
 640 003c FFF7FEFF 		bl	lv_obj_init_draw_rect_dsc
 641              	.LVL58:
1309:Drivers/lvgl/src/widgets/lv_textarea.c ****     lv_area_copy(&cur_area, &ta->cursor.area);
 642              		.loc 1 1309 5 view .LVU198
1310:Drivers/lvgl/src/widgets/lv_textarea.c **** 
 643              		.loc 1 1310 5 view .LVU199
 644              	.LBB136:
 645              	.LBI136:
 110:Drivers/lvgl/src/widgets/../core/../misc/../font/../misc/lv_area.h **** {
 646              		.loc 2 110 20 view .LVU200
 647              	.LBB137:
 112:Drivers/lvgl/src/widgets/../core/../misc/../font/../misc/lv_area.h ****     dest->y1 = src->y1;
 648              		.loc 2 112 5 view .LVU201
 112:Drivers/lvgl/src/widgets/../core/../misc/../font/../misc/lv_area.h ****     dest->y1 = src->y1;
 649              		.loc 2 112 19 is_stmt 0 view .LVU202
 650 0040 B4F94830 		ldrsh	r3, [r4, #72]
 112:Drivers/lvgl/src/widgets/../core/../misc/../font/../misc/lv_area.h ****     dest->y1 = src->y1;
 651              		.loc 2 112 14 view .LVU203
 652 0044 ADF83030 		strh	r3, [sp, #48]	@ movhi
 113:Drivers/lvgl/src/widgets/../core/../misc/../font/../misc/lv_area.h ****     dest->x2 = src->x2;
 653              		.loc 2 113 5 is_stmt 1 view .LVU204
 113:Drivers/lvgl/src/widgets/../core/../misc/../font/../misc/lv_area.h ****     dest->x2 = src->x2;
 654              		.loc 2 113 19 is_stmt 0 view .LVU205
 655 0048 B4F94A10 		ldrsh	r1, [r4, #74]
 113:Drivers/lvgl/src/widgets/../core/../misc/../font/../misc/lv_area.h ****     dest->x2 = src->x2;
 656              		.loc 2 113 14 view .LVU206
 657 004c ADF83210 		strh	r1, [sp, #50]	@ movhi
 114:Drivers/lvgl/src/widgets/../core/../misc/../font/../misc/lv_area.h ****     dest->y2 = src->y2;
 658              		.loc 2 114 5 is_stmt 1 view .LVU207
 114:Drivers/lvgl/src/widgets/../core/../misc/../font/../misc/lv_area.h ****     dest->y2 = src->y2;
ARM GAS  /var/folders/0z/tsy30v1j4xl4_7kw94k978ww0000gn/T//ccHqi1ZK.s 			page 54


 659              		.loc 2 114 19 is_stmt 0 view .LVU208
 660 0050 B4F94C50 		ldrsh	r5, [r4, #76]
 661              	.LVL59:
 114:Drivers/lvgl/src/widgets/../core/../misc/../font/../misc/lv_area.h ****     dest->y2 = src->y2;
 662              		.loc 2 114 14 view .LVU209
 663 0054 ADF83450 		strh	r5, [sp, #52]	@ movhi
 664              		.loc 2 115 5 is_stmt 1 view .LVU210
 665              		.loc 2 115 19 is_stmt 0 view .LVU211
 666 0058 B4F94E00 		ldrsh	r0, [r4, #78]
 667              		.loc 2 115 14 view .LVU212
 668 005c ADF83600 		strh	r0, [sp, #54]	@ movhi
 669              	.LVL60:
 670              		.loc 2 115 14 view .LVU213
 671              	.LBE137:
 672              	.LBE136:
1313:Drivers/lvgl/src/widgets/lv_textarea.c ****     cur_area.y1 += ta->label->coords.y1;
 673              		.loc 1 1313 5 is_stmt 1 view .LVU214
1313:Drivers/lvgl/src/widgets/lv_textarea.c ****     cur_area.y1 += ta->label->coords.y1;
 674              		.loc 1 1313 22 is_stmt 0 view .LVU215
 675 0060 D4F824C0 		ldr	ip, [r4, #36]
1313:Drivers/lvgl/src/widgets/lv_textarea.c ****     cur_area.y1 += ta->label->coords.y1;
 676              		.loc 1 1313 37 view .LVU216
 677 0064 BCF81420 		ldrh	r2, [ip, #20]
1313:Drivers/lvgl/src/widgets/lv_textarea.c ****     cur_area.y1 += ta->label->coords.y1;
 678              		.loc 1 1313 17 view .LVU217
 679 0068 1344     		add	r3, r3, r2
 680 006a ADF83030 		strh	r3, [sp, #48]	@ movhi
1314:Drivers/lvgl/src/widgets/lv_textarea.c ****     cur_area.x2 += ta->label->coords.x1;
 681              		.loc 1 1314 5 is_stmt 1 view .LVU218
1314:Drivers/lvgl/src/widgets/lv_textarea.c ****     cur_area.x2 += ta->label->coords.x1;
 682              		.loc 1 1314 37 is_stmt 0 view .LVU219
 683 006e BCF81630 		ldrh	r3, [ip, #22]
1314:Drivers/lvgl/src/widgets/lv_textarea.c ****     cur_area.x2 += ta->label->coords.x1;
 684              		.loc 1 1314 17 view .LVU220
 685 0072 1944     		add	r1, r1, r3
 686 0074 ADF83210 		strh	r1, [sp, #50]	@ movhi
1315:Drivers/lvgl/src/widgets/lv_textarea.c ****     cur_area.y2 += ta->label->coords.y1;
 687              		.loc 1 1315 5 is_stmt 1 view .LVU221
1315:Drivers/lvgl/src/widgets/lv_textarea.c ****     cur_area.y2 += ta->label->coords.y1;
 688              		.loc 1 1315 17 is_stmt 0 view .LVU222
 689 0078 2A44     		add	r2, r2, r5
 690 007a ADF83420 		strh	r2, [sp, #52]	@ movhi
1316:Drivers/lvgl/src/widgets/lv_textarea.c **** 
 691              		.loc 1 1316 5 is_stmt 1 view .LVU223
1316:Drivers/lvgl/src/widgets/lv_textarea.c **** 
 692              		.loc 1 1316 17 is_stmt 0 view .LVU224
 693 007e 0344     		add	r3, r3, r0
 694 0080 ADF83630 		strh	r3, [sp, #54]	@ movhi
1318:Drivers/lvgl/src/widgets/lv_textarea.c **** 
 695              		.loc 1 1318 5 is_stmt 1 view .LVU225
 696 0084 0CAA     		add	r2, sp, #48
 697 0086 0EA9     		add	r1, sp, #56
 698 0088 3046     		mov	r0, r6
 699 008a FFF7FEFF 		bl	lv_draw_rect
 700              	.LVL61:
1320:Drivers/lvgl/src/widgets/lv_textarea.c ****     lv_coord_t left = lv_obj_get_style_pad_left(obj, LV_PART_CURSOR) + border_width;
 701              		.loc 1 1320 5 view .LVU226
ARM GAS  /var/folders/0z/tsy30v1j4xl4_7kw94k978ww0000gn/T//ccHqi1ZK.s 			page 55


 702              	.LBB138:
 703              	.LBI138:
 253:Drivers/lvgl/src/widgets/../core/lv_obj_style_gen.h **** {
 704              		.loc 3 253 26 view .LVU227
 705              	.LBB139:
 255:Drivers/lvgl/src/widgets/../core/lv_obj_style_gen.h ****     return (lv_coord_t)v.num;
 706              		.loc 3 255 5 view .LVU228
 255:Drivers/lvgl/src/widgets/../core/lv_obj_style_gen.h ****     return (lv_coord_t)v.num;
 707              		.loc 3 255 26 is_stmt 0 view .LVU229
 708 008e 3222     		movs	r2, #50
 709 0090 4FF4E021 		mov	r1, #458752
 710 0094 2046     		mov	r0, r4
 711 0096 FFF7FEFF 		bl	lv_obj_get_style_prop
 712              	.LVL62:
 713 009a 8046     		mov	r8, r0
 714              	.LVL63:
 256:Drivers/lvgl/src/widgets/../core/lv_obj_style_gen.h **** }
 715              		.loc 3 256 5 is_stmt 1 view .LVU230
 256:Drivers/lvgl/src/widgets/../core/lv_obj_style_gen.h **** }
 716              		.loc 3 256 5 is_stmt 0 view .LVU231
 717              	.LBE139:
 718              	.LBE138:
1321:Drivers/lvgl/src/widgets/lv_textarea.c ****     lv_coord_t top = lv_obj_get_style_pad_top(obj, LV_PART_CURSOR) + border_width;
 719              		.loc 1 1321 5 is_stmt 1 view .LVU232
 720              	.LBB140:
 721              	.LBI140:
 115:Drivers/lvgl/src/widgets/../core/lv_obj_style_gen.h **** {
 722              		.loc 3 115 26 view .LVU233
 723              	.LBB141:
 117:Drivers/lvgl/src/widgets/../core/lv_obj_style_gen.h ****     return (lv_coord_t)v.num;
 724              		.loc 3 117 5 view .LVU234
 117:Drivers/lvgl/src/widgets/../core/lv_obj_style_gen.h ****     return (lv_coord_t)v.num;
 725              		.loc 3 117 26 is_stmt 0 view .LVU235
 726 009c 1222     		movs	r2, #18
 727 009e 4FF4E021 		mov	r1, #458752
 728 00a2 2046     		mov	r0, r4
 729 00a4 FFF7FEFF 		bl	lv_obj_get_style_prop
 730              	.LVL64:
 118:Drivers/lvgl/src/widgets/../core/lv_obj_style_gen.h **** }
 731              		.loc 3 118 5 is_stmt 1 view .LVU236
 118:Drivers/lvgl/src/widgets/../core/lv_obj_style_gen.h **** }
 732              		.loc 3 118 5 is_stmt 0 view .LVU237
 733              	.LBE141:
 734              	.LBE140:
1321:Drivers/lvgl/src/widgets/lv_textarea.c ****     lv_coord_t top = lv_obj_get_style_pad_top(obj, LV_PART_CURSOR) + border_width;
 735              		.loc 1 1321 70 view .LVU238
 736 00a8 1FFA88F8 		uxth	r8, r8
1321:Drivers/lvgl/src/widgets/lv_textarea.c ****     lv_coord_t top = lv_obj_get_style_pad_top(obj, LV_PART_CURSOR) + border_width;
 737              		.loc 1 1321 70 view .LVU239
 738 00ac 18FA80F9 		uxtah	r9, r8, r0
 739 00b0 1FFA89F9 		uxth	r9, r9
 740              	.LVL65:
1322:Drivers/lvgl/src/widgets/lv_textarea.c ****     char letter_buf[8] = {0};
 741              		.loc 1 1322 5 is_stmt 1 view .LVU240
 742              	.LBB142:
 743              	.LBI142:
 103:Drivers/lvgl/src/widgets/../core/lv_obj_style_gen.h **** {
ARM GAS  /var/folders/0z/tsy30v1j4xl4_7kw94k978ww0000gn/T//ccHqi1ZK.s 			page 56


 744              		.loc 3 103 26 view .LVU241
 745              	.LBB143:
 105:Drivers/lvgl/src/widgets/../core/lv_obj_style_gen.h ****     return (lv_coord_t)v.num;
 746              		.loc 3 105 5 view .LVU242
 105:Drivers/lvgl/src/widgets/../core/lv_obj_style_gen.h ****     return (lv_coord_t)v.num;
 747              		.loc 3 105 26 is_stmt 0 view .LVU243
 748 00b4 1022     		movs	r2, #16
 749 00b6 4FF4E021 		mov	r1, #458752
 750 00ba 2046     		mov	r0, r4
 751 00bc FFF7FEFF 		bl	lv_obj_get_style_prop
 752              	.LVL66:
 106:Drivers/lvgl/src/widgets/../core/lv_obj_style_gen.h **** }
 753              		.loc 3 106 5 is_stmt 1 view .LVU244
 106:Drivers/lvgl/src/widgets/../core/lv_obj_style_gen.h **** }
 754              		.loc 3 106 5 is_stmt 0 view .LVU245
 755              	.LBE143:
 756              	.LBE142:
1322:Drivers/lvgl/src/widgets/lv_textarea.c ****     char letter_buf[8] = {0};
 757              		.loc 1 1322 68 view .LVU246
 758 00c0 18FA80F5 		uxtah	r5, r8, r0
 759 00c4 ADB2     		uxth	r5, r5
 760              	.LVL67:
1323:Drivers/lvgl/src/widgets/lv_textarea.c ****     lv_memcpy(letter_buf, &txt[ta->cursor.txt_byte_pos], _lv_txt_encoded_size(&txt[ta->cursor.txt_b
 761              		.loc 1 1323 5 is_stmt 1 view .LVU247
1323:Drivers/lvgl/src/widgets/lv_textarea.c ****     lv_memcpy(letter_buf, &txt[ta->cursor.txt_byte_pos], _lv_txt_encoded_size(&txt[ta->cursor.txt_b
 762              		.loc 1 1323 10 is_stmt 0 view .LVU248
 763 00c6 4FF00008 		mov	r8, #0
 764              	.LVL68:
1323:Drivers/lvgl/src/widgets/lv_textarea.c ****     lv_memcpy(letter_buf, &txt[ta->cursor.txt_byte_pos], _lv_txt_encoded_size(&txt[ta->cursor.txt_b
 765              		.loc 1 1323 10 view .LVU249
 766 00ca CDF82880 		str	r8, [sp, #40]
 767 00ce CDF82C80 		str	r8, [sp, #44]
1324:Drivers/lvgl/src/widgets/lv_textarea.c **** 
 768              		.loc 1 1324 5 is_stmt 1 view .LVU250
1324:Drivers/lvgl/src/widgets/lv_textarea.c **** 
 769              		.loc 1 1324 42 is_stmt 0 view .LVU251
 770 00d2 236D     		ldr	r3, [r4, #80]
1324:Drivers/lvgl/src/widgets/lv_textarea.c **** 
 771              		.loc 1 1324 27 view .LVU252
 772 00d4 1F44     		add	r7, r7, r3
 773              	.LVL69:
1324:Drivers/lvgl/src/widgets/lv_textarea.c **** 
 774              		.loc 1 1324 58 view .LVU253
 775 00d6 1A4B     		ldr	r3, .L28
 776 00d8 1B68     		ldr	r3, [r3]
 777 00da 3846     		mov	r0, r7
 778 00dc 9847     		blx	r3
 779              	.LVL70:
 780 00de 0246     		mov	r2, r0
1324:Drivers/lvgl/src/widgets/lv_textarea.c **** 
 781              		.loc 1 1324 5 view .LVU254
 782 00e0 3946     		mov	r1, r7
 783 00e2 0AA8     		add	r0, sp, #40
 784 00e4 FFF7FEFF 		bl	lv_memcpy
 785              	.LVL71:
1326:Drivers/lvgl/src/widgets/lv_textarea.c ****     cur_area.y1 += top;
 786              		.loc 1 1326 5 is_stmt 1 view .LVU255
ARM GAS  /var/folders/0z/tsy30v1j4xl4_7kw94k978ww0000gn/T//ccHqi1ZK.s 			page 57


1326:Drivers/lvgl/src/widgets/lv_textarea.c ****     cur_area.y1 += top;
 787              		.loc 1 1326 17 is_stmt 0 view .LVU256
 788 00e8 BDF83030 		ldrh	r3, [sp, #48]
 789 00ec 9944     		add	r9, r9, r3
 790              	.LVL72:
1326:Drivers/lvgl/src/widgets/lv_textarea.c ****     cur_area.y1 += top;
 791              		.loc 1 1326 17 view .LVU257
 792 00ee ADF83090 		strh	r9, [sp, #48]	@ movhi
1327:Drivers/lvgl/src/widgets/lv_textarea.c **** 
 793              		.loc 1 1327 5 is_stmt 1 view .LVU258
1327:Drivers/lvgl/src/widgets/lv_textarea.c **** 
 794              		.loc 1 1327 17 is_stmt 0 view .LVU259
 795 00f2 BDF83230 		ldrh	r3, [sp, #50]
 796 00f6 1D44     		add	r5, r5, r3
 797              	.LVL73:
1327:Drivers/lvgl/src/widgets/lv_textarea.c **** 
 798              		.loc 1 1327 17 view .LVU260
 799 00f8 ADF83250 		strh	r5, [sp, #50]	@ movhi
1332:Drivers/lvgl/src/widgets/lv_textarea.c ****     lv_draw_label_dsc_t cur_label_dsc;
 800              		.loc 1 1332 5 is_stmt 1 view .LVU261
 801              	.LVL74:
 802              	.LBB144:
 803              	.LBI144:
 445:Drivers/lvgl/src/widgets/../core/lv_obj_style_gen.h **** {
 804              		.loc 3 445 26 view .LVU262
 805              	.LBB145:
 447:Drivers/lvgl/src/widgets/../core/lv_obj_style_gen.h ****     return v.color;
 806              		.loc 3 447 5 view .LVU263
 447:Drivers/lvgl/src/widgets/../core/lv_obj_style_gen.h ****     return v.color;
 807              		.loc 3 447 26 is_stmt 0 view .LVU264
 808 00fc 5522     		movs	r2, #85
 809 00fe 4146     		mov	r1, r8
 810 0100 606A     		ldr	r0, [r4, #36]
 811 0102 FFF7FEFF 		bl	lv_obj_get_style_prop
 812              	.LVL75:
 447:Drivers/lvgl/src/widgets/../core/lv_obj_style_gen.h ****     return v.color;
 813              		.loc 3 447 26 view .LVU265
 814 0106 0546     		mov	r5, r0
 448:Drivers/lvgl/src/widgets/../core/lv_obj_style_gen.h **** }
 815              		.loc 3 448 5 is_stmt 1 view .LVU266
 816              	.LVL76:
 448:Drivers/lvgl/src/widgets/../core/lv_obj_style_gen.h **** }
 817              		.loc 3 448 5 is_stmt 0 view .LVU267
 818              	.LBE145:
 819              	.LBE144:
1333:Drivers/lvgl/src/widgets/lv_textarea.c ****     lv_draw_label_dsc_init(&cur_label_dsc);
 820              		.loc 1 1333 5 is_stmt 1 view .LVU268
1334:Drivers/lvgl/src/widgets/lv_textarea.c ****     lv_obj_init_draw_label_dsc(obj, LV_PART_CURSOR, &cur_label_dsc);
 821              		.loc 1 1334 5 view .LVU269
 822 0108 02A8     		add	r0, sp, #8
 823 010a FFF7FEFF 		bl	lv_draw_label_dsc_init
 824              	.LVL77:
1335:Drivers/lvgl/src/widgets/lv_textarea.c ****     if(cur_dsc.bg_opa > LV_OPA_MIN || cur_label_dsc.color.full != label_color.full) {
 825              		.loc 1 1335 5 view .LVU270
 826 010e 02AA     		add	r2, sp, #8
 827 0110 4FF4E021 		mov	r1, #458752
 828 0114 2046     		mov	r0, r4
ARM GAS  /var/folders/0z/tsy30v1j4xl4_7kw94k978ww0000gn/T//ccHqi1ZK.s 			page 58


 829 0116 FFF7FEFF 		bl	lv_obj_init_draw_label_dsc
 830              	.LVL78:
1336:Drivers/lvgl/src/widgets/lv_textarea.c ****         lv_draw_label(draw_ctx, &cur_label_dsc, &cur_area, letter_buf, NULL);
 831              		.loc 1 1336 5 view .LVU271
1336:Drivers/lvgl/src/widgets/lv_textarea.c ****         lv_draw_label(draw_ctx, &cur_label_dsc, &cur_area, letter_buf, NULL);
 832              		.loc 1 1336 15 is_stmt 0 view .LVU272
 833 011a 9DF83B30 		ldrb	r3, [sp, #59]	@ zero_extendqisi2
1336:Drivers/lvgl/src/widgets/lv_textarea.c ****         lv_draw_label(draw_ctx, &cur_label_dsc, &cur_area, letter_buf, NULL);
 834              		.loc 1 1336 7 view .LVU273
 835 011e 022B     		cmp	r3, #2
 836 0120 05D8     		bhi	.L24
1336:Drivers/lvgl/src/widgets/lv_textarea.c ****         lv_draw_label(draw_ctx, &cur_label_dsc, &cur_area, letter_buf, NULL);
 837              		.loc 1 1336 58 discriminator 1 view .LVU274
 838 0122 BDF81430 		ldrh	r3, [sp, #20]
