ARM GAS  /var/folders/0z/tsy30v1j4xl4_7kw94k978ww0000gn/T//ccjTTGyJ.s 			page 1


   1              		.cpu cortex-m4
   2              		.arch armv7e-m
   3              		.fpu fpv4-sp-d16
   4              		.eabi_attribute 27, 1
   5              		.eabi_attribute 28, 1
   6              		.eabi_attribute 20, 1
   7              		.eabi_attribute 21, 1
   8              		.eabi_attribute 23, 3
   9              		.eabi_attribute 24, 1
  10              		.eabi_attribute 25, 1
  11              		.eabi_attribute 26, 1
  12              		.eabi_attribute 30, 1
  13              		.eabi_attribute 34, 1
  14              		.eabi_attribute 18, 4
  15              		.file	"lv_theme_mono.c"
  16              		.text
  17              	.Ltext0:
  18              		.cfi_sections	.debug_frame
  19              		.section	.text.theme_apply,"ax",%progbits
  20              		.align	1
  21              		.syntax unified
  22              		.thumb
  23              		.thumb_func
  25              	theme_apply:
  26              	.LVL0:
  27              	.LFB207:
  28              		.file 1 "Drivers/lvgl/src/extra/themes/mono/lv_theme_mono.c"
   1:Drivers/lvgl/src/extra/themes/mono/lv_theme_mono.c **** /**
   2:Drivers/lvgl/src/extra/themes/mono/lv_theme_mono.c ****  * @file lv_theme_mono.c
   3:Drivers/lvgl/src/extra/themes/mono/lv_theme_mono.c ****  *
   4:Drivers/lvgl/src/extra/themes/mono/lv_theme_mono.c ****  */
   5:Drivers/lvgl/src/extra/themes/mono/lv_theme_mono.c **** 
   6:Drivers/lvgl/src/extra/themes/mono/lv_theme_mono.c **** /*********************
   7:Drivers/lvgl/src/extra/themes/mono/lv_theme_mono.c ****  *      INCLUDES
   8:Drivers/lvgl/src/extra/themes/mono/lv_theme_mono.c ****  *********************/
   9:Drivers/lvgl/src/extra/themes/mono/lv_theme_mono.c **** #include "../../../lvgl.h"
  10:Drivers/lvgl/src/extra/themes/mono/lv_theme_mono.c **** 
  11:Drivers/lvgl/src/extra/themes/mono/lv_theme_mono.c **** #if LV_USE_THEME_MONO
  12:Drivers/lvgl/src/extra/themes/mono/lv_theme_mono.c **** 
  13:Drivers/lvgl/src/extra/themes/mono/lv_theme_mono.c **** #include "lv_theme_mono.h"
  14:Drivers/lvgl/src/extra/themes/mono/lv_theme_mono.c **** #include "../../../misc/lv_gc.h"
  15:Drivers/lvgl/src/extra/themes/mono/lv_theme_mono.c **** 
  16:Drivers/lvgl/src/extra/themes/mono/lv_theme_mono.c **** /*********************
  17:Drivers/lvgl/src/extra/themes/mono/lv_theme_mono.c ****  *      DEFINES
  18:Drivers/lvgl/src/extra/themes/mono/lv_theme_mono.c ****  *********************/
  19:Drivers/lvgl/src/extra/themes/mono/lv_theme_mono.c **** 
  20:Drivers/lvgl/src/extra/themes/mono/lv_theme_mono.c **** #define COLOR_FG      dark_bg ? lv_color_white() : lv_color_black()
  21:Drivers/lvgl/src/extra/themes/mono/lv_theme_mono.c **** #define COLOR_BG      dark_bg ? lv_color_black() : lv_color_white()
  22:Drivers/lvgl/src/extra/themes/mono/lv_theme_mono.c **** 
  23:Drivers/lvgl/src/extra/themes/mono/lv_theme_mono.c **** #define BORDER_W_NORMAL  1
  24:Drivers/lvgl/src/extra/themes/mono/lv_theme_mono.c **** #define BORDER_W_PR      3
  25:Drivers/lvgl/src/extra/themes/mono/lv_theme_mono.c **** #define BORDER_W_DIS     0
  26:Drivers/lvgl/src/extra/themes/mono/lv_theme_mono.c **** #define BORDER_W_FOCUS   1
  27:Drivers/lvgl/src/extra/themes/mono/lv_theme_mono.c **** #define BORDER_W_EDIT    2
  28:Drivers/lvgl/src/extra/themes/mono/lv_theme_mono.c **** #define PAD_DEF          4
  29:Drivers/lvgl/src/extra/themes/mono/lv_theme_mono.c **** 
  30:Drivers/lvgl/src/extra/themes/mono/lv_theme_mono.c **** /**********************
ARM GAS  /var/folders/0z/tsy30v1j4xl4_7kw94k978ww0000gn/T//ccjTTGyJ.s 			page 2


  31:Drivers/lvgl/src/extra/themes/mono/lv_theme_mono.c ****  *      TYPEDEFS
  32:Drivers/lvgl/src/extra/themes/mono/lv_theme_mono.c ****  **********************/
  33:Drivers/lvgl/src/extra/themes/mono/lv_theme_mono.c **** typedef struct {
  34:Drivers/lvgl/src/extra/themes/mono/lv_theme_mono.c ****     lv_style_t scr;
  35:Drivers/lvgl/src/extra/themes/mono/lv_theme_mono.c ****     lv_style_t card;
  36:Drivers/lvgl/src/extra/themes/mono/lv_theme_mono.c ****     lv_style_t scrollbar;
  37:Drivers/lvgl/src/extra/themes/mono/lv_theme_mono.c ****     lv_style_t btn;
  38:Drivers/lvgl/src/extra/themes/mono/lv_theme_mono.c ****     lv_style_t pr;
  39:Drivers/lvgl/src/extra/themes/mono/lv_theme_mono.c ****     lv_style_t inv;
  40:Drivers/lvgl/src/extra/themes/mono/lv_theme_mono.c ****     lv_style_t disabled;
  41:Drivers/lvgl/src/extra/themes/mono/lv_theme_mono.c ****     lv_style_t focus;
  42:Drivers/lvgl/src/extra/themes/mono/lv_theme_mono.c ****     lv_style_t edit;
  43:Drivers/lvgl/src/extra/themes/mono/lv_theme_mono.c ****     lv_style_t pad_gap;
  44:Drivers/lvgl/src/extra/themes/mono/lv_theme_mono.c ****     lv_style_t pad_zero;
  45:Drivers/lvgl/src/extra/themes/mono/lv_theme_mono.c ****     lv_style_t no_radius;
  46:Drivers/lvgl/src/extra/themes/mono/lv_theme_mono.c ****     lv_style_t radius_circle;
  47:Drivers/lvgl/src/extra/themes/mono/lv_theme_mono.c ****     lv_style_t large_border;
  48:Drivers/lvgl/src/extra/themes/mono/lv_theme_mono.c ****     lv_style_t large_line_space;
  49:Drivers/lvgl/src/extra/themes/mono/lv_theme_mono.c ****     lv_style_t underline;
  50:Drivers/lvgl/src/extra/themes/mono/lv_theme_mono.c **** #if LV_USE_TEXTAREA
  51:Drivers/lvgl/src/extra/themes/mono/lv_theme_mono.c ****     lv_style_t ta_cursor;
  52:Drivers/lvgl/src/extra/themes/mono/lv_theme_mono.c **** #endif
  53:Drivers/lvgl/src/extra/themes/mono/lv_theme_mono.c **** } my_theme_styles_t;
  54:Drivers/lvgl/src/extra/themes/mono/lv_theme_mono.c **** 
  55:Drivers/lvgl/src/extra/themes/mono/lv_theme_mono.c **** 
  56:Drivers/lvgl/src/extra/themes/mono/lv_theme_mono.c **** /**********************
  57:Drivers/lvgl/src/extra/themes/mono/lv_theme_mono.c ****  *  STATIC PROTOTYPES
  58:Drivers/lvgl/src/extra/themes/mono/lv_theme_mono.c ****  **********************/
  59:Drivers/lvgl/src/extra/themes/mono/lv_theme_mono.c **** static void style_init_reset(lv_style_t * style);
  60:Drivers/lvgl/src/extra/themes/mono/lv_theme_mono.c **** static void theme_apply(lv_theme_t * th, lv_obj_t * obj);
  61:Drivers/lvgl/src/extra/themes/mono/lv_theme_mono.c **** 
  62:Drivers/lvgl/src/extra/themes/mono/lv_theme_mono.c **** /**********************
  63:Drivers/lvgl/src/extra/themes/mono/lv_theme_mono.c ****  *  STATIC VARIABLES
  64:Drivers/lvgl/src/extra/themes/mono/lv_theme_mono.c ****  **********************/
  65:Drivers/lvgl/src/extra/themes/mono/lv_theme_mono.c **** static my_theme_styles_t * styles;
  66:Drivers/lvgl/src/extra/themes/mono/lv_theme_mono.c **** static lv_theme_t theme;
  67:Drivers/lvgl/src/extra/themes/mono/lv_theme_mono.c **** static bool inited;
  68:Drivers/lvgl/src/extra/themes/mono/lv_theme_mono.c **** 
  69:Drivers/lvgl/src/extra/themes/mono/lv_theme_mono.c **** /**********************
  70:Drivers/lvgl/src/extra/themes/mono/lv_theme_mono.c ****  *      MACROS
  71:Drivers/lvgl/src/extra/themes/mono/lv_theme_mono.c ****  **********************/
  72:Drivers/lvgl/src/extra/themes/mono/lv_theme_mono.c **** 
  73:Drivers/lvgl/src/extra/themes/mono/lv_theme_mono.c **** /**********************
  74:Drivers/lvgl/src/extra/themes/mono/lv_theme_mono.c ****  *   STATIC FUNCTIONS
  75:Drivers/lvgl/src/extra/themes/mono/lv_theme_mono.c ****  **********************/
  76:Drivers/lvgl/src/extra/themes/mono/lv_theme_mono.c **** 
  77:Drivers/lvgl/src/extra/themes/mono/lv_theme_mono.c **** static void style_init(bool dark_bg, const lv_font_t * font)
  78:Drivers/lvgl/src/extra/themes/mono/lv_theme_mono.c **** {
  79:Drivers/lvgl/src/extra/themes/mono/lv_theme_mono.c ****     style_init_reset(&styles->scrollbar);
  80:Drivers/lvgl/src/extra/themes/mono/lv_theme_mono.c ****     lv_style_set_bg_opa(&styles->scrollbar, LV_OPA_COVER);
  81:Drivers/lvgl/src/extra/themes/mono/lv_theme_mono.c ****     lv_style_set_bg_color(&styles->scrollbar, COLOR_FG);
  82:Drivers/lvgl/src/extra/themes/mono/lv_theme_mono.c ****     lv_style_set_width(&styles->scrollbar,  PAD_DEF);
  83:Drivers/lvgl/src/extra/themes/mono/lv_theme_mono.c **** 
  84:Drivers/lvgl/src/extra/themes/mono/lv_theme_mono.c ****     style_init_reset(&styles->scr);
  85:Drivers/lvgl/src/extra/themes/mono/lv_theme_mono.c ****     lv_style_set_bg_opa(&styles->scr, LV_OPA_COVER);
  86:Drivers/lvgl/src/extra/themes/mono/lv_theme_mono.c ****     lv_style_set_bg_color(&styles->scr, COLOR_BG);
  87:Drivers/lvgl/src/extra/themes/mono/lv_theme_mono.c ****     lv_style_set_text_color(&styles->scr, COLOR_FG);
ARM GAS  /var/folders/0z/tsy30v1j4xl4_7kw94k978ww0000gn/T//ccjTTGyJ.s 			page 3


  88:Drivers/lvgl/src/extra/themes/mono/lv_theme_mono.c ****     lv_style_set_pad_row(&styles->scr, PAD_DEF);
  89:Drivers/lvgl/src/extra/themes/mono/lv_theme_mono.c ****     lv_style_set_pad_column(&styles->scr, PAD_DEF);
  90:Drivers/lvgl/src/extra/themes/mono/lv_theme_mono.c ****     lv_style_set_text_font(&styles->scr, font);
  91:Drivers/lvgl/src/extra/themes/mono/lv_theme_mono.c **** 
  92:Drivers/lvgl/src/extra/themes/mono/lv_theme_mono.c ****     style_init_reset(&styles->card);
  93:Drivers/lvgl/src/extra/themes/mono/lv_theme_mono.c ****     lv_style_set_bg_opa(&styles->card, LV_OPA_COVER);
  94:Drivers/lvgl/src/extra/themes/mono/lv_theme_mono.c ****     lv_style_set_bg_color(&styles->card, COLOR_BG);
  95:Drivers/lvgl/src/extra/themes/mono/lv_theme_mono.c ****     lv_style_set_border_color(&styles->card, COLOR_FG);
  96:Drivers/lvgl/src/extra/themes/mono/lv_theme_mono.c ****     lv_style_set_radius(&styles->card, 2);
  97:Drivers/lvgl/src/extra/themes/mono/lv_theme_mono.c ****     lv_style_set_border_width(&styles->card, BORDER_W_NORMAL);
  98:Drivers/lvgl/src/extra/themes/mono/lv_theme_mono.c ****     lv_style_set_pad_all(&styles->card, PAD_DEF);
  99:Drivers/lvgl/src/extra/themes/mono/lv_theme_mono.c ****     lv_style_set_pad_gap(&styles->card, PAD_DEF);
 100:Drivers/lvgl/src/extra/themes/mono/lv_theme_mono.c ****     lv_style_set_text_color(&styles->card, COLOR_FG);
 101:Drivers/lvgl/src/extra/themes/mono/lv_theme_mono.c ****     lv_style_set_line_width(&styles->card, 2);
 102:Drivers/lvgl/src/extra/themes/mono/lv_theme_mono.c ****     lv_style_set_line_color(&styles->card, COLOR_FG);
 103:Drivers/lvgl/src/extra/themes/mono/lv_theme_mono.c ****     lv_style_set_arc_width(&styles->card, 2);
 104:Drivers/lvgl/src/extra/themes/mono/lv_theme_mono.c ****     lv_style_set_arc_color(&styles->card, COLOR_FG);
 105:Drivers/lvgl/src/extra/themes/mono/lv_theme_mono.c ****     lv_style_set_outline_color(&styles->card, COLOR_FG);
 106:Drivers/lvgl/src/extra/themes/mono/lv_theme_mono.c ****     lv_style_set_anim_time(&styles->card, 300);
 107:Drivers/lvgl/src/extra/themes/mono/lv_theme_mono.c **** 
 108:Drivers/lvgl/src/extra/themes/mono/lv_theme_mono.c ****     style_init_reset(&styles->pr);
 109:Drivers/lvgl/src/extra/themes/mono/lv_theme_mono.c ****     lv_style_set_border_width(&styles->pr, BORDER_W_PR);
 110:Drivers/lvgl/src/extra/themes/mono/lv_theme_mono.c **** 
 111:Drivers/lvgl/src/extra/themes/mono/lv_theme_mono.c ****     style_init_reset(&styles->inv);
 112:Drivers/lvgl/src/extra/themes/mono/lv_theme_mono.c ****     lv_style_set_bg_opa(&styles->inv, LV_OPA_COVER);
 113:Drivers/lvgl/src/extra/themes/mono/lv_theme_mono.c ****     lv_style_set_bg_color(&styles->inv, COLOR_FG);
 114:Drivers/lvgl/src/extra/themes/mono/lv_theme_mono.c ****     lv_style_set_border_color(&styles->inv, COLOR_BG);
 115:Drivers/lvgl/src/extra/themes/mono/lv_theme_mono.c ****     lv_style_set_line_color(&styles->inv, COLOR_BG);
 116:Drivers/lvgl/src/extra/themes/mono/lv_theme_mono.c ****     lv_style_set_arc_color(&styles->inv, COLOR_BG);
 117:Drivers/lvgl/src/extra/themes/mono/lv_theme_mono.c ****     lv_style_set_text_color(&styles->inv, COLOR_BG);
 118:Drivers/lvgl/src/extra/themes/mono/lv_theme_mono.c ****     lv_style_set_outline_color(&styles->inv, COLOR_BG);
 119:Drivers/lvgl/src/extra/themes/mono/lv_theme_mono.c **** 
 120:Drivers/lvgl/src/extra/themes/mono/lv_theme_mono.c ****     style_init_reset(&styles->disabled);
 121:Drivers/lvgl/src/extra/themes/mono/lv_theme_mono.c ****     lv_style_set_border_width(&styles->disabled, BORDER_W_DIS);
 122:Drivers/lvgl/src/extra/themes/mono/lv_theme_mono.c **** 
 123:Drivers/lvgl/src/extra/themes/mono/lv_theme_mono.c ****     style_init_reset(&styles->focus);
 124:Drivers/lvgl/src/extra/themes/mono/lv_theme_mono.c ****     lv_style_set_outline_width(&styles->focus, 1);
 125:Drivers/lvgl/src/extra/themes/mono/lv_theme_mono.c ****     lv_style_set_outline_pad(&styles->focus, BORDER_W_FOCUS);
 126:Drivers/lvgl/src/extra/themes/mono/lv_theme_mono.c **** 
 127:Drivers/lvgl/src/extra/themes/mono/lv_theme_mono.c ****     style_init_reset(&styles->edit);
 128:Drivers/lvgl/src/extra/themes/mono/lv_theme_mono.c ****     lv_style_set_outline_width(&styles->edit, BORDER_W_EDIT);
 129:Drivers/lvgl/src/extra/themes/mono/lv_theme_mono.c **** 
 130:Drivers/lvgl/src/extra/themes/mono/lv_theme_mono.c ****     style_init_reset(&styles->large_border);
 131:Drivers/lvgl/src/extra/themes/mono/lv_theme_mono.c ****     lv_style_set_border_width(&styles->large_border, BORDER_W_EDIT);
 132:Drivers/lvgl/src/extra/themes/mono/lv_theme_mono.c **** 
 133:Drivers/lvgl/src/extra/themes/mono/lv_theme_mono.c ****     style_init_reset(&styles->pad_gap);
 134:Drivers/lvgl/src/extra/themes/mono/lv_theme_mono.c ****     lv_style_set_pad_gap(&styles->pad_gap, PAD_DEF);
 135:Drivers/lvgl/src/extra/themes/mono/lv_theme_mono.c **** 
 136:Drivers/lvgl/src/extra/themes/mono/lv_theme_mono.c ****     style_init_reset(&styles->pad_zero);
 137:Drivers/lvgl/src/extra/themes/mono/lv_theme_mono.c ****     lv_style_set_pad_all(&styles->pad_zero, 0);
 138:Drivers/lvgl/src/extra/themes/mono/lv_theme_mono.c ****     lv_style_set_pad_gap(&styles->pad_zero, 0);
 139:Drivers/lvgl/src/extra/themes/mono/lv_theme_mono.c **** 
 140:Drivers/lvgl/src/extra/themes/mono/lv_theme_mono.c ****     style_init_reset(&styles->no_radius);
 141:Drivers/lvgl/src/extra/themes/mono/lv_theme_mono.c ****     lv_style_set_radius(&styles->no_radius, 0);
 142:Drivers/lvgl/src/extra/themes/mono/lv_theme_mono.c **** 
 143:Drivers/lvgl/src/extra/themes/mono/lv_theme_mono.c ****     style_init_reset(&styles->radius_circle);
 144:Drivers/lvgl/src/extra/themes/mono/lv_theme_mono.c ****     lv_style_set_radius(&styles->radius_circle, LV_RADIUS_CIRCLE);
ARM GAS  /var/folders/0z/tsy30v1j4xl4_7kw94k978ww0000gn/T//ccjTTGyJ.s 			page 4


 145:Drivers/lvgl/src/extra/themes/mono/lv_theme_mono.c **** 
 146:Drivers/lvgl/src/extra/themes/mono/lv_theme_mono.c ****     style_init_reset(&styles->large_line_space);
 147:Drivers/lvgl/src/extra/themes/mono/lv_theme_mono.c ****     lv_style_set_text_line_space(&styles->large_line_space, 6);
 148:Drivers/lvgl/src/extra/themes/mono/lv_theme_mono.c **** 
 149:Drivers/lvgl/src/extra/themes/mono/lv_theme_mono.c ****     style_init_reset(&styles->underline);
 150:Drivers/lvgl/src/extra/themes/mono/lv_theme_mono.c ****     lv_style_set_text_decor(&styles->underline, LV_TEXT_DECOR_UNDERLINE);
 151:Drivers/lvgl/src/extra/themes/mono/lv_theme_mono.c **** 
 152:Drivers/lvgl/src/extra/themes/mono/lv_theme_mono.c **** #if LV_USE_TEXTAREA
 153:Drivers/lvgl/src/extra/themes/mono/lv_theme_mono.c ****     style_init_reset(&styles->ta_cursor);
 154:Drivers/lvgl/src/extra/themes/mono/lv_theme_mono.c ****     lv_style_set_border_side(&styles->ta_cursor, LV_BORDER_SIDE_LEFT);
 155:Drivers/lvgl/src/extra/themes/mono/lv_theme_mono.c ****     lv_style_set_border_color(&styles->ta_cursor, COLOR_FG);
 156:Drivers/lvgl/src/extra/themes/mono/lv_theme_mono.c ****     lv_style_set_border_width(&styles->ta_cursor, 2);
 157:Drivers/lvgl/src/extra/themes/mono/lv_theme_mono.c ****     lv_style_set_bg_opa(&styles->ta_cursor, LV_OPA_TRANSP);
 158:Drivers/lvgl/src/extra/themes/mono/lv_theme_mono.c ****     lv_style_set_anim_time(&styles->ta_cursor, 500);
 159:Drivers/lvgl/src/extra/themes/mono/lv_theme_mono.c **** #endif
 160:Drivers/lvgl/src/extra/themes/mono/lv_theme_mono.c **** }
 161:Drivers/lvgl/src/extra/themes/mono/lv_theme_mono.c **** 
 162:Drivers/lvgl/src/extra/themes/mono/lv_theme_mono.c **** 
 163:Drivers/lvgl/src/extra/themes/mono/lv_theme_mono.c **** /**********************
 164:Drivers/lvgl/src/extra/themes/mono/lv_theme_mono.c ****  *   GLOBAL FUNCTIONS
 165:Drivers/lvgl/src/extra/themes/mono/lv_theme_mono.c ****  **********************/
 166:Drivers/lvgl/src/extra/themes/mono/lv_theme_mono.c **** 
 167:Drivers/lvgl/src/extra/themes/mono/lv_theme_mono.c **** bool lv_theme_mono_is_inited(void)
 168:Drivers/lvgl/src/extra/themes/mono/lv_theme_mono.c **** {
 169:Drivers/lvgl/src/extra/themes/mono/lv_theme_mono.c ****     return  LV_GC_ROOT(_lv_theme_default_styles) == NULL ? false : true;
 170:Drivers/lvgl/src/extra/themes/mono/lv_theme_mono.c **** }
 171:Drivers/lvgl/src/extra/themes/mono/lv_theme_mono.c **** 
 172:Drivers/lvgl/src/extra/themes/mono/lv_theme_mono.c **** lv_theme_t * lv_theme_mono_init(lv_disp_t * disp, bool dark_bg, const lv_font_t * font)
 173:Drivers/lvgl/src/extra/themes/mono/lv_theme_mono.c **** {
 174:Drivers/lvgl/src/extra/themes/mono/lv_theme_mono.c **** 
 175:Drivers/lvgl/src/extra/themes/mono/lv_theme_mono.c ****     /*This trick is required only to avoid the garbage collection of
 176:Drivers/lvgl/src/extra/themes/mono/lv_theme_mono.c ****      *styles' data if LVGL is used in a binding (e.g. Micropython)
 177:Drivers/lvgl/src/extra/themes/mono/lv_theme_mono.c ****      *In a general case styles could be in simple `static lv_style_t my_style...` variables*/
 178:Drivers/lvgl/src/extra/themes/mono/lv_theme_mono.c ****     if(!inited) {
 179:Drivers/lvgl/src/extra/themes/mono/lv_theme_mono.c ****         inited = false;
 180:Drivers/lvgl/src/extra/themes/mono/lv_theme_mono.c ****         LV_GC_ROOT(_lv_theme_default_styles) = lv_mem_alloc(sizeof(my_theme_styles_t));
 181:Drivers/lvgl/src/extra/themes/mono/lv_theme_mono.c ****         styles = (my_theme_styles_t *)LV_GC_ROOT(_lv_theme_default_styles);
 182:Drivers/lvgl/src/extra/themes/mono/lv_theme_mono.c ****     }
 183:Drivers/lvgl/src/extra/themes/mono/lv_theme_mono.c **** 
 184:Drivers/lvgl/src/extra/themes/mono/lv_theme_mono.c ****     theme.disp = disp;
 185:Drivers/lvgl/src/extra/themes/mono/lv_theme_mono.c ****     theme.font_small = LV_FONT_DEFAULT;
 186:Drivers/lvgl/src/extra/themes/mono/lv_theme_mono.c ****     theme.font_normal = LV_FONT_DEFAULT;
 187:Drivers/lvgl/src/extra/themes/mono/lv_theme_mono.c ****     theme.font_large = LV_FONT_DEFAULT;
 188:Drivers/lvgl/src/extra/themes/mono/lv_theme_mono.c ****     theme.apply_cb = theme_apply;
 189:Drivers/lvgl/src/extra/themes/mono/lv_theme_mono.c **** 
 190:Drivers/lvgl/src/extra/themes/mono/lv_theme_mono.c ****     style_init(dark_bg, font);
 191:Drivers/lvgl/src/extra/themes/mono/lv_theme_mono.c **** 
 192:Drivers/lvgl/src/extra/themes/mono/lv_theme_mono.c ****     if(disp == NULL || lv_disp_get_theme(disp) == &theme) lv_obj_report_style_change(NULL);
 193:Drivers/lvgl/src/extra/themes/mono/lv_theme_mono.c **** 
 194:Drivers/lvgl/src/extra/themes/mono/lv_theme_mono.c ****     inited = true;
 195:Drivers/lvgl/src/extra/themes/mono/lv_theme_mono.c **** 
 196:Drivers/lvgl/src/extra/themes/mono/lv_theme_mono.c ****     return (lv_theme_t *)&theme;
 197:Drivers/lvgl/src/extra/themes/mono/lv_theme_mono.c **** }
 198:Drivers/lvgl/src/extra/themes/mono/lv_theme_mono.c **** 
 199:Drivers/lvgl/src/extra/themes/mono/lv_theme_mono.c **** 
 200:Drivers/lvgl/src/extra/themes/mono/lv_theme_mono.c **** static void theme_apply(lv_theme_t * th, lv_obj_t * obj)
 201:Drivers/lvgl/src/extra/themes/mono/lv_theme_mono.c **** {
ARM GAS  /var/folders/0z/tsy30v1j4xl4_7kw94k978ww0000gn/T//ccjTTGyJ.s 			page 5


  29              		.loc 1 201 1 view -0
  30              		.cfi_startproc
  31              		@ args = 0, pretend = 0, frame = 0
  32              		@ frame_needed = 0, uses_anonymous_args = 0
  33              		.loc 1 201 1 is_stmt 0 view .LVU1
  34 0000 70B5     		push	{r4, r5, r6, lr}
  35              		.cfi_def_cfa_offset 16
  36              		.cfi_offset 4, -16
  37              		.cfi_offset 5, -12
  38              		.cfi_offset 6, -8
  39              		.cfi_offset 14, -4
  40 0002 0C46     		mov	r4, r1
 202:Drivers/lvgl/src/extra/themes/mono/lv_theme_mono.c ****     LV_UNUSED(th);
  41              		.loc 1 202 5 is_stmt 1 view .LVU2
 203:Drivers/lvgl/src/extra/themes/mono/lv_theme_mono.c **** 
 204:Drivers/lvgl/src/extra/themes/mono/lv_theme_mono.c ****     if(lv_obj_get_parent(obj) == NULL) {
  42              		.loc 1 204 5 view .LVU3
  43              		.loc 1 204 8 is_stmt 0 view .LVU4
  44 0004 0846     		mov	r0, r1
  45              	.LVL1:
  46              		.loc 1 204 8 view .LVU5
  47 0006 FFF7FEFF 		bl	lv_obj_get_parent
  48              	.LVL2:
  49              		.loc 1 204 7 view .LVU6
  50 000a 70B1     		cbz	r0, .L33
 205:Drivers/lvgl/src/extra/themes/mono/lv_theme_mono.c ****         lv_obj_add_style(obj, &styles->scr, 0);
 206:Drivers/lvgl/src/extra/themes/mono/lv_theme_mono.c ****         lv_obj_add_style(obj, &styles->scrollbar, LV_PART_SCROLLBAR);
 207:Drivers/lvgl/src/extra/themes/mono/lv_theme_mono.c ****         return;
 208:Drivers/lvgl/src/extra/themes/mono/lv_theme_mono.c ****     }
 209:Drivers/lvgl/src/extra/themes/mono/lv_theme_mono.c **** 
 210:Drivers/lvgl/src/extra/themes/mono/lv_theme_mono.c ****     if(lv_obj_check_type(obj, &lv_obj_class)) {
  51              		.loc 1 210 5 is_stmt 1 view .LVU7
  52              		.loc 1 210 8 is_stmt 0 view .LVU8
  53 000c BA49     		ldr	r1, .L42
  54 000e 2046     		mov	r0, r4
  55 0010 FFF7FEFF 		bl	lv_obj_check_type
  56              	.LVL3:
  57              		.loc 1 210 7 view .LVU9
  58 0014 0028     		cmp	r0, #0
  59 0016 7CD0     		beq	.L4
  60              	.LBB134:
 211:Drivers/lvgl/src/extra/themes/mono/lv_theme_mono.c **** #if LV_USE_TABVIEW
 212:Drivers/lvgl/src/extra/themes/mono/lv_theme_mono.c ****         lv_obj_t * parent = lv_obj_get_parent(obj);
  61              		.loc 1 212 9 is_stmt 1 view .LVU10
  62              		.loc 1 212 29 is_stmt 0 view .LVU11
  63 0018 2046     		mov	r0, r4
  64 001a FFF7FEFF 		bl	lv_obj_get_parent
  65              	.LVL4:
  66 001e 0546     		mov	r5, r0
  67              	.LVL5:
 213:Drivers/lvgl/src/extra/themes/mono/lv_theme_mono.c ****         /*Tabview content area*/
 214:Drivers/lvgl/src/extra/themes/mono/lv_theme_mono.c ****         if(lv_obj_check_type(parent, &lv_tabview_class)) {
  68              		.loc 1 214 9 is_stmt 1 view .LVU12
  69              		.loc 1 214 12 is_stmt 0 view .LVU13
  70 0020 B649     		ldr	r1, .L42+4
  71 0022 FFF7FEFF 		bl	lv_obj_check_type
  72              	.LVL6:
ARM GAS  /var/folders/0z/tsy30v1j4xl4_7kw94k978ww0000gn/T//ccjTTGyJ.s 			page 6


  73              		.loc 1 214 11 view .LVU14
  74 0026 70B1     		cbz	r0, .L34
  75              	.LVL7:
  76              	.L1:
  77              		.loc 1 214 11 view .LVU15
  78              	.LBE134:
 215:Drivers/lvgl/src/extra/themes/mono/lv_theme_mono.c ****             return;
 216:Drivers/lvgl/src/extra/themes/mono/lv_theme_mono.c ****         }
 217:Drivers/lvgl/src/extra/themes/mono/lv_theme_mono.c ****         /*Tabview pages*/
 218:Drivers/lvgl/src/extra/themes/mono/lv_theme_mono.c ****         else if(lv_obj_check_type(lv_obj_get_parent(parent), &lv_tabview_class)) {
 219:Drivers/lvgl/src/extra/themes/mono/lv_theme_mono.c ****             lv_obj_add_style(obj, &styles->card, 0);
 220:Drivers/lvgl/src/extra/themes/mono/lv_theme_mono.c ****             lv_obj_add_style(obj, &styles->no_radius, 0);
 221:Drivers/lvgl/src/extra/themes/mono/lv_theme_mono.c ****             lv_obj_add_style(obj, &styles->scrollbar, LV_PART_SCROLLBAR);
 222:Drivers/lvgl/src/extra/themes/mono/lv_theme_mono.c ****             return;
 223:Drivers/lvgl/src/extra/themes/mono/lv_theme_mono.c ****         }
 224:Drivers/lvgl/src/extra/themes/mono/lv_theme_mono.c **** #endif
 225:Drivers/lvgl/src/extra/themes/mono/lv_theme_mono.c **** 
 226:Drivers/lvgl/src/extra/themes/mono/lv_theme_mono.c **** #if LV_USE_WIN
 227:Drivers/lvgl/src/extra/themes/mono/lv_theme_mono.c ****         /*Header*/
 228:Drivers/lvgl/src/extra/themes/mono/lv_theme_mono.c ****         if(lv_obj_get_index(obj) == 0 && lv_obj_check_type(lv_obj_get_parent(obj), &lv_win_class)) 
 229:Drivers/lvgl/src/extra/themes/mono/lv_theme_mono.c ****             lv_obj_add_style(obj, &styles->card, 0);
 230:Drivers/lvgl/src/extra/themes/mono/lv_theme_mono.c ****             lv_obj_add_style(obj, &styles->no_radius, 0);
 231:Drivers/lvgl/src/extra/themes/mono/lv_theme_mono.c ****             return;
 232:Drivers/lvgl/src/extra/themes/mono/lv_theme_mono.c ****         }
 233:Drivers/lvgl/src/extra/themes/mono/lv_theme_mono.c ****         /*Content*/
 234:Drivers/lvgl/src/extra/themes/mono/lv_theme_mono.c ****         else if(lv_obj_get_index(obj) == 1 && lv_obj_check_type(lv_obj_get_parent(obj), &lv_win_cla
 235:Drivers/lvgl/src/extra/themes/mono/lv_theme_mono.c ****             lv_obj_add_style(obj, &styles->card, 0);
 236:Drivers/lvgl/src/extra/themes/mono/lv_theme_mono.c ****             lv_obj_add_style(obj, &styles->no_radius, 0);
 237:Drivers/lvgl/src/extra/themes/mono/lv_theme_mono.c ****             lv_obj_add_style(obj, &styles->scrollbar, LV_PART_SCROLLBAR);
 238:Drivers/lvgl/src/extra/themes/mono/lv_theme_mono.c ****             return;
 239:Drivers/lvgl/src/extra/themes/mono/lv_theme_mono.c ****         }
 240:Drivers/lvgl/src/extra/themes/mono/lv_theme_mono.c **** #endif
 241:Drivers/lvgl/src/extra/themes/mono/lv_theme_mono.c ****         lv_obj_add_style(obj, &styles->card, 0);
 242:Drivers/lvgl/src/extra/themes/mono/lv_theme_mono.c ****         lv_obj_add_style(obj, &styles->scrollbar, LV_PART_SCROLLBAR);
 243:Drivers/lvgl/src/extra/themes/mono/lv_theme_mono.c ****     }
 244:Drivers/lvgl/src/extra/themes/mono/lv_theme_mono.c **** #if LV_USE_BTN
 245:Drivers/lvgl/src/extra/themes/mono/lv_theme_mono.c ****     else if(lv_obj_check_type(obj, &lv_btn_class)) {
 246:Drivers/lvgl/src/extra/themes/mono/lv_theme_mono.c ****         lv_obj_add_style(obj, &styles->card, 0);
 247:Drivers/lvgl/src/extra/themes/mono/lv_theme_mono.c ****         lv_obj_add_style(obj, &styles->pr, LV_STATE_PRESSED);
 248:Drivers/lvgl/src/extra/themes/mono/lv_theme_mono.c ****         lv_obj_add_style(obj, &styles->inv, LV_STATE_CHECKED);
 249:Drivers/lvgl/src/extra/themes/mono/lv_theme_mono.c ****         lv_obj_add_style(obj, &styles->disabled, LV_STATE_DISABLED);
 250:Drivers/lvgl/src/extra/themes/mono/lv_theme_mono.c ****         lv_obj_add_style(obj, &styles->focus, LV_STATE_FOCUS_KEY);
 251:Drivers/lvgl/src/extra/themes/mono/lv_theme_mono.c ****         lv_obj_add_style(obj, &styles->edit, LV_STATE_EDITED);
 252:Drivers/lvgl/src/extra/themes/mono/lv_theme_mono.c ****     }
 253:Drivers/lvgl/src/extra/themes/mono/lv_theme_mono.c **** #endif
 254:Drivers/lvgl/src/extra/themes/mono/lv_theme_mono.c **** 
 255:Drivers/lvgl/src/extra/themes/mono/lv_theme_mono.c **** #if LV_USE_BTNMATRIX
 256:Drivers/lvgl/src/extra/themes/mono/lv_theme_mono.c ****     else if(lv_obj_check_type(obj, &lv_btnmatrix_class)) {
 257:Drivers/lvgl/src/extra/themes/mono/lv_theme_mono.c **** #if LV_USE_MSGBOX
 258:Drivers/lvgl/src/extra/themes/mono/lv_theme_mono.c ****         if(lv_obj_check_type(lv_obj_get_parent(obj), &lv_msgbox_class)) {
 259:Drivers/lvgl/src/extra/themes/mono/lv_theme_mono.c ****             lv_obj_add_style(obj, &styles->pad_gap, 0);
 260:Drivers/lvgl/src/extra/themes/mono/lv_theme_mono.c ****             lv_obj_add_style(obj, &styles->card, LV_PART_ITEMS);
 261:Drivers/lvgl/src/extra/themes/mono/lv_theme_mono.c ****             lv_obj_add_style(obj, &styles->pr, LV_PART_ITEMS | LV_STATE_PRESSED);
 262:Drivers/lvgl/src/extra/themes/mono/lv_theme_mono.c ****             lv_obj_add_style(obj, &styles->disabled, LV_PART_ITEMS | LV_STATE_DISABLED);
 263:Drivers/lvgl/src/extra/themes/mono/lv_theme_mono.c ****             lv_obj_add_style(obj, &styles->underline, LV_PART_ITEMS | LV_STATE_FOCUS_KEY);
 264:Drivers/lvgl/src/extra/themes/mono/lv_theme_mono.c ****             lv_obj_add_style(obj, &styles->large_border, LV_PART_ITEMS | LV_STATE_FOCUS_KEY);
 265:Drivers/lvgl/src/extra/themes/mono/lv_theme_mono.c ****             return;
ARM GAS  /var/folders/0z/tsy30v1j4xl4_7kw94k978ww0000gn/T//ccjTTGyJ.s 			page 7


 266:Drivers/lvgl/src/extra/themes/mono/lv_theme_mono.c ****         }
 267:Drivers/lvgl/src/extra/themes/mono/lv_theme_mono.c **** #endif
 268:Drivers/lvgl/src/extra/themes/mono/lv_theme_mono.c **** #if LV_USE_TABVIEW
 269:Drivers/lvgl/src/extra/themes/mono/lv_theme_mono.c ****         if(lv_obj_check_type(lv_obj_get_parent(obj), &lv_tabview_class)) {
 270:Drivers/lvgl/src/extra/themes/mono/lv_theme_mono.c ****             lv_obj_add_style(obj, &styles->pad_gap, 0);
 271:Drivers/lvgl/src/extra/themes/mono/lv_theme_mono.c ****             lv_obj_add_style(obj, &styles->card, LV_PART_ITEMS);
 272:Drivers/lvgl/src/extra/themes/mono/lv_theme_mono.c ****             lv_obj_add_style(obj, &styles->pr, LV_PART_ITEMS | LV_STATE_PRESSED);
 273:Drivers/lvgl/src/extra/themes/mono/lv_theme_mono.c ****             lv_obj_add_style(obj, &styles->inv, LV_PART_ITEMS | LV_STATE_CHECKED);
 274:Drivers/lvgl/src/extra/themes/mono/lv_theme_mono.c ****             lv_obj_add_style(obj, &styles->disabled, LV_PART_ITEMS | LV_STATE_DISABLED);
 275:Drivers/lvgl/src/extra/themes/mono/lv_theme_mono.c ****             lv_obj_add_style(obj, &styles->focus, LV_STATE_FOCUS_KEY);
 276:Drivers/lvgl/src/extra/themes/mono/lv_theme_mono.c ****             lv_obj_add_style(obj, &styles->underline, LV_PART_ITEMS | LV_STATE_FOCUS_KEY);
 277:Drivers/lvgl/src/extra/themes/mono/lv_theme_mono.c ****             lv_obj_add_style(obj, &styles->large_border, LV_PART_ITEMS | LV_STATE_FOCUS_KEY);
 278:Drivers/lvgl/src/extra/themes/mono/lv_theme_mono.c ****             return;
 279:Drivers/lvgl/src/extra/themes/mono/lv_theme_mono.c ****         }
 280:Drivers/lvgl/src/extra/themes/mono/lv_theme_mono.c **** #endif
 281:Drivers/lvgl/src/extra/themes/mono/lv_theme_mono.c ****         lv_obj_add_style(obj, &styles->card, 0);
 282:Drivers/lvgl/src/extra/themes/mono/lv_theme_mono.c ****         lv_obj_add_style(obj, &styles->focus, LV_STATE_FOCUS_KEY);
 283:Drivers/lvgl/src/extra/themes/mono/lv_theme_mono.c ****         lv_obj_add_style(obj, &styles->card, LV_PART_ITEMS);
 284:Drivers/lvgl/src/extra/themes/mono/lv_theme_mono.c ****         lv_obj_add_style(obj, &styles->pr, LV_PART_ITEMS | LV_STATE_PRESSED);
 285:Drivers/lvgl/src/extra/themes/mono/lv_theme_mono.c ****         lv_obj_add_style(obj, &styles->inv, LV_PART_ITEMS | LV_STATE_CHECKED);
 286:Drivers/lvgl/src/extra/themes/mono/lv_theme_mono.c ****         lv_obj_add_style(obj, &styles->disabled, LV_PART_ITEMS | LV_STATE_DISABLED);
 287:Drivers/lvgl/src/extra/themes/mono/lv_theme_mono.c ****         lv_obj_add_style(obj, &styles->underline, LV_PART_ITEMS | LV_STATE_FOCUS_KEY);
 288:Drivers/lvgl/src/extra/themes/mono/lv_theme_mono.c ****         lv_obj_add_style(obj, &styles->large_border, LV_PART_ITEMS | LV_STATE_FOCUS_KEY);
 289:Drivers/lvgl/src/extra/themes/mono/lv_theme_mono.c ****     }
 290:Drivers/lvgl/src/extra/themes/mono/lv_theme_mono.c **** #endif
 291:Drivers/lvgl/src/extra/themes/mono/lv_theme_mono.c **** 
 292:Drivers/lvgl/src/extra/themes/mono/lv_theme_mono.c **** #if LV_USE_BAR
 293:Drivers/lvgl/src/extra/themes/mono/lv_theme_mono.c ****     else if(lv_obj_check_type(obj, &lv_bar_class)) {
 294:Drivers/lvgl/src/extra/themes/mono/lv_theme_mono.c ****         lv_obj_add_style(obj, &styles->card, 0);
 295:Drivers/lvgl/src/extra/themes/mono/lv_theme_mono.c ****         lv_obj_add_style(obj, &styles->pad_zero, 0);
 296:Drivers/lvgl/src/extra/themes/mono/lv_theme_mono.c ****         lv_obj_add_style(obj, &styles->inv, LV_PART_INDICATOR);
 297:Drivers/lvgl/src/extra/themes/mono/lv_theme_mono.c ****         lv_obj_add_style(obj, &styles->focus, LV_STATE_FOCUS_KEY);
 298:Drivers/lvgl/src/extra/themes/mono/lv_theme_mono.c ****     }
 299:Drivers/lvgl/src/extra/themes/mono/lv_theme_mono.c **** #endif
 300:Drivers/lvgl/src/extra/themes/mono/lv_theme_mono.c **** 
 301:Drivers/lvgl/src/extra/themes/mono/lv_theme_mono.c **** #if LV_USE_SLIDER
 302:Drivers/lvgl/src/extra/themes/mono/lv_theme_mono.c ****     else if(lv_obj_check_type(obj, &lv_slider_class)) {
 303:Drivers/lvgl/src/extra/themes/mono/lv_theme_mono.c ****         lv_obj_add_style(obj, &styles->card, 0);
 304:Drivers/lvgl/src/extra/themes/mono/lv_theme_mono.c ****         lv_obj_add_style(obj, &styles->pad_zero, 0);
 305:Drivers/lvgl/src/extra/themes/mono/lv_theme_mono.c ****         lv_obj_add_style(obj, &styles->inv, LV_PART_INDICATOR);
 306:Drivers/lvgl/src/extra/themes/mono/lv_theme_mono.c ****         lv_obj_add_style(obj, &styles->card, LV_PART_KNOB);
 307:Drivers/lvgl/src/extra/themes/mono/lv_theme_mono.c ****         lv_obj_add_style(obj, &styles->radius_circle, LV_PART_KNOB);
 308:Drivers/lvgl/src/extra/themes/mono/lv_theme_mono.c ****         lv_obj_add_style(obj, &styles->focus, LV_STATE_FOCUS_KEY);
 309:Drivers/lvgl/src/extra/themes/mono/lv_theme_mono.c ****         lv_obj_add_style(obj, &styles->edit, LV_STATE_EDITED);
 310:Drivers/lvgl/src/extra/themes/mono/lv_theme_mono.c ****     }
 311:Drivers/lvgl/src/extra/themes/mono/lv_theme_mono.c **** #endif
 312:Drivers/lvgl/src/extra/themes/mono/lv_theme_mono.c **** 
 313:Drivers/lvgl/src/extra/themes/mono/lv_theme_mono.c **** #if LV_USE_TABLE
 314:Drivers/lvgl/src/extra/themes/mono/lv_theme_mono.c ****     else if(lv_obj_check_type(obj, &lv_table_class)) {
 315:Drivers/lvgl/src/extra/themes/mono/lv_theme_mono.c ****         lv_obj_add_style(obj, &styles->scrollbar, LV_PART_SCROLLBAR);
 316:Drivers/lvgl/src/extra/themes/mono/lv_theme_mono.c ****         lv_obj_add_style(obj, &styles->card, LV_PART_ITEMS);
 317:Drivers/lvgl/src/extra/themes/mono/lv_theme_mono.c ****         lv_obj_add_style(obj, &styles->no_radius, LV_PART_ITEMS);
 318:Drivers/lvgl/src/extra/themes/mono/lv_theme_mono.c ****         lv_obj_add_style(obj, &styles->pr, LV_PART_ITEMS | LV_STATE_PRESSED);
 319:Drivers/lvgl/src/extra/themes/mono/lv_theme_mono.c ****         lv_obj_add_style(obj, &styles->focus, LV_STATE_FOCUS_KEY);
 320:Drivers/lvgl/src/extra/themes/mono/lv_theme_mono.c ****         lv_obj_add_style(obj, &styles->inv, LV_PART_ITEMS | LV_STATE_FOCUS_KEY);
 321:Drivers/lvgl/src/extra/themes/mono/lv_theme_mono.c ****         lv_obj_add_style(obj, &styles->edit, LV_STATE_EDITED);
 322:Drivers/lvgl/src/extra/themes/mono/lv_theme_mono.c ****     }
ARM GAS  /var/folders/0z/tsy30v1j4xl4_7kw94k978ww0000gn/T//ccjTTGyJ.s 			page 8


 323:Drivers/lvgl/src/extra/themes/mono/lv_theme_mono.c **** #endif
 324:Drivers/lvgl/src/extra/themes/mono/lv_theme_mono.c **** 
 325:Drivers/lvgl/src/extra/themes/mono/lv_theme_mono.c **** #if LV_USE_CHECKBOX
 326:Drivers/lvgl/src/extra/themes/mono/lv_theme_mono.c ****     else if(lv_obj_check_type(obj, &lv_checkbox_class)) {
 327:Drivers/lvgl/src/extra/themes/mono/lv_theme_mono.c ****         lv_obj_add_style(obj, &styles->pad_gap, LV_PART_MAIN);
 328:Drivers/lvgl/src/extra/themes/mono/lv_theme_mono.c ****         lv_obj_add_style(obj, &styles->card, LV_PART_INDICATOR);
 329:Drivers/lvgl/src/extra/themes/mono/lv_theme_mono.c ****         lv_obj_add_style(obj, &styles->disabled, LV_PART_INDICATOR | LV_STATE_DISABLED);
 330:Drivers/lvgl/src/extra/themes/mono/lv_theme_mono.c ****         lv_obj_add_style(obj, &styles->inv, LV_PART_INDICATOR | LV_STATE_CHECKED);
 331:Drivers/lvgl/src/extra/themes/mono/lv_theme_mono.c ****         lv_obj_add_style(obj, &styles->pr, LV_PART_INDICATOR | LV_STATE_PRESSED);
 332:Drivers/lvgl/src/extra/themes/mono/lv_theme_mono.c ****         lv_obj_add_style(obj, &styles->focus, LV_STATE_FOCUS_KEY);
 333:Drivers/lvgl/src/extra/themes/mono/lv_theme_mono.c ****         lv_obj_add_style(obj, &styles->edit, LV_STATE_EDITED);
 334:Drivers/lvgl/src/extra/themes/mono/lv_theme_mono.c ****     }
 335:Drivers/lvgl/src/extra/themes/mono/lv_theme_mono.c **** #endif
 336:Drivers/lvgl/src/extra/themes/mono/lv_theme_mono.c **** 
 337:Drivers/lvgl/src/extra/themes/mono/lv_theme_mono.c **** #if LV_USE_SWITCH
 338:Drivers/lvgl/src/extra/themes/mono/lv_theme_mono.c ****     else if(lv_obj_check_type(obj, &lv_switch_class)) {
 339:Drivers/lvgl/src/extra/themes/mono/lv_theme_mono.c ****         lv_obj_add_style(obj, &styles->card, 0);
 340:Drivers/lvgl/src/extra/themes/mono/lv_theme_mono.c ****         lv_obj_add_style(obj, &styles->radius_circle, 0);
 341:Drivers/lvgl/src/extra/themes/mono/lv_theme_mono.c ****         lv_obj_add_style(obj, &styles->pad_zero, 0);
 342:Drivers/lvgl/src/extra/themes/mono/lv_theme_mono.c ****         lv_obj_add_style(obj, &styles->inv, LV_PART_INDICATOR);
 343:Drivers/lvgl/src/extra/themes/mono/lv_theme_mono.c ****         lv_obj_add_style(obj, &styles->radius_circle, LV_PART_INDICATOR);
 344:Drivers/lvgl/src/extra/themes/mono/lv_theme_mono.c ****         lv_obj_add_style(obj, &styles->card, LV_PART_KNOB);
 345:Drivers/lvgl/src/extra/themes/mono/lv_theme_mono.c ****         lv_obj_add_style(obj, &styles->radius_circle, LV_PART_KNOB);
 346:Drivers/lvgl/src/extra/themes/mono/lv_theme_mono.c ****         lv_obj_add_style(obj, &styles->pad_zero, LV_PART_KNOB);
 347:Drivers/lvgl/src/extra/themes/mono/lv_theme_mono.c ****         lv_obj_add_style(obj, &styles->focus, LV_STATE_FOCUS_KEY);
 348:Drivers/lvgl/src/extra/themes/mono/lv_theme_mono.c ****         lv_obj_add_style(obj, &styles->edit, LV_STATE_EDITED);
 349:Drivers/lvgl/src/extra/themes/mono/lv_theme_mono.c ****     }
 350:Drivers/lvgl/src/extra/themes/mono/lv_theme_mono.c **** #endif
 351:Drivers/lvgl/src/extra/themes/mono/lv_theme_mono.c **** 
 352:Drivers/lvgl/src/extra/themes/mono/lv_theme_mono.c **** #if LV_USE_CHART
 353:Drivers/lvgl/src/extra/themes/mono/lv_theme_mono.c ****     else if(lv_obj_check_type(obj, &lv_chart_class)) {
 354:Drivers/lvgl/src/extra/themes/mono/lv_theme_mono.c ****         lv_obj_add_style(obj, &styles->card, 0);
 355:Drivers/lvgl/src/extra/themes/mono/lv_theme_mono.c ****         lv_obj_add_style(obj, &styles->scrollbar, LV_PART_SCROLLBAR);
 356:Drivers/lvgl/src/extra/themes/mono/lv_theme_mono.c ****         lv_obj_add_style(obj, &styles->card, LV_PART_ITEMS);
 357:Drivers/lvgl/src/extra/themes/mono/lv_theme_mono.c ****         lv_obj_add_style(obj, &styles->card, LV_PART_TICKS);
 358:Drivers/lvgl/src/extra/themes/mono/lv_theme_mono.c ****         lv_obj_add_style(obj, &styles->card, LV_PART_CURSOR);
 359:Drivers/lvgl/src/extra/themes/mono/lv_theme_mono.c ****         lv_obj_add_style(obj, &styles->focus, LV_STATE_FOCUS_KEY);
 360:Drivers/lvgl/src/extra/themes/mono/lv_theme_mono.c ****     }
 361:Drivers/lvgl/src/extra/themes/mono/lv_theme_mono.c **** #endif
 362:Drivers/lvgl/src/extra/themes/mono/lv_theme_mono.c **** 
 363:Drivers/lvgl/src/extra/themes/mono/lv_theme_mono.c **** #if LV_USE_ROLLER
 364:Drivers/lvgl/src/extra/themes/mono/lv_theme_mono.c ****     else if(lv_obj_check_type(obj, &lv_roller_class)) {
 365:Drivers/lvgl/src/extra/themes/mono/lv_theme_mono.c ****         lv_obj_add_style(obj, &styles->card, 0);
 366:Drivers/lvgl/src/extra/themes/mono/lv_theme_mono.c ****         lv_obj_add_style(obj, &styles->large_line_space, 0);
 367:Drivers/lvgl/src/extra/themes/mono/lv_theme_mono.c ****         lv_obj_add_style(obj, &styles->inv, LV_PART_SELECTED);
 368:Drivers/lvgl/src/extra/themes/mono/lv_theme_mono.c ****         lv_obj_add_style(obj, &styles->focus, LV_STATE_FOCUS_KEY);
 369:Drivers/lvgl/src/extra/themes/mono/lv_theme_mono.c ****         lv_obj_add_style(obj, &styles->edit, LV_STATE_EDITED);
 370:Drivers/lvgl/src/extra/themes/mono/lv_theme_mono.c ****     }
 371:Drivers/lvgl/src/extra/themes/mono/lv_theme_mono.c **** #endif
 372:Drivers/lvgl/src/extra/themes/mono/lv_theme_mono.c **** 
 373:Drivers/lvgl/src/extra/themes/mono/lv_theme_mono.c **** #if LV_USE_DROPDOWN
 374:Drivers/lvgl/src/extra/themes/mono/lv_theme_mono.c ****     else if(lv_obj_check_type(obj, &lv_dropdown_class)) {
 375:Drivers/lvgl/src/extra/themes/mono/lv_theme_mono.c ****         lv_obj_add_style(obj, &styles->card, 0);
 376:Drivers/lvgl/src/extra/themes/mono/lv_theme_mono.c ****         lv_obj_add_style(obj, &styles->pr, LV_STATE_PRESSED);
 377:Drivers/lvgl/src/extra/themes/mono/lv_theme_mono.c ****         lv_obj_add_style(obj, &styles->focus, LV_STATE_FOCUS_KEY);
 378:Drivers/lvgl/src/extra/themes/mono/lv_theme_mono.c ****         lv_obj_add_style(obj, &styles->edit, LV_STATE_EDITED);
 379:Drivers/lvgl/src/extra/themes/mono/lv_theme_mono.c ****     }
ARM GAS  /var/folders/0z/tsy30v1j4xl4_7kw94k978ww0000gn/T//ccjTTGyJ.s 			page 9


 380:Drivers/lvgl/src/extra/themes/mono/lv_theme_mono.c ****     else if(lv_obj_check_type(obj, &lv_dropdownlist_class)) {
 381:Drivers/lvgl/src/extra/themes/mono/lv_theme_mono.c ****         lv_obj_add_style(obj, &styles->card, 0);
 382:Drivers/lvgl/src/extra/themes/mono/lv_theme_mono.c ****         lv_obj_add_style(obj, &styles->large_line_space, 0);
 383:Drivers/lvgl/src/extra/themes/mono/lv_theme_mono.c ****         lv_obj_add_style(obj, &styles->scrollbar, LV_PART_SCROLLBAR);
 384:Drivers/lvgl/src/extra/themes/mono/lv_theme_mono.c ****         lv_obj_add_style(obj, &styles->inv, LV_PART_SELECTED | LV_STATE_CHECKED);
 385:Drivers/lvgl/src/extra/themes/mono/lv_theme_mono.c ****         lv_obj_add_style(obj, &styles->pr, LV_PART_SELECTED | LV_STATE_PRESSED);
 386:Drivers/lvgl/src/extra/themes/mono/lv_theme_mono.c ****         lv_obj_add_style(obj, &styles->focus, LV_STATE_FOCUS_KEY);
 387:Drivers/lvgl/src/extra/themes/mono/lv_theme_mono.c ****         lv_obj_add_style(obj, &styles->edit, LV_STATE_EDITED);
 388:Drivers/lvgl/src/extra/themes/mono/lv_theme_mono.c ****     }
 389:Drivers/lvgl/src/extra/themes/mono/lv_theme_mono.c **** #endif
 390:Drivers/lvgl/src/extra/themes/mono/lv_theme_mono.c **** 
 391:Drivers/lvgl/src/extra/themes/mono/lv_theme_mono.c **** #if LV_USE_ARC
 392:Drivers/lvgl/src/extra/themes/mono/lv_theme_mono.c ****     else if(lv_obj_check_type(obj, &lv_arc_class)) {
 393:Drivers/lvgl/src/extra/themes/mono/lv_theme_mono.c ****         lv_obj_add_style(obj, &styles->card, 0);
 394:Drivers/lvgl/src/extra/themes/mono/lv_theme_mono.c ****         lv_obj_add_style(obj, &styles->inv, LV_PART_INDICATOR);
 395:Drivers/lvgl/src/extra/themes/mono/lv_theme_mono.c ****         lv_obj_add_style(obj, &styles->pad_zero, LV_PART_INDICATOR);
 396:Drivers/lvgl/src/extra/themes/mono/lv_theme_mono.c ****         lv_obj_add_style(obj, &styles->card, LV_PART_KNOB);
 397:Drivers/lvgl/src/extra/themes/mono/lv_theme_mono.c ****         lv_obj_add_style(obj, &styles->radius_circle, LV_PART_KNOB);
 398:Drivers/lvgl/src/extra/themes/mono/lv_theme_mono.c ****         lv_obj_add_style(obj, &styles->focus, LV_STATE_FOCUS_KEY);
 399:Drivers/lvgl/src/extra/themes/mono/lv_theme_mono.c ****         lv_obj_add_style(obj, &styles->edit, LV_STATE_EDITED);
 400:Drivers/lvgl/src/extra/themes/mono/lv_theme_mono.c ****     }
 401:Drivers/lvgl/src/extra/themes/mono/lv_theme_mono.c **** #endif
 402:Drivers/lvgl/src/extra/themes/mono/lv_theme_mono.c **** 
 403:Drivers/lvgl/src/extra/themes/mono/lv_theme_mono.c **** #if LV_USE_METER
 404:Drivers/lvgl/src/extra/themes/mono/lv_theme_mono.c ****     else if(lv_obj_check_type(obj, &lv_meter_class)) {
 405:Drivers/lvgl/src/extra/themes/mono/lv_theme_mono.c ****         lv_obj_add_style(obj, &styles->card, 0);
 406:Drivers/lvgl/src/extra/themes/mono/lv_theme_mono.c ****     }
 407:Drivers/lvgl/src/extra/themes/mono/lv_theme_mono.c **** #endif
 408:Drivers/lvgl/src/extra/themes/mono/lv_theme_mono.c **** 
 409:Drivers/lvgl/src/extra/themes/mono/lv_theme_mono.c **** #if LV_USE_TEXTAREA
 410:Drivers/lvgl/src/extra/themes/mono/lv_theme_mono.c ****     else if(lv_obj_check_type(obj, &lv_textarea_class)) {
 411:Drivers/lvgl/src/extra/themes/mono/lv_theme_mono.c ****         lv_obj_add_style(obj, &styles->card, 0);
 412:Drivers/lvgl/src/extra/themes/mono/lv_theme_mono.c ****         lv_obj_add_style(obj, &styles->scrollbar, LV_PART_SCROLLBAR);
 413:Drivers/lvgl/src/extra/themes/mono/lv_theme_mono.c ****         lv_obj_add_style(obj, &styles->ta_cursor, LV_PART_CURSOR | LV_STATE_FOCUSED);
 414:Drivers/lvgl/src/extra/themes/mono/lv_theme_mono.c ****         lv_obj_add_style(obj, &styles->focus, LV_STATE_FOCUSED);
 415:Drivers/lvgl/src/extra/themes/mono/lv_theme_mono.c ****         lv_obj_add_style(obj, &styles->edit, LV_STATE_EDITED);
 416:Drivers/lvgl/src/extra/themes/mono/lv_theme_mono.c ****     }
 417:Drivers/lvgl/src/extra/themes/mono/lv_theme_mono.c **** #endif
 418:Drivers/lvgl/src/extra/themes/mono/lv_theme_mono.c **** 
 419:Drivers/lvgl/src/extra/themes/mono/lv_theme_mono.c **** #if LV_USE_CALENDAR
 420:Drivers/lvgl/src/extra/themes/mono/lv_theme_mono.c ****     else if(lv_obj_check_type(obj, &lv_calendar_class)) {
 421:Drivers/lvgl/src/extra/themes/mono/lv_theme_mono.c ****         lv_obj_add_style(obj, &styles->card, 0);
 422:Drivers/lvgl/src/extra/themes/mono/lv_theme_mono.c ****         lv_obj_add_style(obj, &styles->no_radius, 0);
 423:Drivers/lvgl/src/extra/themes/mono/lv_theme_mono.c ****         lv_obj_add_style(obj, &styles->pr, LV_PART_ITEMS | LV_STATE_PRESSED);
 424:Drivers/lvgl/src/extra/themes/mono/lv_theme_mono.c ****         lv_obj_add_style(obj, &styles->disabled, LV_PART_ITEMS | LV_STATE_DISABLED);
 425:Drivers/lvgl/src/extra/themes/mono/lv_theme_mono.c ****         lv_obj_add_style(obj, &styles->focus, LV_STATE_FOCUS_KEY);
 426:Drivers/lvgl/src/extra/themes/mono/lv_theme_mono.c ****         lv_obj_add_style(obj, &styles->edit, LV_STATE_EDITED);
 427:Drivers/lvgl/src/extra/themes/mono/lv_theme_mono.c ****         lv_obj_add_style(obj, &styles->large_border, LV_PART_ITEMS | LV_STATE_FOCUS_KEY);
 428:Drivers/lvgl/src/extra/themes/mono/lv_theme_mono.c ****     }
 429:Drivers/lvgl/src/extra/themes/mono/lv_theme_mono.c **** #endif
 430:Drivers/lvgl/src/extra/themes/mono/lv_theme_mono.c **** 
 431:Drivers/lvgl/src/extra/themes/mono/lv_theme_mono.c **** #if LV_USE_KEYBOARD
 432:Drivers/lvgl/src/extra/themes/mono/lv_theme_mono.c ****     else if(lv_obj_check_type(obj, &lv_keyboard_class)) {
 433:Drivers/lvgl/src/extra/themes/mono/lv_theme_mono.c ****         lv_obj_add_style(obj, &styles->card, 0);
 434:Drivers/lvgl/src/extra/themes/mono/lv_theme_mono.c ****         lv_obj_add_style(obj, &styles->card, LV_PART_ITEMS);
 435:Drivers/lvgl/src/extra/themes/mono/lv_theme_mono.c ****         lv_obj_add_style(obj, &styles->pr, LV_PART_ITEMS | LV_STATE_PRESSED);
 436:Drivers/lvgl/src/extra/themes/mono/lv_theme_mono.c ****         lv_obj_add_style(obj, &styles->inv, LV_PART_ITEMS | LV_STATE_CHECKED);
ARM GAS  /var/folders/0z/tsy30v1j4xl4_7kw94k978ww0000gn/T//ccjTTGyJ.s 			page 10


 437:Drivers/lvgl/src/extra/themes/mono/lv_theme_mono.c ****         lv_obj_add_style(obj, &styles->focus, LV_STATE_FOCUS_KEY);
 438:Drivers/lvgl/src/extra/themes/mono/lv_theme_mono.c ****         lv_obj_add_style(obj, &styles->edit, LV_STATE_EDITED);
 439:Drivers/lvgl/src/extra/themes/mono/lv_theme_mono.c ****         lv_obj_add_style(obj, &styles->large_border, LV_PART_ITEMS | LV_STATE_EDITED);
 440:Drivers/lvgl/src/extra/themes/mono/lv_theme_mono.c ****     }
 441:Drivers/lvgl/src/extra/themes/mono/lv_theme_mono.c **** #endif
 442:Drivers/lvgl/src/extra/themes/mono/lv_theme_mono.c **** #if LV_USE_LIST
 443:Drivers/lvgl/src/extra/themes/mono/lv_theme_mono.c ****     else if(lv_obj_check_type(obj, &lv_list_class)) {
 444:Drivers/lvgl/src/extra/themes/mono/lv_theme_mono.c ****         lv_obj_add_style(obj, &styles->card, 0);
 445:Drivers/lvgl/src/extra/themes/mono/lv_theme_mono.c ****         lv_obj_add_style(obj, &styles->scrollbar, LV_PART_SCROLLBAR);
 446:Drivers/lvgl/src/extra/themes/mono/lv_theme_mono.c ****         return;
 447:Drivers/lvgl/src/extra/themes/mono/lv_theme_mono.c ****     }
 448:Drivers/lvgl/src/extra/themes/mono/lv_theme_mono.c ****     else if(lv_obj_check_type(obj, &lv_list_text_class)) {
 449:Drivers/lvgl/src/extra/themes/mono/lv_theme_mono.c **** 
 450:Drivers/lvgl/src/extra/themes/mono/lv_theme_mono.c ****     }
 451:Drivers/lvgl/src/extra/themes/mono/lv_theme_mono.c ****     else if(lv_obj_check_type(obj, &lv_list_btn_class)) {
 452:Drivers/lvgl/src/extra/themes/mono/lv_theme_mono.c ****         lv_obj_add_style(obj, &styles->card, 0);
 453:Drivers/lvgl/src/extra/themes/mono/lv_theme_mono.c ****         lv_obj_add_style(obj, &styles->pr, LV_STATE_PRESSED);
 454:Drivers/lvgl/src/extra/themes/mono/lv_theme_mono.c ****         lv_obj_add_style(obj, &styles->focus, LV_STATE_FOCUS_KEY);
 455:Drivers/lvgl/src/extra/themes/mono/lv_theme_mono.c ****         lv_obj_add_style(obj, &styles->large_border, LV_STATE_EDITED);
 456:Drivers/lvgl/src/extra/themes/mono/lv_theme_mono.c **** 
 457:Drivers/lvgl/src/extra/themes/mono/lv_theme_mono.c ****     }
 458:Drivers/lvgl/src/extra/themes/mono/lv_theme_mono.c **** #endif
 459:Drivers/lvgl/src/extra/themes/mono/lv_theme_mono.c **** #if LV_USE_MSGBOX
 460:Drivers/lvgl/src/extra/themes/mono/lv_theme_mono.c ****     else if(lv_obj_check_type(obj, &lv_msgbox_class)) {
 461:Drivers/lvgl/src/extra/themes/mono/lv_theme_mono.c ****         lv_obj_add_style(obj, &styles->card, 0);
 462:Drivers/lvgl/src/extra/themes/mono/lv_theme_mono.c ****         return;
 463:Drivers/lvgl/src/extra/themes/mono/lv_theme_mono.c ****     }
 464:Drivers/lvgl/src/extra/themes/mono/lv_theme_mono.c **** #endif
 465:Drivers/lvgl/src/extra/themes/mono/lv_theme_mono.c **** #if LV_USE_SPINBOX
 466:Drivers/lvgl/src/extra/themes/mono/lv_theme_mono.c ****     else if(lv_obj_check_type(obj, &lv_spinbox_class)) {
 467:Drivers/lvgl/src/extra/themes/mono/lv_theme_mono.c ****         lv_obj_add_style(obj, &styles->card, 0);
 468:Drivers/lvgl/src/extra/themes/mono/lv_theme_mono.c ****         lv_obj_add_style(obj, &styles->inv, LV_PART_CURSOR);
 469:Drivers/lvgl/src/extra/themes/mono/lv_theme_mono.c ****         lv_obj_add_style(obj, &styles->focus, LV_STATE_FOCUS_KEY);
 470:Drivers/lvgl/src/extra/themes/mono/lv_theme_mono.c ****         lv_obj_add_style(obj, &styles->edit, LV_STATE_EDITED);
 471:Drivers/lvgl/src/extra/themes/mono/lv_theme_mono.c ****     }
 472:Drivers/lvgl/src/extra/themes/mono/lv_theme_mono.c **** #endif
 473:Drivers/lvgl/src/extra/themes/mono/lv_theme_mono.c **** #if LV_USE_TILEVIEW
 474:Drivers/lvgl/src/extra/themes/mono/lv_theme_mono.c ****     else if(lv_obj_check_type(obj, &lv_tileview_class)) {
 475:Drivers/lvgl/src/extra/themes/mono/lv_theme_mono.c ****         lv_obj_add_style(obj, &styles->scr, 0);
 476:Drivers/lvgl/src/extra/themes/mono/lv_theme_mono.c ****         lv_obj_add_style(obj, &styles->scrollbar, LV_PART_SCROLLBAR);
 477:Drivers/lvgl/src/extra/themes/mono/lv_theme_mono.c ****     }
 478:Drivers/lvgl/src/extra/themes/mono/lv_theme_mono.c ****     else if(lv_obj_check_type(obj, &lv_tileview_tile_class)) {
 479:Drivers/lvgl/src/extra/themes/mono/lv_theme_mono.c ****         lv_obj_add_style(obj, &styles->scrollbar, LV_PART_SCROLLBAR);
 480:Drivers/lvgl/src/extra/themes/mono/lv_theme_mono.c ****     }
 481:Drivers/lvgl/src/extra/themes/mono/lv_theme_mono.c **** #endif
 482:Drivers/lvgl/src/extra/themes/mono/lv_theme_mono.c **** 
 483:Drivers/lvgl/src/extra/themes/mono/lv_theme_mono.c **** #if LV_USE_LED
 484:Drivers/lvgl/src/extra/themes/mono/lv_theme_mono.c ****     else if(lv_obj_check_type(obj, &lv_led_class)) {
 485:Drivers/lvgl/src/extra/themes/mono/lv_theme_mono.c ****         lv_obj_add_style(obj, &styles->card, 0);
 486:Drivers/lvgl/src/extra/themes/mono/lv_theme_mono.c ****     }
 487:Drivers/lvgl/src/extra/themes/mono/lv_theme_mono.c **** #endif
 488:Drivers/lvgl/src/extra/themes/mono/lv_theme_mono.c **** }
  79              		.loc 1 488 1 view .LVU16
  80 0028 70BD     		pop	{r4, r5, r6, pc}
  81              	.LVL8:
  82              	.L33:
 205:Drivers/lvgl/src/extra/themes/mono/lv_theme_mono.c ****         lv_obj_add_style(obj, &styles->scrollbar, LV_PART_SCROLLBAR);
ARM GAS  /var/folders/0z/tsy30v1j4xl4_7kw94k978ww0000gn/T//ccjTTGyJ.s 			page 11


  83              		.loc 1 205 9 is_stmt 1 view .LVU17
 205:Drivers/lvgl/src/extra/themes/mono/lv_theme_mono.c ****         lv_obj_add_style(obj, &styles->scrollbar, LV_PART_SCROLLBAR);
  84              		.loc 1 205 38 is_stmt 0 view .LVU18
  85 002a B54D     		ldr	r5, .L42+8
 205:Drivers/lvgl/src/extra/themes/mono/lv_theme_mono.c ****         lv_obj_add_style(obj, &styles->scrollbar, LV_PART_SCROLLBAR);
  86              		.loc 1 205 9 view .LVU19
  87 002c 0022     		movs	r2, #0
  88 002e 2968     		ldr	r1, [r5]
  89 0030 2046     		mov	r0, r4
  90 0032 FFF7FEFF 		bl	lv_obj_add_style
  91              	.LVL9:
 206:Drivers/lvgl/src/extra/themes/mono/lv_theme_mono.c ****         return;
  92              		.loc 1 206 9 is_stmt 1 view .LVU20
 206:Drivers/lvgl/src/extra/themes/mono/lv_theme_mono.c ****         return;
  93              		.loc 1 206 38 is_stmt 0 view .LVU21
  94 0036 2968     		ldr	r1, [r5]
 206:Drivers/lvgl/src/extra/themes/mono/lv_theme_mono.c ****         return;
  95              		.loc 1 206 9 view .LVU22
  96 0038 4FF48032 		mov	r2, #65536
  97 003c 1031     		adds	r1, r1, #16
  98 003e 2046     		mov	r0, r4
  99 0040 FFF7FEFF 		bl	lv_obj_add_style
 100              	.LVL10:
 207:Drivers/lvgl/src/extra/themes/mono/lv_theme_mono.c ****     }
 101              		.loc 1 207 9 is_stmt 1 view .LVU23
 102 0044 F0E7     		b	.L1
 103              	.LVL11:
 104              	.L34:
 105              	.LBB135:
 218:Drivers/lvgl/src/extra/themes/mono/lv_theme_mono.c ****             lv_obj_add_style(obj, &styles->card, 0);
 106              		.loc 1 218 14 view .LVU24
 218:Drivers/lvgl/src/extra/themes/mono/lv_theme_mono.c ****             lv_obj_add_style(obj, &styles->card, 0);
 107              		.loc 1 218 35 is_stmt 0 view .LVU25
 108 0046 2846     		mov	r0, r5
 109 0048 FFF7FEFF 		bl	lv_obj_get_parent
 110              	.LVL12:
 218:Drivers/lvgl/src/extra/themes/mono/lv_theme_mono.c ****             lv_obj_add_style(obj, &styles->card, 0);
 111              		.loc 1 218 17 view .LVU26
 112 004c AB49     		ldr	r1, .L42+4
 113 004e FFF7FEFF 		bl	lv_obj_check_type
 114              	.LVL13:
 218:Drivers/lvgl/src/extra/themes/mono/lv_theme_mono.c ****             lv_obj_add_style(obj, &styles->card, 0);
 115              		.loc 1 218 16 view .LVU27
 116 0052 F0B9     		cbnz	r0, .L35
 228:Drivers/lvgl/src/extra/themes/mono/lv_theme_mono.c ****             lv_obj_add_style(obj, &styles->card, 0);
 117              		.loc 1 228 9 is_stmt 1 view .LVU28
 228:Drivers/lvgl/src/extra/themes/mono/lv_theme_mono.c ****             lv_obj_add_style(obj, &styles->card, 0);
 118              		.loc 1 228 12 is_stmt 0 view .LVU29
 119 0054 2046     		mov	r0, r4
 120 0056 FFF7FEFF 		bl	lv_obj_get_index
 121              	.LVL14:
 228:Drivers/lvgl/src/extra/themes/mono/lv_theme_mono.c ****             lv_obj_add_style(obj, &styles->card, 0);
 122              		.loc 1 228 11 view .LVU30
 123 005a 30B9     		cbnz	r0, .L6
 228:Drivers/lvgl/src/extra/themes/mono/lv_theme_mono.c ****             lv_obj_add_style(obj, &styles->card, 0);
 124              		.loc 1 228 60 discriminator 1 view .LVU31
 125 005c 2046     		mov	r0, r4
ARM GAS  /var/folders/0z/tsy30v1j4xl4_7kw94k978ww0000gn/T//ccjTTGyJ.s 			page 12


 126 005e FFF7FEFF 		bl	lv_obj_get_parent
 127              	.LVL15:
 228:Drivers/lvgl/src/extra/themes/mono/lv_theme_mono.c ****             lv_obj_add_style(obj, &styles->card, 0);
 128              		.loc 1 228 42 discriminator 1 view .LVU32
 129 0062 A849     		ldr	r1, .L42+12
 130 0064 FFF7FEFF 		bl	lv_obj_check_type
 131              	.LVL16:
 228:Drivers/lvgl/src/extra/themes/mono/lv_theme_mono.c ****             lv_obj_add_style(obj, &styles->card, 0);
 132              		.loc 1 228 39 discriminator 1 view .LVU33
 133 0068 40BB     		cbnz	r0, .L36
 134              	.L6:
 234:Drivers/lvgl/src/extra/themes/mono/lv_theme_mono.c ****             lv_obj_add_style(obj, &styles->card, 0);
 135              		.loc 1 234 14 is_stmt 1 view .LVU34
 234:Drivers/lvgl/src/extra/themes/mono/lv_theme_mono.c ****             lv_obj_add_style(obj, &styles->card, 0);
 136              		.loc 1 234 17 is_stmt 0 view .LVU35
 137 006a 2046     		mov	r0, r4
 138 006c FFF7FEFF 		bl	lv_obj_get_index
 139              	.LVL17:
 234:Drivers/lvgl/src/extra/themes/mono/lv_theme_mono.c ****             lv_obj_add_style(obj, &styles->card, 0);
 140              		.loc 1 234 16 view .LVU36
 141 0070 0128     		cmp	r0, #1
 142 0072 31D0     		beq	.L37
 143              	.L7:
 241:Drivers/lvgl/src/extra/themes/mono/lv_theme_mono.c ****         lv_obj_add_style(obj, &styles->scrollbar, LV_PART_SCROLLBAR);
 144              		.loc 1 241 9 is_stmt 1 view .LVU37
 241:Drivers/lvgl/src/extra/themes/mono/lv_theme_mono.c ****         lv_obj_add_style(obj, &styles->scrollbar, LV_PART_SCROLLBAR);
 145              		.loc 1 241 38 is_stmt 0 view .LVU38
 146 0074 A24D     		ldr	r5, .L42+8
 147              	.LVL18:
 241:Drivers/lvgl/src/extra/themes/mono/lv_theme_mono.c ****         lv_obj_add_style(obj, &styles->scrollbar, LV_PART_SCROLLBAR);
 148              		.loc 1 241 38 view .LVU39
 149 0076 2968     		ldr	r1, [r5]
 241:Drivers/lvgl/src/extra/themes/mono/lv_theme_mono.c ****         lv_obj_add_style(obj, &styles->scrollbar, LV_PART_SCROLLBAR);
 150              		.loc 1 241 9 view .LVU40
 151 0078 0022     		movs	r2, #0
 152 007a 0831     		adds	r1, r1, #8
 153 007c 2046     		mov	r0, r4
 154 007e FFF7FEFF 		bl	lv_obj_add_style
 155              	.LVL19:
 242:Drivers/lvgl/src/extra/themes/mono/lv_theme_mono.c ****     }
 156              		.loc 1 242 9 is_stmt 1 view .LVU41
 242:Drivers/lvgl/src/extra/themes/mono/lv_theme_mono.c ****     }
 157              		.loc 1 242 38 is_stmt 0 view .LVU42
 158 0082 2968     		ldr	r1, [r5]
 242:Drivers/lvgl/src/extra/themes/mono/lv_theme_mono.c ****     }
 159              		.loc 1 242 9 view .LVU43
 160 0084 4FF48032 		mov	r2, #65536
 161 0088 1031     		adds	r1, r1, #16
 162 008a 2046     		mov	r0, r4
 163 008c FFF7FEFF 		bl	lv_obj_add_style
 164              	.LVL20:
 165              	.LBE135:
 166 0090 CAE7     		b	.L1
 167              	.LVL21:
 168              	.L35:
 169              	.LBB136:
 219:Drivers/lvgl/src/extra/themes/mono/lv_theme_mono.c ****             lv_obj_add_style(obj, &styles->no_radius, 0);
ARM GAS  /var/folders/0z/tsy30v1j4xl4_7kw94k978ww0000gn/T//ccjTTGyJ.s 			page 13


 170              		.loc 1 219 13 is_stmt 1 view .LVU44
 219:Drivers/lvgl/src/extra/themes/mono/lv_theme_mono.c ****             lv_obj_add_style(obj, &styles->no_radius, 0);
 171              		.loc 1 219 42 is_stmt 0 view .LVU45
 172 0092 9B4D     		ldr	r5, .L42+8
 173              	.LVL22:
 219:Drivers/lvgl/src/extra/themes/mono/lv_theme_mono.c ****             lv_obj_add_style(obj, &styles->no_radius, 0);
 174              		.loc 1 219 42 view .LVU46
 175 0094 2968     		ldr	r1, [r5]
 219:Drivers/lvgl/src/extra/themes/mono/lv_theme_mono.c ****             lv_obj_add_style(obj, &styles->no_radius, 0);
 176              		.loc 1 219 13 view .LVU47
 177 0096 0022     		movs	r2, #0
 178 0098 0831     		adds	r1, r1, #8
 179 009a 2046     		mov	r0, r4
 180 009c FFF7FEFF 		bl	lv_obj_add_style
 181              	.LVL23:
 220:Drivers/lvgl/src/extra/themes/mono/lv_theme_mono.c ****             lv_obj_add_style(obj, &styles->scrollbar, LV_PART_SCROLLBAR);
 182              		.loc 1 220 13 is_stmt 1 view .LVU48
 220:Drivers/lvgl/src/extra/themes/mono/lv_theme_mono.c ****             lv_obj_add_style(obj, &styles->scrollbar, LV_PART_SCROLLBAR);
 183              		.loc 1 220 42 is_stmt 0 view .LVU49
 184 00a0 2968     		ldr	r1, [r5]
 220:Drivers/lvgl/src/extra/themes/mono/lv_theme_mono.c ****             lv_obj_add_style(obj, &styles->scrollbar, LV_PART_SCROLLBAR);
 185              		.loc 1 220 13 view .LVU50
 186 00a2 0022     		movs	r2, #0
 187 00a4 5831     		adds	r1, r1, #88
 188 00a6 2046     		mov	r0, r4
 189 00a8 FFF7FEFF 		bl	lv_obj_add_style
 190              	.LVL24:
 221:Drivers/lvgl/src/extra/themes/mono/lv_theme_mono.c ****             return;
 191              		.loc 1 221 13 is_stmt 1 view .LVU51
 221:Drivers/lvgl/src/extra/themes/mono/lv_theme_mono.c ****             return;
 192              		.loc 1 221 42 is_stmt 0 view .LVU52
 193 00ac 2968     		ldr	r1, [r5]
 221:Drivers/lvgl/src/extra/themes/mono/lv_theme_mono.c ****             return;
 194              		.loc 1 221 13 view .LVU53
 195 00ae 4FF48032 		mov	r2, #65536
 196 00b2 1031     		adds	r1, r1, #16
 197 00b4 2046     		mov	r0, r4
 198 00b6 FFF7FEFF 		bl	lv_obj_add_style
 199              	.LVL25:
 222:Drivers/lvgl/src/extra/themes/mono/lv_theme_mono.c ****         }
 200              		.loc 1 222 13 is_stmt 1 view .LVU54
 201 00ba B5E7     		b	.L1
 202              	.LVL26:
 203              	.L36:
 229:Drivers/lvgl/src/extra/themes/mono/lv_theme_mono.c ****             lv_obj_add_style(obj, &styles->no_radius, 0);
 204              		.loc 1 229 13 view .LVU55
 229:Drivers/lvgl/src/extra/themes/mono/lv_theme_mono.c ****             lv_obj_add_style(obj, &styles->no_radius, 0);
 205              		.loc 1 229 42 is_stmt 0 view .LVU56
 206 00bc 904D     		ldr	r5, .L42+8
 207              	.LVL27:
 229:Drivers/lvgl/src/extra/themes/mono/lv_theme_mono.c ****             lv_obj_add_style(obj, &styles->no_radius, 0);
 208              		.loc 1 229 42 view .LVU57
 209 00be 2968     		ldr	r1, [r5]
 229:Drivers/lvgl/src/extra/themes/mono/lv_theme_mono.c ****             lv_obj_add_style(obj, &styles->no_radius, 0);
 210              		.loc 1 229 13 view .LVU58
 211 00c0 0022     		movs	r2, #0
 212 00c2 0831     		adds	r1, r1, #8
ARM GAS  /var/folders/0z/tsy30v1j4xl4_7kw94k978ww0000gn/T//ccjTTGyJ.s 			page 14


 213 00c4 2046     		mov	r0, r4
 214 00c6 FFF7FEFF 		bl	lv_obj_add_style
 215              	.LVL28:
 230:Drivers/lvgl/src/extra/themes/mono/lv_theme_mono.c ****             return;
 216              		.loc 1 230 13 is_stmt 1 view .LVU59
 230:Drivers/lvgl/src/extra/themes/mono/lv_theme_mono.c ****             return;
 217              		.loc 1 230 42 is_stmt 0 view .LVU60
 218 00ca 2968     		ldr	r1, [r5]
 230:Drivers/lvgl/src/extra/themes/mono/lv_theme_mono.c ****             return;
 219              		.loc 1 230 13 view .LVU61
 220 00cc 0022     		movs	r2, #0
 221 00ce 5831     		adds	r1, r1, #88
 222 00d0 2046     		mov	r0, r4
 223 00d2 FFF7FEFF 		bl	lv_obj_add_style
 224              	.LVL29:
 231:Drivers/lvgl/src/extra/themes/mono/lv_theme_mono.c ****         }
 225              		.loc 1 231 13 is_stmt 1 view .LVU62
 226 00d6 A7E7     		b	.L1
 227              	.LVL30:
 228              	.L37:
 234:Drivers/lvgl/src/extra/themes/mono/lv_theme_mono.c ****             lv_obj_add_style(obj, &styles->card, 0);
 229              		.loc 1 234 65 is_stmt 0 discriminator 1 view .LVU63
 230 00d8 2046     		mov	r0, r4
 231 00da FFF7FEFF 		bl	lv_obj_get_parent
 232              	.LVL31:
 234:Drivers/lvgl/src/extra/themes/mono/lv_theme_mono.c ****             lv_obj_add_style(obj, &styles->card, 0);
 233              		.loc 1 234 47 discriminator 1 view .LVU64
 234 00de 8949     		ldr	r1, .L42+12
 235 00e0 FFF7FEFF 		bl	lv_obj_check_type
 236              	.LVL32:
 234:Drivers/lvgl/src/extra/themes/mono/lv_theme_mono.c ****             lv_obj_add_style(obj, &styles->card, 0);
 237              		.loc 1 234 44 discriminator 1 view .LVU65
 238 00e4 0028     		cmp	r0, #0
 239 00e6 C5D0     		beq	.L7
 235:Drivers/lvgl/src/extra/themes/mono/lv_theme_mono.c ****             lv_obj_add_style(obj, &styles->no_radius, 0);
 240              		.loc 1 235 13 is_stmt 1 view .LVU66
 235:Drivers/lvgl/src/extra/themes/mono/lv_theme_mono.c ****             lv_obj_add_style(obj, &styles->no_radius, 0);
 241              		.loc 1 235 42 is_stmt 0 view .LVU67
 242 00e8 854D     		ldr	r5, .L42+8
 243              	.LVL33:
 235:Drivers/lvgl/src/extra/themes/mono/lv_theme_mono.c ****             lv_obj_add_style(obj, &styles->no_radius, 0);
 244              		.loc 1 235 42 view .LVU68
 245 00ea 2968     		ldr	r1, [r5]
 235:Drivers/lvgl/src/extra/themes/mono/lv_theme_mono.c ****             lv_obj_add_style(obj, &styles->no_radius, 0);
 246              		.loc 1 235 13 view .LVU69
 247 00ec 0022     		movs	r2, #0
 248 00ee 0831     		adds	r1, r1, #8
 249 00f0 2046     		mov	r0, r4
 250 00f2 FFF7FEFF 		bl	lv_obj_add_style
 251              	.LVL34:
 236:Drivers/lvgl/src/extra/themes/mono/lv_theme_mono.c ****             lv_obj_add_style(obj, &styles->scrollbar, LV_PART_SCROLLBAR);
 252              		.loc 1 236 13 is_stmt 1 view .LVU70
 236:Drivers/lvgl/src/extra/themes/mono/lv_theme_mono.c ****             lv_obj_add_style(obj, &styles->scrollbar, LV_PART_SCROLLBAR);
 253              		.loc 1 236 42 is_stmt 0 view .LVU71
 254 00f6 2968     		ldr	r1, [r5]
 236:Drivers/lvgl/src/extra/themes/mono/lv_theme_mono.c ****             lv_obj_add_style(obj, &styles->scrollbar, LV_PART_SCROLLBAR);
 255              		.loc 1 236 13 view .LVU72
ARM GAS  /var/folders/0z/tsy30v1j4xl4_7kw94k978ww0000gn/T//ccjTTGyJ.s 			page 15


 256 00f8 0022     		movs	r2, #0
 257 00fa 5831     		adds	r1, r1, #88
 258 00fc 2046     		mov	r0, r4
 259 00fe FFF7FEFF 		bl	lv_obj_add_style
 260              	.LVL35:
 237:Drivers/lvgl/src/extra/themes/mono/lv_theme_mono.c ****             return;
 261              		.loc 1 237 13 is_stmt 1 view .LVU73
 237:Drivers/lvgl/src/extra/themes/mono/lv_theme_mono.c ****             return;
 262              		.loc 1 237 42 is_stmt 0 view .LVU74
 263 0102 2968     		ldr	r1, [r5]
 237:Drivers/lvgl/src/extra/themes/mono/lv_theme_mono.c ****             return;
 264              		.loc 1 237 13 view .LVU75
 265 0104 4FF48032 		mov	r2, #65536
 266 0108 1031     		adds	r1, r1, #16
 267 010a 2046     		mov	r0, r4
 268 010c FFF7FEFF 		bl	lv_obj_add_style
 269              	.LVL36:
 238:Drivers/lvgl/src/extra/themes/mono/lv_theme_mono.c ****         }
 270              		.loc 1 238 13 is_stmt 1 view .LVU76
 271 0110 8AE7     		b	.L1
 272              	.L4:
 238:Drivers/lvgl/src/extra/themes/mono/lv_theme_mono.c ****         }
 273              		.loc 1 238 13 is_stmt 0 view .LVU77
 274              	.LBE136:
 245:Drivers/lvgl/src/extra/themes/mono/lv_theme_mono.c ****         lv_obj_add_style(obj, &styles->card, 0);
 275              		.loc 1 245 10 is_stmt 1 view .LVU78
 245:Drivers/lvgl/src/extra/themes/mono/lv_theme_mono.c ****         lv_obj_add_style(obj, &styles->card, 0);
 276              		.loc 1 245 13 is_stmt 0 view .LVU79
 277 0112 7D49     		ldr	r1, .L42+16
 278 0114 2046     		mov	r0, r4
 279 0116 FFF7FEFF 		bl	lv_obj_check_type
 280              	.LVL37:
 245:Drivers/lvgl/src/extra/themes/mono/lv_theme_mono.c ****         lv_obj_add_style(obj, &styles->card, 0);
 281              		.loc 1 245 12 view .LVU80
 282 011a 28B3     		cbz	r0, .L8
 246:Drivers/lvgl/src/extra/themes/mono/lv_theme_mono.c ****         lv_obj_add_style(obj, &styles->pr, LV_STATE_PRESSED);
 283              		.loc 1 246 9 is_stmt 1 view .LVU81
 246:Drivers/lvgl/src/extra/themes/mono/lv_theme_mono.c ****         lv_obj_add_style(obj, &styles->pr, LV_STATE_PRESSED);
 284              		.loc 1 246 38 is_stmt 0 view .LVU82
 285 011c 784D     		ldr	r5, .L42+8
 286 011e 2968     		ldr	r1, [r5]
 246:Drivers/lvgl/src/extra/themes/mono/lv_theme_mono.c ****         lv_obj_add_style(obj, &styles->pr, LV_STATE_PRESSED);
 287              		.loc 1 246 9 view .LVU83
 288 0120 0022     		movs	r2, #0
 289 0122 0831     		adds	r1, r1, #8
 290 0124 2046     		mov	r0, r4
 291 0126 FFF7FEFF 		bl	lv_obj_add_style
 292              	.LVL38:
 247:Drivers/lvgl/src/extra/themes/mono/lv_theme_mono.c ****         lv_obj_add_style(obj, &styles->inv, LV_STATE_CHECKED);
 293              		.loc 1 247 9 is_stmt 1 view .LVU84
 247:Drivers/lvgl/src/extra/themes/mono/lv_theme_mono.c ****         lv_obj_add_style(obj, &styles->inv, LV_STATE_CHECKED);
 294              		.loc 1 247 38 is_stmt 0 view .LVU85
 295 012a 2968     		ldr	r1, [r5]
 247:Drivers/lvgl/src/extra/themes/mono/lv_theme_mono.c ****         lv_obj_add_style(obj, &styles->inv, LV_STATE_CHECKED);
 296              		.loc 1 247 9 view .LVU86
 297 012c 2022     		movs	r2, #32
 298 012e 1144     		add	r1, r1, r2
ARM GAS  /var/folders/0z/tsy30v1j4xl4_7kw94k978ww0000gn/T//ccjTTGyJ.s 			page 16


 299 0130 2046     		mov	r0, r4
 300 0132 FFF7FEFF 		bl	lv_obj_add_style
 301              	.LVL39:
 248:Drivers/lvgl/src/extra/themes/mono/lv_theme_mono.c ****         lv_obj_add_style(obj, &styles->disabled, LV_STATE_DISABLED);
 302              		.loc 1 248 9 is_stmt 1 view .LVU87
 248:Drivers/lvgl/src/extra/themes/mono/lv_theme_mono.c ****         lv_obj_add_style(obj, &styles->disabled, LV_STATE_DISABLED);
 303              		.loc 1 248 38 is_stmt 0 view .LVU88
 304 0136 2968     		ldr	r1, [r5]
 248:Drivers/lvgl/src/extra/themes/mono/lv_theme_mono.c ****         lv_obj_add_style(obj, &styles->disabled, LV_STATE_DISABLED);
 305              		.loc 1 248 9 view .LVU89
 306 0138 0122     		movs	r2, #1
 307 013a 2831     		adds	r1, r1, #40
 308 013c 2046     		mov	r0, r4
 309 013e FFF7FEFF 		bl	lv_obj_add_style
 310              	.LVL40:
 249:Drivers/lvgl/src/extra/themes/mono/lv_theme_mono.c ****         lv_obj_add_style(obj, &styles->focus, LV_STATE_FOCUS_KEY);
 311              		.loc 1 249 9 is_stmt 1 view .LVU90
 249:Drivers/lvgl/src/extra/themes/mono/lv_theme_mono.c ****         lv_obj_add_style(obj, &styles->focus, LV_STATE_FOCUS_KEY);
 312              		.loc 1 249 38 is_stmt 0 view .LVU91
 313 0142 2968     		ldr	r1, [r5]
 249:Drivers/lvgl/src/extra/themes/mono/lv_theme_mono.c ****         lv_obj_add_style(obj, &styles->focus, LV_STATE_FOCUS_KEY);
 314              		.loc 1 249 9 view .LVU92
 315 0144 8022     		movs	r2, #128
 316 0146 3031     		adds	r1, r1, #48
 317 0148 2046     		mov	r0, r4
 318 014a FFF7FEFF 		bl	lv_obj_add_style
 319              	.LVL41:
 250:Drivers/lvgl/src/extra/themes/mono/lv_theme_mono.c ****         lv_obj_add_style(obj, &styles->edit, LV_STATE_EDITED);
 320              		.loc 1 250 9 is_stmt 1 view .LVU93
 250:Drivers/lvgl/src/extra/themes/mono/lv_theme_mono.c ****         lv_obj_add_style(obj, &styles->edit, LV_STATE_EDITED);
 321              		.loc 1 250 38 is_stmt 0 view .LVU94
 322 014e 2968     		ldr	r1, [r5]
 250:Drivers/lvgl/src/extra/themes/mono/lv_theme_mono.c ****         lv_obj_add_style(obj, &styles->edit, LV_STATE_EDITED);
 323              		.loc 1 250 9 view .LVU95
 324 0150 0422     		movs	r2, #4
 325 0152 3831     		adds	r1, r1, #56
 326 0154 2046     		mov	r0, r4
 327 0156 FFF7FEFF 		bl	lv_obj_add_style
 328              	.LVL42:
 251:Drivers/lvgl/src/extra/themes/mono/lv_theme_mono.c ****     }
 329              		.loc 1 251 9 is_stmt 1 view .LVU96
 251:Drivers/lvgl/src/extra/themes/mono/lv_theme_mono.c ****     }
 330              		.loc 1 251 38 is_stmt 0 view .LVU97
 331 015a 2968     		ldr	r1, [r5]
 251:Drivers/lvgl/src/extra/themes/mono/lv_theme_mono.c ****     }
 332              		.loc 1 251 9 view .LVU98
 333 015c 0822     		movs	r2, #8
 334 015e 4031     		adds	r1, r1, #64
 335 0160 2046     		mov	r0, r4
 336 0162 FFF7FEFF 		bl	lv_obj_add_style
 337              	.LVL43:
 338 0166 5FE7     		b	.L1
 339              	.L8:
 256:Drivers/lvgl/src/extra/themes/mono/lv_theme_mono.c **** #if LV_USE_MSGBOX
 340              		.loc 1 256 10 is_stmt 1 view .LVU99
 256:Drivers/lvgl/src/extra/themes/mono/lv_theme_mono.c **** #if LV_USE_MSGBOX
 341              		.loc 1 256 13 is_stmt 0 view .LVU100
ARM GAS  /var/folders/0z/tsy30v1j4xl4_7kw94k978ww0000gn/T//ccjTTGyJ.s 			page 17


 342 0168 6849     		ldr	r1, .L42+20
 343 016a 2046     		mov	r0, r4
 344 016c FFF7FEFF 		bl	lv_obj_check_type
 345              	.LVL44:
 256:Drivers/lvgl/src/extra/themes/mono/lv_theme_mono.c **** #if LV_USE_MSGBOX
 346              		.loc 1 256 12 view .LVU101
 347 0170 0028     		cmp	r0, #0
 348 0172 00F0A080 		beq	.L9
 258:Drivers/lvgl/src/extra/themes/mono/lv_theme_mono.c ****             lv_obj_add_style(obj, &styles->pad_gap, 0);
 349              		.loc 1 258 9 is_stmt 1 view .LVU102
 258:Drivers/lvgl/src/extra/themes/mono/lv_theme_mono.c ****             lv_obj_add_style(obj, &styles->pad_gap, 0);
 350              		.loc 1 258 30 is_stmt 0 view .LVU103
 351 0176 2046     		mov	r0, r4
 352 0178 FFF7FEFF 		bl	lv_obj_get_parent
 353              	.LVL45:
 258:Drivers/lvgl/src/extra/themes/mono/lv_theme_mono.c ****             lv_obj_add_style(obj, &styles->pad_gap, 0);
 354              		.loc 1 258 12 view .LVU104
 355 017c 6449     		ldr	r1, .L42+24
 356 017e FFF7FEFF 		bl	lv_obj_check_type
 357              	.LVL46:
 258:Drivers/lvgl/src/extra/themes/mono/lv_theme_mono.c ****             lv_obj_add_style(obj, &styles->pad_gap, 0);
 358              		.loc 1 258 11 view .LVU105
 359 0182 0028     		cmp	r0, #0
 360 0184 3BD1     		bne	.L38
 269:Drivers/lvgl/src/extra/themes/mono/lv_theme_mono.c ****             lv_obj_add_style(obj, &styles->pad_gap, 0);
 361              		.loc 1 269 9 is_stmt 1 view .LVU106
 269:Drivers/lvgl/src/extra/themes/mono/lv_theme_mono.c ****             lv_obj_add_style(obj, &styles->pad_gap, 0);
 362              		.loc 1 269 30 is_stmt 0 view .LVU107
 363 0186 2046     		mov	r0, r4
 364 0188 FFF7FEFF 		bl	lv_obj_get_parent
 365              	.LVL47:
 269:Drivers/lvgl/src/extra/themes/mono/lv_theme_mono.c ****             lv_obj_add_style(obj, &styles->pad_gap, 0);
 366              		.loc 1 269 12 view .LVU108
 367 018c 5B49     		ldr	r1, .L42+4
 368 018e FFF7FEFF 		bl	lv_obj_check_type
 369              	.LVL48:
 269:Drivers/lvgl/src/extra/themes/mono/lv_theme_mono.c ****             lv_obj_add_style(obj, &styles->pad_gap, 0);
 370              		.loc 1 269 11 view .LVU109
 371 0192 0028     		cmp	r0, #0
 372 0194 5BD1     		bne	.L39
 281:Drivers/lvgl/src/extra/themes/mono/lv_theme_mono.c ****         lv_obj_add_style(obj, &styles->focus, LV_STATE_FOCUS_KEY);
 373              		.loc 1 281 9 is_stmt 1 view .LVU110
 281:Drivers/lvgl/src/extra/themes/mono/lv_theme_mono.c ****         lv_obj_add_style(obj, &styles->focus, LV_STATE_FOCUS_KEY);
 374              		.loc 1 281 38 is_stmt 0 view .LVU111
 375 0196 5A4D     		ldr	r5, .L42+8
 376 0198 2968     		ldr	r1, [r5]
 281:Drivers/lvgl/src/extra/themes/mono/lv_theme_mono.c ****         lv_obj_add_style(obj, &styles->focus, LV_STATE_FOCUS_KEY);
 377              		.loc 1 281 9 view .LVU112
 378 019a 0022     		movs	r2, #0
 379 019c 0831     		adds	r1, r1, #8
 380 019e 2046     		mov	r0, r4
 381 01a0 FFF7FEFF 		bl	lv_obj_add_style
 382              	.LVL49:
 282:Drivers/lvgl/src/extra/themes/mono/lv_theme_mono.c ****         lv_obj_add_style(obj, &styles->card, LV_PART_ITEMS);
 383              		.loc 1 282 9 is_stmt 1 view .LVU113
 282:Drivers/lvgl/src/extra/themes/mono/lv_theme_mono.c ****         lv_obj_add_style(obj, &styles->card, LV_PART_ITEMS);
 384              		.loc 1 282 38 is_stmt 0 view .LVU114
ARM GAS  /var/folders/0z/tsy30v1j4xl4_7kw94k978ww0000gn/T//ccjTTGyJ.s 			page 18


 385 01a4 2968     		ldr	r1, [r5]
 282:Drivers/lvgl/src/extra/themes/mono/lv_theme_mono.c ****         lv_obj_add_style(obj, &styles->card, LV_PART_ITEMS);
 386              		.loc 1 282 9 view .LVU115
 387 01a6 0422     		movs	r2, #4
 388 01a8 3831     		adds	r1, r1, #56
 389 01aa 2046     		mov	r0, r4
 390 01ac FFF7FEFF 		bl	lv_obj_add_style
 391              	.LVL50:
 283:Drivers/lvgl/src/extra/themes/mono/lv_theme_mono.c ****         lv_obj_add_style(obj, &styles->pr, LV_PART_ITEMS | LV_STATE_PRESSED);
 392              		.loc 1 283 9 is_stmt 1 view .LVU116
 283:Drivers/lvgl/src/extra/themes/mono/lv_theme_mono.c ****         lv_obj_add_style(obj, &styles->pr, LV_PART_ITEMS | LV_STATE_PRESSED);
 393              		.loc 1 283 38 is_stmt 0 view .LVU117
 394 01b0 2968     		ldr	r1, [r5]
 283:Drivers/lvgl/src/extra/themes/mono/lv_theme_mono.c ****         lv_obj_add_style(obj, &styles->pr, LV_PART_ITEMS | LV_STATE_PRESSED);
 395              		.loc 1 283 9 view .LVU118
 396 01b2 4FF4A022 		mov	r2, #327680
 397 01b6 0831     		adds	r1, r1, #8
 398 01b8 2046     		mov	r0, r4
 399 01ba FFF7FEFF 		bl	lv_obj_add_style
 400              	.LVL51:
 284:Drivers/lvgl/src/extra/themes/mono/lv_theme_mono.c ****         lv_obj_add_style(obj, &styles->inv, LV_PART_ITEMS | LV_STATE_CHECKED);
 401              		.loc 1 284 9 is_stmt 1 view .LVU119
 284:Drivers/lvgl/src/extra/themes/mono/lv_theme_mono.c ****         lv_obj_add_style(obj, &styles->inv, LV_PART_ITEMS | LV_STATE_CHECKED);
 402              		.loc 1 284 38 is_stmt 0 view .LVU120
 403 01be 2968     		ldr	r1, [r5]
 284:Drivers/lvgl/src/extra/themes/mono/lv_theme_mono.c ****         lv_obj_add_style(obj, &styles->inv, LV_PART_ITEMS | LV_STATE_CHECKED);
 404              		.loc 1 284 9 view .LVU121
 405 01c0 544A     		ldr	r2, .L42+28
 406 01c2 2031     		adds	r1, r1, #32
 407 01c4 2046     		mov	r0, r4
 408 01c6 FFF7FEFF 		bl	lv_obj_add_style
 409              	.LVL52:
 285:Drivers/lvgl/src/extra/themes/mono/lv_theme_mono.c ****         lv_obj_add_style(obj, &styles->disabled, LV_PART_ITEMS | LV_STATE_DISABLED);
 410              		.loc 1 285 9 is_stmt 1 view .LVU122
 285:Drivers/lvgl/src/extra/themes/mono/lv_theme_mono.c ****         lv_obj_add_style(obj, &styles->disabled, LV_PART_ITEMS | LV_STATE_DISABLED);
 411              		.loc 1 285 38 is_stmt 0 view .LVU123
 412 01ca 2968     		ldr	r1, [r5]
 285:Drivers/lvgl/src/extra/themes/mono/lv_theme_mono.c ****         lv_obj_add_style(obj, &styles->disabled, LV_PART_ITEMS | LV_STATE_DISABLED);
 413              		.loc 1 285 9 view .LVU124
 414 01cc 524A     		ldr	r2, .L42+32
 415 01ce 2831     		adds	r1, r1, #40
 416 01d0 2046     		mov	r0, r4
 417 01d2 FFF7FEFF 		bl	lv_obj_add_style
 418              	.LVL53:
 286:Drivers/lvgl/src/extra/themes/mono/lv_theme_mono.c ****         lv_obj_add_style(obj, &styles->underline, LV_PART_ITEMS | LV_STATE_FOCUS_KEY);
 419              		.loc 1 286 9 is_stmt 1 view .LVU125
 286:Drivers/lvgl/src/extra/themes/mono/lv_theme_mono.c ****         lv_obj_add_style(obj, &styles->underline, LV_PART_ITEMS | LV_STATE_FOCUS_KEY);
 420              		.loc 1 286 38 is_stmt 0 view .LVU126
 421 01d6 2968     		ldr	r1, [r5]
 286:Drivers/lvgl/src/extra/themes/mono/lv_theme_mono.c ****         lv_obj_add_style(obj, &styles->underline, LV_PART_ITEMS | LV_STATE_FOCUS_KEY);
 422              		.loc 1 286 9 view .LVU127
 423 01d8 504A     		ldr	r2, .L42+36
 424 01da 3031     		adds	r1, r1, #48
 425 01dc 2046     		mov	r0, r4
 426 01de FFF7FEFF 		bl	lv_obj_add_style
 427              	.LVL54:
 287:Drivers/lvgl/src/extra/themes/mono/lv_theme_mono.c ****         lv_obj_add_style(obj, &styles->large_border, LV_PART_ITEMS | LV_STATE_FOCUS_KEY);
ARM GAS  /var/folders/0z/tsy30v1j4xl4_7kw94k978ww0000gn/T//ccjTTGyJ.s 			page 19


 428              		.loc 1 287 9 is_stmt 1 view .LVU128
 287:Drivers/lvgl/src/extra/themes/mono/lv_theme_mono.c ****         lv_obj_add_style(obj, &styles->large_border, LV_PART_ITEMS | LV_STATE_FOCUS_KEY);
 429              		.loc 1 287 38 is_stmt 0 view .LVU129
 430 01e2 2968     		ldr	r1, [r5]
 287:Drivers/lvgl/src/extra/themes/mono/lv_theme_mono.c ****         lv_obj_add_style(obj, &styles->large_border, LV_PART_ITEMS | LV_STATE_FOCUS_KEY);
 431              		.loc 1 287 9 view .LVU130
 432 01e4 4E4E     		ldr	r6, .L42+40
 433 01e6 3246     		mov	r2, r6
 434 01e8 7831     		adds	r1, r1, #120
 435 01ea 2046     		mov	r0, r4
 436 01ec FFF7FEFF 		bl	lv_obj_add_style
 437              	.LVL55:
 288:Drivers/lvgl/src/extra/themes/mono/lv_theme_mono.c ****     }
 438              		.loc 1 288 9 is_stmt 1 view .LVU131
 288:Drivers/lvgl/src/extra/themes/mono/lv_theme_mono.c ****     }
 439              		.loc 1 288 38 is_stmt 0 view .LVU132
 440 01f0 2968     		ldr	r1, [r5]
 288:Drivers/lvgl/src/extra/themes/mono/lv_theme_mono.c ****     }
 441              		.loc 1 288 9 view .LVU133
 442 01f2 3246     		mov	r2, r6
 443 01f4 6831     		adds	r1, r1, #104
 444 01f6 2046     		mov	r0, r4
 445 01f8 FFF7FEFF 		bl	lv_obj_add_style
 446              	.LVL56:
 447 01fc 14E7     		b	.L1
 448              	.L38:
 259:Drivers/lvgl/src/extra/themes/mono/lv_theme_mono.c ****             lv_obj_add_style(obj, &styles->card, LV_PART_ITEMS);
 449              		.loc 1 259 13 is_stmt 1 view .LVU134
 259:Drivers/lvgl/src/extra/themes/mono/lv_theme_mono.c ****             lv_obj_add_style(obj, &styles->card, LV_PART_ITEMS);
 450              		.loc 1 259 42 is_stmt 0 view .LVU135
 451 01fe 404D     		ldr	r5, .L42+8
 452 0200 2968     		ldr	r1, [r5]
 259:Drivers/lvgl/src/extra/themes/mono/lv_theme_mono.c ****             lv_obj_add_style(obj, &styles->card, LV_PART_ITEMS);
 453              		.loc 1 259 13 view .LVU136
 454 0202 0022     		movs	r2, #0
 455 0204 4831     		adds	r1, r1, #72
 456 0206 2046     		mov	r0, r4
 457 0208 FFF7FEFF 		bl	lv_obj_add_style
 458              	.LVL57:
 260:Drivers/lvgl/src/extra/themes/mono/lv_theme_mono.c ****             lv_obj_add_style(obj, &styles->pr, LV_PART_ITEMS | LV_STATE_PRESSED);
 459              		.loc 1 260 13 is_stmt 1 view .LVU137
 260:Drivers/lvgl/src/extra/themes/mono/lv_theme_mono.c ****             lv_obj_add_style(obj, &styles->pr, LV_PART_ITEMS | LV_STATE_PRESSED);
 460              		.loc 1 260 42 is_stmt 0 view .LVU138
 461 020c 2968     		ldr	r1, [r5]
 260:Drivers/lvgl/src/extra/themes/mono/lv_theme_mono.c ****             lv_obj_add_style(obj, &styles->pr, LV_PART_ITEMS | LV_STATE_PRESSED);
 462              		.loc 1 260 13 view .LVU139
 463 020e 4FF4A022 		mov	r2, #327680
 464 0212 0831     		adds	r1, r1, #8
 465 0214 2046     		mov	r0, r4
 466 0216 FFF7FEFF 		bl	lv_obj_add_style
 467              	.LVL58:
 261:Drivers/lvgl/src/extra/themes/mono/lv_theme_mono.c ****             lv_obj_add_style(obj, &styles->disabled, LV_PART_ITEMS | LV_STATE_DISABLED);
 468              		.loc 1 261 13 is_stmt 1 view .LVU140
 261:Drivers/lvgl/src/extra/themes/mono/lv_theme_mono.c ****             lv_obj_add_style(obj, &styles->disabled, LV_PART_ITEMS | LV_STATE_DISABLED);
 469              		.loc 1 261 42 is_stmt 0 view .LVU141
 470 021a 2968     		ldr	r1, [r5]
 261:Drivers/lvgl/src/extra/themes/mono/lv_theme_mono.c ****             lv_obj_add_style(obj, &styles->disabled, LV_PART_ITEMS | LV_STATE_DISABLED);
ARM GAS  /var/folders/0z/tsy30v1j4xl4_7kw94k978ww0000gn/T//ccjTTGyJ.s 			page 20


 471              		.loc 1 261 13 view .LVU142
 472 021c 3D4A     		ldr	r2, .L42+28
 473 021e 2031     		adds	r1, r1, #32
 474 0220 2046     		mov	r0, r4
 475 0222 FFF7FEFF 		bl	lv_obj_add_style
 476              	.LVL59:
 262:Drivers/lvgl/src/extra/themes/mono/lv_theme_mono.c ****             lv_obj_add_style(obj, &styles->underline, LV_PART_ITEMS | LV_STATE_FOCUS_KEY);
 477              		.loc 1 262 13 is_stmt 1 view .LVU143
 262:Drivers/lvgl/src/extra/themes/mono/lv_theme_mono.c ****             lv_obj_add_style(obj, &styles->underline, LV_PART_ITEMS | LV_STATE_FOCUS_KEY);
 478              		.loc 1 262 42 is_stmt 0 view .LVU144
 479 0226 2968     		ldr	r1, [r5]
 262:Drivers/lvgl/src/extra/themes/mono/lv_theme_mono.c ****             lv_obj_add_style(obj, &styles->underline, LV_PART_ITEMS | LV_STATE_FOCUS_KEY);
 480              		.loc 1 262 13 view .LVU145
 481 0228 3C4A     		ldr	r2, .L42+36
 482 022a 3031     		adds	r1, r1, #48
 483 022c 2046     		mov	r0, r4
 484 022e FFF7FEFF 		bl	lv_obj_add_style
 485              	.LVL60:
 263:Drivers/lvgl/src/extra/themes/mono/lv_theme_mono.c ****             lv_obj_add_style(obj, &styles->large_border, LV_PART_ITEMS | LV_STATE_FOCUS_KEY);
 486              		.loc 1 263 13 is_stmt 1 view .LVU146
 263:Drivers/lvgl/src/extra/themes/mono/lv_theme_mono.c ****             lv_obj_add_style(obj, &styles->large_border, LV_PART_ITEMS | LV_STATE_FOCUS_KEY);
 487              		.loc 1 263 42 is_stmt 0 view .LVU147
 488 0232 2968     		ldr	r1, [r5]
 263:Drivers/lvgl/src/extra/themes/mono/lv_theme_mono.c ****             lv_obj_add_style(obj, &styles->large_border, LV_PART_ITEMS | LV_STATE_FOCUS_KEY);
 489              		.loc 1 263 13 view .LVU148
 490 0234 3A4E     		ldr	r6, .L42+40
 491 0236 3246     		mov	r2, r6
 492 0238 7831     		adds	r1, r1, #120
 493 023a 2046     		mov	r0, r4
 494 023c FFF7FEFF 		bl	lv_obj_add_style
 495              	.LVL61:
 264:Drivers/lvgl/src/extra/themes/mono/lv_theme_mono.c ****             return;
 496              		.loc 1 264 13 is_stmt 1 view .LVU149
 264:Drivers/lvgl/src/extra/themes/mono/lv_theme_mono.c ****             return;
 497              		.loc 1 264 42 is_stmt 0 view .LVU150
 498 0240 2968     		ldr	r1, [r5]
 264:Drivers/lvgl/src/extra/themes/mono/lv_theme_mono.c ****             return;
 499              		.loc 1 264 13 view .LVU151
 500 0242 3246     		mov	r2, r6
 501 0244 6831     		adds	r1, r1, #104
 502 0246 2046     		mov	r0, r4
 503 0248 FFF7FEFF 		bl	lv_obj_add_style
 504              	.LVL62:
 265:Drivers/lvgl/src/extra/themes/mono/lv_theme_mono.c ****         }
 505              		.loc 1 265 13 is_stmt 1 view .LVU152
 506 024c ECE6     		b	.L1
 507              	.L39:
 270:Drivers/lvgl/src/extra/themes/mono/lv_theme_mono.c ****             lv_obj_add_style(obj, &styles->card, LV_PART_ITEMS);
 508              		.loc 1 270 13 view .LVU153
 270:Drivers/lvgl/src/extra/themes/mono/lv_theme_mono.c ****             lv_obj_add_style(obj, &styles->card, LV_PART_ITEMS);
 509              		.loc 1 270 42 is_stmt 0 view .LVU154
 510 024e 2C4D     		ldr	r5, .L42+8
 511 0250 2968     		ldr	r1, [r5]
 270:Drivers/lvgl/src/extra/themes/mono/lv_theme_mono.c ****             lv_obj_add_style(obj, &styles->card, LV_PART_ITEMS);
 512              		.loc 1 270 13 view .LVU155
 513 0252 0022     		movs	r2, #0
 514 0254 4831     		adds	r1, r1, #72
ARM GAS  /var/folders/0z/tsy30v1j4xl4_7kw94k978ww0000gn/T//ccjTTGyJ.s 			page 21


 515 0256 2046     		mov	r0, r4
 516 0258 FFF7FEFF 		bl	lv_obj_add_style
 517              	.LVL63:
 271:Drivers/lvgl/src/extra/themes/mono/lv_theme_mono.c ****             lv_obj_add_style(obj, &styles->pr, LV_PART_ITEMS | LV_STATE_PRESSED);
 518              		.loc 1 271 13 is_stmt 1 view .LVU156
 271:Drivers/lvgl/src/extra/themes/mono/lv_theme_mono.c ****             lv_obj_add_style(obj, &styles->pr, LV_PART_ITEMS | LV_STATE_PRESSED);
 519              		.loc 1 271 42 is_stmt 0 view .LVU157
 520 025c 2968     		ldr	r1, [r5]
 271:Drivers/lvgl/src/extra/themes/mono/lv_theme_mono.c ****             lv_obj_add_style(obj, &styles->pr, LV_PART_ITEMS | LV_STATE_PRESSED);
 521              		.loc 1 271 13 view .LVU158
 522 025e 4FF4A022 		mov	r2, #327680
 523 0262 0831     		adds	r1, r1, #8
 524 0264 2046     		mov	r0, r4
 525 0266 FFF7FEFF 		bl	lv_obj_add_style
 526              	.LVL64:
 272:Drivers/lvgl/src/extra/themes/mono/lv_theme_mono.c ****             lv_obj_add_style(obj, &styles->inv, LV_PART_ITEMS | LV_STATE_CHECKED);
 527              		.loc 1 272 13 is_stmt 1 view .LVU159
 272:Drivers/lvgl/src/extra/themes/mono/lv_theme_mono.c ****             lv_obj_add_style(obj, &styles->inv, LV_PART_ITEMS | LV_STATE_CHECKED);
 528              		.loc 1 272 42 is_stmt 0 view .LVU160
 529 026a 2968     		ldr	r1, [r5]
 272:Drivers/lvgl/src/extra/themes/mono/lv_theme_mono.c ****             lv_obj_add_style(obj, &styles->inv, LV_PART_ITEMS | LV_STATE_CHECKED);
 530              		.loc 1 272 13 view .LVU161
 531 026c 294A     		ldr	r2, .L42+28
 532 026e 2031     		adds	r1, r1, #32
 533 0270 2046     		mov	r0, r4
 534 0272 FFF7FEFF 		bl	lv_obj_add_style
 535              	.LVL65:
 273:Drivers/lvgl/src/extra/themes/mono/lv_theme_mono.c ****             lv_obj_add_style(obj, &styles->disabled, LV_PART_ITEMS | LV_STATE_DISABLED);
 536              		.loc 1 273 13 is_stmt 1 view .LVU162
 273:Drivers/lvgl/src/extra/themes/mono/lv_theme_mono.c ****             lv_obj_add_style(obj, &styles->disabled, LV_PART_ITEMS | LV_STATE_DISABLED);
 537              		.loc 1 273 42 is_stmt 0 view .LVU163
 538 0276 2968     		ldr	r1, [r5]
 273:Drivers/lvgl/src/extra/themes/mono/lv_theme_mono.c ****             lv_obj_add_style(obj, &styles->disabled, LV_PART_ITEMS | LV_STATE_DISABLED);
 539              		.loc 1 273 13 view .LVU164
 540 0278 274A     		ldr	r2, .L42+32
 541 027a 2831     		adds	r1, r1, #40
 542 027c 2046     		mov	r0, r4
 543 027e FFF7FEFF 		bl	lv_obj_add_style
 544              	.LVL66:
 274:Drivers/lvgl/src/extra/themes/mono/lv_theme_mono.c ****             lv_obj_add_style(obj, &styles->focus, LV_STATE_FOCUS_KEY);
 545              		.loc 1 274 13 is_stmt 1 view .LVU165
 274:Drivers/lvgl/src/extra/themes/mono/lv_theme_mono.c ****             lv_obj_add_style(obj, &styles->focus, LV_STATE_FOCUS_KEY);
 546              		.loc 1 274 42 is_stmt 0 view .LVU166
 547 0282 2968     		ldr	r1, [r5]
 274:Drivers/lvgl/src/extra/themes/mono/lv_theme_mono.c ****             lv_obj_add_style(obj, &styles->focus, LV_STATE_FOCUS_KEY);
 548              		.loc 1 274 13 view .LVU167
 549 0284 254A     		ldr	r2, .L42+36
 550 0286 3031     		adds	r1, r1, #48
 551 0288 2046     		mov	r0, r4
 552 028a FFF7FEFF 		bl	lv_obj_add_style
 553              	.LVL67:
 275:Drivers/lvgl/src/extra/themes/mono/lv_theme_mono.c ****             lv_obj_add_style(obj, &styles->underline, LV_PART_ITEMS | LV_STATE_FOCUS_KEY);
 554              		.loc 1 275 13 is_stmt 1 view .LVU168
 275:Drivers/lvgl/src/extra/themes/mono/lv_theme_mono.c ****             lv_obj_add_style(obj, &styles->underline, LV_PART_ITEMS | LV_STATE_FOCUS_KEY);
 555              		.loc 1 275 42 is_stmt 0 view .LVU169
 556 028e 2968     		ldr	r1, [r5]
 275:Drivers/lvgl/src/extra/themes/mono/lv_theme_mono.c ****             lv_obj_add_style(obj, &styles->underline, LV_PART_ITEMS | LV_STATE_FOCUS_KEY);
ARM GAS  /var/folders/0z/tsy30v1j4xl4_7kw94k978ww0000gn/T//ccjTTGyJ.s 			page 22


 557              		.loc 1 275 13 view .LVU170
 558 0290 0422     		movs	r2, #4
 559 0292 3831     		adds	r1, r1, #56
 560 0294 2046     		mov	r0, r4
 561 0296 FFF7FEFF 		bl	lv_obj_add_style
 562              	.LVL68:
 276:Drivers/lvgl/src/extra/themes/mono/lv_theme_mono.c ****             lv_obj_add_style(obj, &styles->large_border, LV_PART_ITEMS | LV_STATE_FOCUS_KEY);
 563              		.loc 1 276 13 is_stmt 1 view .LVU171
 276:Drivers/lvgl/src/extra/themes/mono/lv_theme_mono.c ****             lv_obj_add_style(obj, &styles->large_border, LV_PART_ITEMS | LV_STATE_FOCUS_KEY);
 564              		.loc 1 276 42 is_stmt 0 view .LVU172
 565 029a 2968     		ldr	r1, [r5]
 276:Drivers/lvgl/src/extra/themes/mono/lv_theme_mono.c ****             lv_obj_add_style(obj, &styles->large_border, LV_PART_ITEMS | LV_STATE_FOCUS_KEY);
 566              		.loc 1 276 13 view .LVU173
 567 029c 204E     		ldr	r6, .L42+40
 568 029e 3246     		mov	r2, r6
 569 02a0 7831     		adds	r1, r1, #120
 570 02a2 2046     		mov	r0, r4
 571 02a4 FFF7FEFF 		bl	lv_obj_add_style
 572              	.LVL69:
 277:Drivers/lvgl/src/extra/themes/mono/lv_theme_mono.c ****             return;
 573              		.loc 1 277 13 is_stmt 1 view .LVU174
 277:Drivers/lvgl/src/extra/themes/mono/lv_theme_mono.c ****             return;
 574              		.loc 1 277 42 is_stmt 0 view .LVU175
 575 02a8 2968     		ldr	r1, [r5]
 277:Drivers/lvgl/src/extra/themes/mono/lv_theme_mono.c ****             return;
 576              		.loc 1 277 13 view .LVU176
 577 02aa 3246     		mov	r2, r6
 578 02ac 6831     		adds	r1, r1, #104
 579 02ae 2046     		mov	r0, r4
 580 02b0 FFF7FEFF 		bl	lv_obj_add_style
 581              	.LVL70:
 278:Drivers/lvgl/src/extra/themes/mono/lv_theme_mono.c ****         }
 582              		.loc 1 278 13 is_stmt 1 view .LVU177
 583 02b4 B8E6     		b	.L1
 584              	.L9:
 293:Drivers/lvgl/src/extra/themes/mono/lv_theme_mono.c ****         lv_obj_add_style(obj, &styles->card, 0);
 585              		.loc 1 293 10 view .LVU178
 293:Drivers/lvgl/src/extra/themes/mono/lv_theme_mono.c ****         lv_obj_add_style(obj, &styles->card, 0);
 586              		.loc 1 293 13 is_stmt 0 view .LVU179
 587 02b6 1B49     		ldr	r1, .L42+44
 588 02b8 2046     		mov	r0, r4
 589 02ba FFF7FEFF 		bl	lv_obj_check_type
 590              	.LVL71:
 293:Drivers/lvgl/src/extra/themes/mono/lv_theme_mono.c ****         lv_obj_add_style(obj, &styles->card, 0);
 591              		.loc 1 293 12 view .LVU180
 592 02be 98B3     		cbz	r0, .L12
 294:Drivers/lvgl/src/extra/themes/mono/lv_theme_mono.c ****         lv_obj_add_style(obj, &styles->pad_zero, 0);
 593              		.loc 1 294 9 is_stmt 1 view .LVU181
 294:Drivers/lvgl/src/extra/themes/mono/lv_theme_mono.c ****         lv_obj_add_style(obj, &styles->pad_zero, 0);
 594              		.loc 1 294 38 is_stmt 0 view .LVU182
 595 02c0 0F4D     		ldr	r5, .L42+8
 596 02c2 2968     		ldr	r1, [r5]
 294:Drivers/lvgl/src/extra/themes/mono/lv_theme_mono.c ****         lv_obj_add_style(obj, &styles->pad_zero, 0);
 597              		.loc 1 294 9 view .LVU183
 598 02c4 0022     		movs	r2, #0
 599 02c6 0831     		adds	r1, r1, #8
 600 02c8 2046     		mov	r0, r4
ARM GAS  /var/folders/0z/tsy30v1j4xl4_7kw94k978ww0000gn/T//ccjTTGyJ.s 			page 23


 601 02ca FFF7FEFF 		bl	lv_obj_add_style
 602              	.LVL72:
 295:Drivers/lvgl/src/extra/themes/mono/lv_theme_mono.c ****         lv_obj_add_style(obj, &styles->inv, LV_PART_INDICATOR);
 603              		.loc 1 295 9 is_stmt 1 view .LVU184
 295:Drivers/lvgl/src/extra/themes/mono/lv_theme_mono.c ****         lv_obj_add_style(obj, &styles->inv, LV_PART_INDICATOR);
 604              		.loc 1 295 38 is_stmt 0 view .LVU185
 605 02ce 2968     		ldr	r1, [r5]
 295:Drivers/lvgl/src/extra/themes/mono/lv_theme_mono.c ****         lv_obj_add_style(obj, &styles->inv, LV_PART_INDICATOR);
 606              		.loc 1 295 9 view .LVU186
 607 02d0 0022     		movs	r2, #0
 608 02d2 5031     		adds	r1, r1, #80
 609 02d4 2046     		mov	r0, r4
 610 02d6 FFF7FEFF 		bl	lv_obj_add_style
 611              	.LVL73:
 296:Drivers/lvgl/src/extra/themes/mono/lv_theme_mono.c ****         lv_obj_add_style(obj, &styles->focus, LV_STATE_FOCUS_KEY);
 612              		.loc 1 296 9 is_stmt 1 view .LVU187
 296:Drivers/lvgl/src/extra/themes/mono/lv_theme_mono.c ****         lv_obj_add_style(obj, &styles->focus, LV_STATE_FOCUS_KEY);
 613              		.loc 1 296 38 is_stmt 0 view .LVU188
 614 02da 2968     		ldr	r1, [r5]
 296:Drivers/lvgl/src/extra/themes/mono/lv_theme_mono.c ****         lv_obj_add_style(obj, &styles->focus, LV_STATE_FOCUS_KEY);
 615              		.loc 1 296 9 view .LVU189
 616 02dc 4FF40032 		mov	r2, #131072
 617 02e0 2831     		adds	r1, r1, #40
 618 02e2 2046     		mov	r0, r4
 619 02e4 FFF7FEFF 		bl	lv_obj_add_style
 620              	.LVL74:
 297:Drivers/lvgl/src/extra/themes/mono/lv_theme_mono.c ****     }
 621              		.loc 1 297 9 is_stmt 1 view .LVU190
 297:Drivers/lvgl/src/extra/themes/mono/lv_theme_mono.c ****     }
 622              		.loc 1 297 38 is_stmt 0 view .LVU191
 623 02e8 2968     		ldr	r1, [r5]
 297:Drivers/lvgl/src/extra/themes/mono/lv_theme_mono.c ****     }
 624              		.loc 1 297 9 view .LVU192
 625 02ea 0422     		movs	r2, #4
 626 02ec 3831     		adds	r1, r1, #56
 627 02ee 2046     		mov	r0, r4
 628 02f0 FFF7FEFF 		bl	lv_obj_add_style
 629              	.LVL75:
 630 02f4 98E6     		b	.L1
 631              	.L43:
 632 02f6 00BF     		.align	2
 633              	.L42:
 634 02f8 00000000 		.word	lv_obj_class
 635 02fc 00000000 		.word	lv_tabview_class
 636 0300 00000000 		.word	.LANCHOR0
 637 0304 00000000 		.word	lv_win_class
 638 0308 00000000 		.word	lv_btn_class
 639 030c 00000000 		.word	lv_btnmatrix_class
 640 0310 00000000 		.word	lv_msgbox_class
 641 0314 20000500 		.word	327712
 642 0318 01000500 		.word	327681
 643 031c 80000500 		.word	327808
 644 0320 04000500 		.word	327684
 645 0324 00000000 		.word	lv_bar_class
 646              	.L12:
 302:Drivers/lvgl/src/extra/themes/mono/lv_theme_mono.c ****         lv_obj_add_style(obj, &styles->card, 0);
 647              		.loc 1 302 10 is_stmt 1 view .LVU193
ARM GAS  /var/folders/0z/tsy30v1j4xl4_7kw94k978ww0000gn/T//ccjTTGyJ.s 			page 24


 302:Drivers/lvgl/src/extra/themes/mono/lv_theme_mono.c ****         lv_obj_add_style(obj, &styles->card, 0);
 648              		.loc 1 302 13 is_stmt 0 view .LVU194
 649 0328 C449     		ldr	r1, .L44
 650 032a 2046     		mov	r0, r4
 651 032c FFF7FEFF 		bl	lv_obj_check_type
 652              	.LVL76:
 302:Drivers/lvgl/src/extra/themes/mono/lv_theme_mono.c ****         lv_obj_add_style(obj, &styles->card, 0);
 653              		.loc 1 302 12 view .LVU195
 654 0330 70B3     		cbz	r0, .L13
 303:Drivers/lvgl/src/extra/themes/mono/lv_theme_mono.c ****         lv_obj_add_style(obj, &styles->pad_zero, 0);
 655              		.loc 1 303 9 is_stmt 1 view .LVU196
 303:Drivers/lvgl/src/extra/themes/mono/lv_theme_mono.c ****         lv_obj_add_style(obj, &styles->pad_zero, 0);
 656              		.loc 1 303 38 is_stmt 0 view .LVU197
 657 0332 C34D     		ldr	r5, .L44+4
 658 0334 2968     		ldr	r1, [r5]
 303:Drivers/lvgl/src/extra/themes/mono/lv_theme_mono.c ****         lv_obj_add_style(obj, &styles->pad_zero, 0);
 659              		.loc 1 303 9 view .LVU198
 660 0336 0022     		movs	r2, #0
 661 0338 0831     		adds	r1, r1, #8
 662 033a 2046     		mov	r0, r4
 663 033c FFF7FEFF 		bl	lv_obj_add_style
 664              	.LVL77:
 304:Drivers/lvgl/src/extra/themes/mono/lv_theme_mono.c ****         lv_obj_add_style(obj, &styles->inv, LV_PART_INDICATOR);
 665              		.loc 1 304 9 is_stmt 1 view .LVU199
 304:Drivers/lvgl/src/extra/themes/mono/lv_theme_mono.c ****         lv_obj_add_style(obj, &styles->inv, LV_PART_INDICATOR);
 666              		.loc 1 304 38 is_stmt 0 view .LVU200
 667 0340 2968     		ldr	r1, [r5]
 304:Drivers/lvgl/src/extra/themes/mono/lv_theme_mono.c ****         lv_obj_add_style(obj, &styles->inv, LV_PART_INDICATOR);
 668              		.loc 1 304 9 view .LVU201
 669 0342 0022     		movs	r2, #0
 670 0344 5031     		adds	r1, r1, #80
 671 0346 2046     		mov	r0, r4
 672 0348 FFF7FEFF 		bl	lv_obj_add_style
 673              	.LVL78:
 305:Drivers/lvgl/src/extra/themes/mono/lv_theme_mono.c ****         lv_obj_add_style(obj, &styles->card, LV_PART_KNOB);
 674              		.loc 1 305 9 is_stmt 1 view .LVU202
 305:Drivers/lvgl/src/extra/themes/mono/lv_theme_mono.c ****         lv_obj_add_style(obj, &styles->card, LV_PART_KNOB);
 675              		.loc 1 305 38 is_stmt 0 view .LVU203
 676 034c 2968     		ldr	r1, [r5]
 305:Drivers/lvgl/src/extra/themes/mono/lv_theme_mono.c ****         lv_obj_add_style(obj, &styles->card, LV_PART_KNOB);
 677              		.loc 1 305 9 view .LVU204
 678 034e 4FF40032 		mov	r2, #131072
 679 0352 2831     		adds	r1, r1, #40
 680 0354 2046     		mov	r0, r4
 681 0356 FFF7FEFF 		bl	lv_obj_add_style
 682              	.LVL79:
 306:Drivers/lvgl/src/extra/themes/mono/lv_theme_mono.c ****         lv_obj_add_style(obj, &styles->radius_circle, LV_PART_KNOB);
 683              		.loc 1 306 9 is_stmt 1 view .LVU205
 306:Drivers/lvgl/src/extra/themes/mono/lv_theme_mono.c ****         lv_obj_add_style(obj, &styles->radius_circle, LV_PART_KNOB);
 684              		.loc 1 306 38 is_stmt 0 view .LVU206
 685 035a 2968     		ldr	r1, [r5]
 306:Drivers/lvgl/src/extra/themes/mono/lv_theme_mono.c ****         lv_obj_add_style(obj, &styles->radius_circle, LV_PART_KNOB);
 686              		.loc 1 306 9 view .LVU207
 687 035c 4FF44032 		mov	r2, #196608
 688 0360 0831     		adds	r1, r1, #8
 689 0362 2046     		mov	r0, r4
 690 0364 FFF7FEFF 		bl	lv_obj_add_style
ARM GAS  /var/folders/0z/tsy30v1j4xl4_7kw94k978ww0000gn/T//ccjTTGyJ.s 			page 25


 691              	.LVL80:
 307:Drivers/lvgl/src/extra/themes/mono/lv_theme_mono.c ****         lv_obj_add_style(obj, &styles->focus, LV_STATE_FOCUS_KEY);
 692              		.loc 1 307 9 is_stmt 1 view .LVU208
 307:Drivers/lvgl/src/extra/themes/mono/lv_theme_mono.c ****         lv_obj_add_style(obj, &styles->focus, LV_STATE_FOCUS_KEY);
 693              		.loc 1 307 38 is_stmt 0 view .LVU209
 694 0368 2968     		ldr	r1, [r5]
 307:Drivers/lvgl/src/extra/themes/mono/lv_theme_mono.c ****         lv_obj_add_style(obj, &styles->focus, LV_STATE_FOCUS_KEY);
 695              		.loc 1 307 9 view .LVU210
 696 036a 4FF44032 		mov	r2, #196608
 697 036e 6031     		adds	r1, r1, #96
 698 0370 2046     		mov	r0, r4
 699 0372 FFF7FEFF 		bl	lv_obj_add_style
 700              	.LVL81:
 308:Drivers/lvgl/src/extra/themes/mono/lv_theme_mono.c ****         lv_obj_add_style(obj, &styles->edit, LV_STATE_EDITED);
 701              		.loc 1 308 9 is_stmt 1 view .LVU211
 308:Drivers/lvgl/src/extra/themes/mono/lv_theme_mono.c ****         lv_obj_add_style(obj, &styles->edit, LV_STATE_EDITED);
 702              		.loc 1 308 38 is_stmt 0 view .LVU212
 703 0376 2968     		ldr	r1, [r5]
 308:Drivers/lvgl/src/extra/themes/mono/lv_theme_mono.c ****         lv_obj_add_style(obj, &styles->edit, LV_STATE_EDITED);
 704              		.loc 1 308 9 view .LVU213
 705 0378 0422     		movs	r2, #4
 706 037a 3831     		adds	r1, r1, #56
 707 037c 2046     		mov	r0, r4
 708 037e FFF7FEFF 		bl	lv_obj_add_style
 709              	.LVL82:
 309:Drivers/lvgl/src/extra/themes/mono/lv_theme_mono.c ****     }
 710              		.loc 1 309 9 is_stmt 1 view .LVU214
 309:Drivers/lvgl/src/extra/themes/mono/lv_theme_mono.c ****     }
 711              		.loc 1 309 38 is_stmt 0 view .LVU215
 712 0382 2968     		ldr	r1, [r5]
 309:Drivers/lvgl/src/extra/themes/mono/lv_theme_mono.c ****     }
 713              		.loc 1 309 9 view .LVU216
 714 0384 0822     		movs	r2, #8
 715 0386 4031     		adds	r1, r1, #64
 716 0388 2046     		mov	r0, r4
 717 038a FFF7FEFF 		bl	lv_obj_add_style
 718              	.LVL83:
 719 038e 4BE6     		b	.L1
 720              	.L13:
 314:Drivers/lvgl/src/extra/themes/mono/lv_theme_mono.c ****         lv_obj_add_style(obj, &styles->scrollbar, LV_PART_SCROLLBAR);
 721              		.loc 1 314 10 is_stmt 1 view .LVU217
 314:Drivers/lvgl/src/extra/themes/mono/lv_theme_mono.c ****         lv_obj_add_style(obj, &styles->scrollbar, LV_PART_SCROLLBAR);
 722              		.loc 1 314 13 is_stmt 0 view .LVU218
 723 0390 AC49     		ldr	r1, .L44+8
 724 0392 2046     		mov	r0, r4
 725 0394 FFF7FEFF 		bl	lv_obj_check_type
 726              	.LVL84:
 314:Drivers/lvgl/src/extra/themes/mono/lv_theme_mono.c ****         lv_obj_add_style(obj, &styles->scrollbar, LV_PART_SCROLLBAR);
 727              		.loc 1 314 12 view .LVU219
 728 0398 70B3     		cbz	r0, .L14
 315:Drivers/lvgl/src/extra/themes/mono/lv_theme_mono.c ****         lv_obj_add_style(obj, &styles->card, LV_PART_ITEMS);
 729              		.loc 1 315 9 is_stmt 1 view .LVU220
 315:Drivers/lvgl/src/extra/themes/mono/lv_theme_mono.c ****         lv_obj_add_style(obj, &styles->card, LV_PART_ITEMS);
 730              		.loc 1 315 38 is_stmt 0 view .LVU221
 731 039a A94D     		ldr	r5, .L44+4
 732 039c 2968     		ldr	r1, [r5]
 315:Drivers/lvgl/src/extra/themes/mono/lv_theme_mono.c ****         lv_obj_add_style(obj, &styles->card, LV_PART_ITEMS);
ARM GAS  /var/folders/0z/tsy30v1j4xl4_7kw94k978ww0000gn/T//ccjTTGyJ.s 			page 26


 733              		.loc 1 315 9 view .LVU222
 734 039e 4FF48032 		mov	r2, #65536
 735 03a2 1031     		adds	r1, r1, #16
 736 03a4 2046     		mov	r0, r4
 737 03a6 FFF7FEFF 		bl	lv_obj_add_style
 738              	.LVL85:
 316:Drivers/lvgl/src/extra/themes/mono/lv_theme_mono.c ****         lv_obj_add_style(obj, &styles->no_radius, LV_PART_ITEMS);
 739              		.loc 1 316 9 is_stmt 1 view .LVU223
 316:Drivers/lvgl/src/extra/themes/mono/lv_theme_mono.c ****         lv_obj_add_style(obj, &styles->no_radius, LV_PART_ITEMS);
 740              		.loc 1 316 38 is_stmt 0 view .LVU224
 741 03aa 2968     		ldr	r1, [r5]
 316:Drivers/lvgl/src/extra/themes/mono/lv_theme_mono.c ****         lv_obj_add_style(obj, &styles->no_radius, LV_PART_ITEMS);
 742              		.loc 1 316 9 view .LVU225
 743 03ac 4FF4A022 		mov	r2, #327680
 744 03b0 0831     		adds	r1, r1, #8
 745 03b2 2046     		mov	r0, r4
 746 03b4 FFF7FEFF 		bl	lv_obj_add_style
 747              	.LVL86:
 317:Drivers/lvgl/src/extra/themes/mono/lv_theme_mono.c ****         lv_obj_add_style(obj, &styles->pr, LV_PART_ITEMS | LV_STATE_PRESSED);
 748              		.loc 1 317 9 is_stmt 1 view .LVU226
 317:Drivers/lvgl/src/extra/themes/mono/lv_theme_mono.c ****         lv_obj_add_style(obj, &styles->pr, LV_PART_ITEMS | LV_STATE_PRESSED);
 749              		.loc 1 317 38 is_stmt 0 view .LVU227
 750 03b8 2968     		ldr	r1, [r5]
 317:Drivers/lvgl/src/extra/themes/mono/lv_theme_mono.c ****         lv_obj_add_style(obj, &styles->pr, LV_PART_ITEMS | LV_STATE_PRESSED);
 751              		.loc 1 317 9 view .LVU228
 752 03ba 4FF4A022 		mov	r2, #327680
 753 03be 5831     		adds	r1, r1, #88
 754 03c0 2046     		mov	r0, r4
 755 03c2 FFF7FEFF 		bl	lv_obj_add_style
 756              	.LVL87:
 318:Drivers/lvgl/src/extra/themes/mono/lv_theme_mono.c ****         lv_obj_add_style(obj, &styles->focus, LV_STATE_FOCUS_KEY);
 757              		.loc 1 318 9 is_stmt 1 view .LVU229
 318:Drivers/lvgl/src/extra/themes/mono/lv_theme_mono.c ****         lv_obj_add_style(obj, &styles->focus, LV_STATE_FOCUS_KEY);
 758              		.loc 1 318 38 is_stmt 0 view .LVU230
 759 03c6 2968     		ldr	r1, [r5]
 318:Drivers/lvgl/src/extra/themes/mono/lv_theme_mono.c ****         lv_obj_add_style(obj, &styles->focus, LV_STATE_FOCUS_KEY);
 760              		.loc 1 318 9 view .LVU231
 761 03c8 9F4A     		ldr	r2, .L44+12
 762 03ca 2031     		adds	r1, r1, #32
 763 03cc 2046     		mov	r0, r4
 764 03ce FFF7FEFF 		bl	lv_obj_add_style
 765              	.LVL88:
 319:Drivers/lvgl/src/extra/themes/mono/lv_theme_mono.c ****         lv_obj_add_style(obj, &styles->inv, LV_PART_ITEMS | LV_STATE_FOCUS_KEY);
 766              		.loc 1 319 9 is_stmt 1 view .LVU232
 319:Drivers/lvgl/src/extra/themes/mono/lv_theme_mono.c ****         lv_obj_add_style(obj, &styles->inv, LV_PART_ITEMS | LV_STATE_FOCUS_KEY);
 767              		.loc 1 319 38 is_stmt 0 view .LVU233
 768 03d2 2968     		ldr	r1, [r5]
 319:Drivers/lvgl/src/extra/themes/mono/lv_theme_mono.c ****         lv_obj_add_style(obj, &styles->inv, LV_PART_ITEMS | LV_STATE_FOCUS_KEY);
 769              		.loc 1 319 9 view .LVU234
 770 03d4 0422     		movs	r2, #4
 771 03d6 3831     		adds	r1, r1, #56
 772 03d8 2046     		mov	r0, r4
 773 03da FFF7FEFF 		bl	lv_obj_add_style
 774              	.LVL89:
 320:Drivers/lvgl/src/extra/themes/mono/lv_theme_mono.c ****         lv_obj_add_style(obj, &styles->edit, LV_STATE_EDITED);
 775              		.loc 1 320 9 is_stmt 1 view .LVU235
 320:Drivers/lvgl/src/extra/themes/mono/lv_theme_mono.c ****         lv_obj_add_style(obj, &styles->edit, LV_STATE_EDITED);
ARM GAS  /var/folders/0z/tsy30v1j4xl4_7kw94k978ww0000gn/T//ccjTTGyJ.s 			page 27


 776              		.loc 1 320 38 is_stmt 0 view .LVU236
 777 03de 2968     		ldr	r1, [r5]
 320:Drivers/lvgl/src/extra/themes/mono/lv_theme_mono.c ****         lv_obj_add_style(obj, &styles->edit, LV_STATE_EDITED);
 778              		.loc 1 320 9 view .LVU237
 779 03e0 9A4A     		ldr	r2, .L44+16
 780 03e2 2831     		adds	r1, r1, #40
 781 03e4 2046     		mov	r0, r4
 782 03e6 FFF7FEFF 		bl	lv_obj_add_style
 783              	.LVL90:
 321:Drivers/lvgl/src/extra/themes/mono/lv_theme_mono.c ****     }
 784              		.loc 1 321 9 is_stmt 1 view .LVU238
 321:Drivers/lvgl/src/extra/themes/mono/lv_theme_mono.c ****     }
 785              		.loc 1 321 38 is_stmt 0 view .LVU239
 786 03ea 2968     		ldr	r1, [r5]
 321:Drivers/lvgl/src/extra/themes/mono/lv_theme_mono.c ****     }
 787              		.loc 1 321 9 view .LVU240
 788 03ec 0822     		movs	r2, #8
 789 03ee 4031     		adds	r1, r1, #64
 790 03f0 2046     		mov	r0, r4
 791 03f2 FFF7FEFF 		bl	lv_obj_add_style
 792              	.LVL91:
 793 03f6 17E6     		b	.L1
 794              	.L14:
 326:Drivers/lvgl/src/extra/themes/mono/lv_theme_mono.c ****         lv_obj_add_style(obj, &styles->pad_gap, LV_PART_MAIN);
 795              		.loc 1 326 10 is_stmt 1 view .LVU241
 326:Drivers/lvgl/src/extra/themes/mono/lv_theme_mono.c ****         lv_obj_add_style(obj, &styles->pad_gap, LV_PART_MAIN);
 796              		.loc 1 326 13 is_stmt 0 view .LVU242
 797 03f8 9549     		ldr	r1, .L44+20
 798 03fa 2046     		mov	r0, r4
 799 03fc FFF7FEFF 		bl	lv_obj_check_type
 800              	.LVL92:
 326:Drivers/lvgl/src/extra/themes/mono/lv_theme_mono.c ****         lv_obj_add_style(obj, &styles->pad_gap, LV_PART_MAIN);
 801              		.loc 1 326 12 view .LVU243
 802 0400 60B3     		cbz	r0, .L15
 327:Drivers/lvgl/src/extra/themes/mono/lv_theme_mono.c ****         lv_obj_add_style(obj, &styles->card, LV_PART_INDICATOR);
 803              		.loc 1 327 9 is_stmt 1 view .LVU244
 327:Drivers/lvgl/src/extra/themes/mono/lv_theme_mono.c ****         lv_obj_add_style(obj, &styles->card, LV_PART_INDICATOR);
 804              		.loc 1 327 38 is_stmt 0 view .LVU245
 805 0402 8F4D     		ldr	r5, .L44+4
 806 0404 2968     		ldr	r1, [r5]
 327:Drivers/lvgl/src/extra/themes/mono/lv_theme_mono.c ****         lv_obj_add_style(obj, &styles->card, LV_PART_INDICATOR);
 807              		.loc 1 327 9 view .LVU246
 808 0406 0022     		movs	r2, #0
 809 0408 4831     		adds	r1, r1, #72
 810 040a 2046     		mov	r0, r4
 811 040c FFF7FEFF 		bl	lv_obj_add_style
 812              	.LVL93:
 328:Drivers/lvgl/src/extra/themes/mono/lv_theme_mono.c ****         lv_obj_add_style(obj, &styles->disabled, LV_PART_INDICATOR | LV_STATE_DISABLED);
 813              		.loc 1 328 9 is_stmt 1 view .LVU247
 328:Drivers/lvgl/src/extra/themes/mono/lv_theme_mono.c ****         lv_obj_add_style(obj, &styles->disabled, LV_PART_INDICATOR | LV_STATE_DISABLED);
 814              		.loc 1 328 38 is_stmt 0 view .LVU248
 815 0410 2968     		ldr	r1, [r5]
 328:Drivers/lvgl/src/extra/themes/mono/lv_theme_mono.c ****         lv_obj_add_style(obj, &styles->disabled, LV_PART_INDICATOR | LV_STATE_DISABLED);
 816              		.loc 1 328 9 view .LVU249
 817 0412 4FF40032 		mov	r2, #131072
 818 0416 0831     		adds	r1, r1, #8
 819 0418 2046     		mov	r0, r4
ARM GAS  /var/folders/0z/tsy30v1j4xl4_7kw94k978ww0000gn/T//ccjTTGyJ.s 			page 28


 820 041a FFF7FEFF 		bl	lv_obj_add_style
 821              	.LVL94:
 329:Drivers/lvgl/src/extra/themes/mono/lv_theme_mono.c ****         lv_obj_add_style(obj, &styles->inv, LV_PART_INDICATOR | LV_STATE_CHECKED);
 822              		.loc 1 329 9 is_stmt 1 view .LVU250
 329:Drivers/lvgl/src/extra/themes/mono/lv_theme_mono.c ****         lv_obj_add_style(obj, &styles->inv, LV_PART_INDICATOR | LV_STATE_CHECKED);
 823              		.loc 1 329 38 is_stmt 0 view .LVU251
 824 041e 2968     		ldr	r1, [r5]
 329:Drivers/lvgl/src/extra/themes/mono/lv_theme_mono.c ****         lv_obj_add_style(obj, &styles->inv, LV_PART_INDICATOR | LV_STATE_CHECKED);
 825              		.loc 1 329 9 view .LVU252
 826 0420 8C4A     		ldr	r2, .L44+24
 827 0422 3031     		adds	r1, r1, #48
 828 0424 2046     		mov	r0, r4
 829 0426 FFF7FEFF 		bl	lv_obj_add_style
 830              	.LVL95:
 330:Drivers/lvgl/src/extra/themes/mono/lv_theme_mono.c ****         lv_obj_add_style(obj, &styles->pr, LV_PART_INDICATOR | LV_STATE_PRESSED);
 831              		.loc 1 330 9 is_stmt 1 view .LVU253
 330:Drivers/lvgl/src/extra/themes/mono/lv_theme_mono.c ****         lv_obj_add_style(obj, &styles->pr, LV_PART_INDICATOR | LV_STATE_PRESSED);
 832              		.loc 1 330 38 is_stmt 0 view .LVU254
 833 042a 2968     		ldr	r1, [r5]
 330:Drivers/lvgl/src/extra/themes/mono/lv_theme_mono.c ****         lv_obj_add_style(obj, &styles->pr, LV_PART_INDICATOR | LV_STATE_PRESSED);
 834              		.loc 1 330 9 view .LVU255
 835 042c 8A4A     		ldr	r2, .L44+28
 836 042e 2831     		adds	r1, r1, #40
 837 0430 2046     		mov	r0, r4
 838 0432 FFF7FEFF 		bl	lv_obj_add_style
 839              	.LVL96:
 331:Drivers/lvgl/src/extra/themes/mono/lv_theme_mono.c ****         lv_obj_add_style(obj, &styles->focus, LV_STATE_FOCUS_KEY);
 840              		.loc 1 331 9 is_stmt 1 view .LVU256
 331:Drivers/lvgl/src/extra/themes/mono/lv_theme_mono.c ****         lv_obj_add_style(obj, &styles->focus, LV_STATE_FOCUS_KEY);
 841              		.loc 1 331 38 is_stmt 0 view .LVU257
 842 0436 2968     		ldr	r1, [r5]
 331:Drivers/lvgl/src/extra/themes/mono/lv_theme_mono.c ****         lv_obj_add_style(obj, &styles->focus, LV_STATE_FOCUS_KEY);
 843              		.loc 1 331 9 view .LVU258
 844 0438 884A     		ldr	r2, .L44+32
 845 043a 2031     		adds	r1, r1, #32
 846 043c 2046     		mov	r0, r4
 847 043e FFF7FEFF 		bl	lv_obj_add_style
 848              	.LVL97:
 332:Drivers/lvgl/src/extra/themes/mono/lv_theme_mono.c ****         lv_obj_add_style(obj, &styles->edit, LV_STATE_EDITED);
 849              		.loc 1 332 9 is_stmt 1 view .LVU259
 332:Drivers/lvgl/src/extra/themes/mono/lv_theme_mono.c ****         lv_obj_add_style(obj, &styles->edit, LV_STATE_EDITED);
 850              		.loc 1 332 38 is_stmt 0 view .LVU260
 851 0442 2968     		ldr	r1, [r5]
 332:Drivers/lvgl/src/extra/themes/mono/lv_theme_mono.c ****         lv_obj_add_style(obj, &styles->edit, LV_STATE_EDITED);
 852              		.loc 1 332 9 view .LVU261
 853 0444 0422     		movs	r2, #4
 854 0446 3831     		adds	r1, r1, #56
 855 0448 2046     		mov	r0, r4
 856 044a FFF7FEFF 		bl	lv_obj_add_style
 857              	.LVL98:
 333:Drivers/lvgl/src/extra/themes/mono/lv_theme_mono.c ****     }
 858              		.loc 1 333 9 is_stmt 1 view .LVU262
 333:Drivers/lvgl/src/extra/themes/mono/lv_theme_mono.c ****     }
 859              		.loc 1 333 38 is_stmt 0 view .LVU263
 860 044e 2968     		ldr	r1, [r5]
 333:Drivers/lvgl/src/extra/themes/mono/lv_theme_mono.c ****     }
 861              		.loc 1 333 9 view .LVU264
ARM GAS  /var/folders/0z/tsy30v1j4xl4_7kw94k978ww0000gn/T//ccjTTGyJ.s 			page 29


 862 0450 0822     		movs	r2, #8
 863 0452 4031     		adds	r1, r1, #64
 864 0454 2046     		mov	r0, r4
 865 0456 FFF7FEFF 		bl	lv_obj_add_style
 866              	.LVL99:
 867 045a E5E5     		b	.L1
 868              	.L15:
 338:Drivers/lvgl/src/extra/themes/mono/lv_theme_mono.c ****         lv_obj_add_style(obj, &styles->card, 0);
 869              		.loc 1 338 10 is_stmt 1 view .LVU265
 338:Drivers/lvgl/src/extra/themes/mono/lv_theme_mono.c ****         lv_obj_add_style(obj, &styles->card, 0);
 870              		.loc 1 338 13 is_stmt 0 view .LVU266
 871 045c 8049     		ldr	r1, .L44+36
 872 045e 2046     		mov	r0, r4
 873 0460 FFF7FEFF 		bl	lv_obj_check_type
 874              	.LVL100:
 338:Drivers/lvgl/src/extra/themes/mono/lv_theme_mono.c ****         lv_obj_add_style(obj, &styles->card, 0);
 875              		.loc 1 338 12 view .LVU267
 876 0464 0028     		cmp	r0, #0
 877 0466 42D0     		beq	.L16
 339:Drivers/lvgl/src/extra/themes/mono/lv_theme_mono.c ****         lv_obj_add_style(obj, &styles->radius_circle, 0);
 878              		.loc 1 339 9 is_stmt 1 view .LVU268
 339:Drivers/lvgl/src/extra/themes/mono/lv_theme_mono.c ****         lv_obj_add_style(obj, &styles->radius_circle, 0);
 879              		.loc 1 339 38 is_stmt 0 view .LVU269
 880 0468 754D     		ldr	r5, .L44+4
 881 046a 2968     		ldr	r1, [r5]
 339:Drivers/lvgl/src/extra/themes/mono/lv_theme_mono.c ****         lv_obj_add_style(obj, &styles->radius_circle, 0);
 882              		.loc 1 339 9 view .LVU270
 883 046c 0022     		movs	r2, #0
 884 046e 0831     		adds	r1, r1, #8
 885 0470 2046     		mov	r0, r4
 886 0472 FFF7FEFF 		bl	lv_obj_add_style
 887              	.LVL101:
 340:Drivers/lvgl/src/extra/themes/mono/lv_theme_mono.c ****         lv_obj_add_style(obj, &styles->pad_zero, 0);
 888              		.loc 1 340 9 is_stmt 1 view .LVU271
 340:Drivers/lvgl/src/extra/themes/mono/lv_theme_mono.c ****         lv_obj_add_style(obj, &styles->pad_zero, 0);
 889              		.loc 1 340 38 is_stmt 0 view .LVU272
 890 0476 2968     		ldr	r1, [r5]
 340:Drivers/lvgl/src/extra/themes/mono/lv_theme_mono.c ****         lv_obj_add_style(obj, &styles->pad_zero, 0);
 891              		.loc 1 340 9 view .LVU273
 892 0478 0022     		movs	r2, #0
 893 047a 6031     		adds	r1, r1, #96
 894 047c 2046     		mov	r0, r4
 895 047e FFF7FEFF 		bl	lv_obj_add_style
 896              	.LVL102:
 341:Drivers/lvgl/src/extra/themes/mono/lv_theme_mono.c ****         lv_obj_add_style(obj, &styles->inv, LV_PART_INDICATOR);
 897              		.loc 1 341 9 is_stmt 1 view .LVU274
 341:Drivers/lvgl/src/extra/themes/mono/lv_theme_mono.c ****         lv_obj_add_style(obj, &styles->inv, LV_PART_INDICATOR);
 898              		.loc 1 341 38 is_stmt 0 view .LVU275
 899 0482 2968     		ldr	r1, [r5]
 341:Drivers/lvgl/src/extra/themes/mono/lv_theme_mono.c ****         lv_obj_add_style(obj, &styles->inv, LV_PART_INDICATOR);
 900              		.loc 1 341 9 view .LVU276
 901 0484 0022     		movs	r2, #0
 902 0486 5031     		adds	r1, r1, #80
 903 0488 2046     		mov	r0, r4
 904 048a FFF7FEFF 		bl	lv_obj_add_style
 905              	.LVL103:
 342:Drivers/lvgl/src/extra/themes/mono/lv_theme_mono.c ****         lv_obj_add_style(obj, &styles->radius_circle, LV_PART_INDICATOR);
ARM GAS  /var/folders/0z/tsy30v1j4xl4_7kw94k978ww0000gn/T//ccjTTGyJ.s 			page 30


 906              		.loc 1 342 9 is_stmt 1 view .LVU277
 342:Drivers/lvgl/src/extra/themes/mono/lv_theme_mono.c ****         lv_obj_add_style(obj, &styles->radius_circle, LV_PART_INDICATOR);
 907              		.loc 1 342 38 is_stmt 0 view .LVU278
 908 048e 2968     		ldr	r1, [r5]
 342:Drivers/lvgl/src/extra/themes/mono/lv_theme_mono.c ****         lv_obj_add_style(obj, &styles->radius_circle, LV_PART_INDICATOR);
 909              		.loc 1 342 9 view .LVU279
 910 0490 4FF40032 		mov	r2, #131072
 911 0494 2831     		adds	r1, r1, #40
 912 0496 2046     		mov	r0, r4
 913 0498 FFF7FEFF 		bl	lv_obj_add_style
 914              	.LVL104:
 343:Drivers/lvgl/src/extra/themes/mono/lv_theme_mono.c ****         lv_obj_add_style(obj, &styles->card, LV_PART_KNOB);
 915              		.loc 1 343 9 is_stmt 1 view .LVU280
 343:Drivers/lvgl/src/extra/themes/mono/lv_theme_mono.c ****         lv_obj_add_style(obj, &styles->card, LV_PART_KNOB);
 916              		.loc 1 343 38 is_stmt 0 view .LVU281
 917 049c 2968     		ldr	r1, [r5]
 343:Drivers/lvgl/src/extra/themes/mono/lv_theme_mono.c ****         lv_obj_add_style(obj, &styles->card, LV_PART_KNOB);
 918              		.loc 1 343 9 view .LVU282
 919 049e 4FF40032 		mov	r2, #131072
 920 04a2 6031     		adds	r1, r1, #96
 921 04a4 2046     		mov	r0, r4
 922 04a6 FFF7FEFF 		bl	lv_obj_add_style
 923              	.LVL105:
 344:Drivers/lvgl/src/extra/themes/mono/lv_theme_mono.c ****         lv_obj_add_style(obj, &styles->radius_circle, LV_PART_KNOB);
 924              		.loc 1 344 9 is_stmt 1 view .LVU283
 344:Drivers/lvgl/src/extra/themes/mono/lv_theme_mono.c ****         lv_obj_add_style(obj, &styles->radius_circle, LV_PART_KNOB);
 925              		.loc 1 344 38 is_stmt 0 view .LVU284
 926 04aa 2968     		ldr	r1, [r5]
 344:Drivers/lvgl/src/extra/themes/mono/lv_theme_mono.c ****         lv_obj_add_style(obj, &styles->radius_circle, LV_PART_KNOB);
 927              		.loc 1 344 9 view .LVU285
 928 04ac 4FF44032 		mov	r2, #196608
 929 04b0 0831     		adds	r1, r1, #8
 930 04b2 2046     		mov	r0, r4
 931 04b4 FFF7FEFF 		bl	lv_obj_add_style
 932              	.LVL106:
 345:Drivers/lvgl/src/extra/themes/mono/lv_theme_mono.c ****         lv_obj_add_style(obj, &styles->pad_zero, LV_PART_KNOB);
 933              		.loc 1 345 9 is_stmt 1 view .LVU286
 345:Drivers/lvgl/src/extra/themes/mono/lv_theme_mono.c ****         lv_obj_add_style(obj, &styles->pad_zero, LV_PART_KNOB);
 934              		.loc 1 345 38 is_stmt 0 view .LVU287
 935 04b8 2968     		ldr	r1, [r5]
 345:Drivers/lvgl/src/extra/themes/mono/lv_theme_mono.c ****         lv_obj_add_style(obj, &styles->pad_zero, LV_PART_KNOB);
 936              		.loc 1 345 9 view .LVU288
 937 04ba 4FF44032 		mov	r2, #196608
 938 04be 6031     		adds	r1, r1, #96
 939 04c0 2046     		mov	r0, r4
 940 04c2 FFF7FEFF 		bl	lv_obj_add_style
 941              	.LVL107:
 346:Drivers/lvgl/src/extra/themes/mono/lv_theme_mono.c ****         lv_obj_add_style(obj, &styles->focus, LV_STATE_FOCUS_KEY);
 942              		.loc 1 346 9 is_stmt 1 view .LVU289
 346:Drivers/lvgl/src/extra/themes/mono/lv_theme_mono.c ****         lv_obj_add_style(obj, &styles->focus, LV_STATE_FOCUS_KEY);
 943              		.loc 1 346 38 is_stmt 0 view .LVU290
 944 04c6 2968     		ldr	r1, [r5]
 346:Drivers/lvgl/src/extra/themes/mono/lv_theme_mono.c ****         lv_obj_add_style(obj, &styles->focus, LV_STATE_FOCUS_KEY);
 945              		.loc 1 346 9 view .LVU291
 946 04c8 4FF44032 		mov	r2, #196608
 947 04cc 5031     		adds	r1, r1, #80
 948 04ce 2046     		mov	r0, r4
ARM GAS  /var/folders/0z/tsy30v1j4xl4_7kw94k978ww0000gn/T//ccjTTGyJ.s 			page 31


 949 04d0 FFF7FEFF 		bl	lv_obj_add_style
 950              	.LVL108:
 347:Drivers/lvgl/src/extra/themes/mono/lv_theme_mono.c ****         lv_obj_add_style(obj, &styles->edit, LV_STATE_EDITED);
 951              		.loc 1 347 9 is_stmt 1 view .LVU292
 347:Drivers/lvgl/src/extra/themes/mono/lv_theme_mono.c ****         lv_obj_add_style(obj, &styles->edit, LV_STATE_EDITED);
 952              		.loc 1 347 38 is_stmt 0 view .LVU293
 953 04d4 2968     		ldr	r1, [r5]
 347:Drivers/lvgl/src/extra/themes/mono/lv_theme_mono.c ****         lv_obj_add_style(obj, &styles->edit, LV_STATE_EDITED);
 954              		.loc 1 347 9 view .LVU294
 955 04d6 0422     		movs	r2, #4
 956 04d8 3831     		adds	r1, r1, #56
 957 04da 2046     		mov	r0, r4
 958 04dc FFF7FEFF 		bl	lv_obj_add_style
 959              	.LVL109:
 348:Drivers/lvgl/src/extra/themes/mono/lv_theme_mono.c ****     }
 960              		.loc 1 348 9 is_stmt 1 view .LVU295
 348:Drivers/lvgl/src/extra/themes/mono/lv_theme_mono.c ****     }
 961              		.loc 1 348 38 is_stmt 0 view .LVU296
 962 04e0 2968     		ldr	r1, [r5]
 348:Drivers/lvgl/src/extra/themes/mono/lv_theme_mono.c ****     }
 963              		.loc 1 348 9 view .LVU297
 964 04e2 0822     		movs	r2, #8
 965 04e4 4031     		adds	r1, r1, #64
 966 04e6 2046     		mov	r0, r4
 967 04e8 FFF7FEFF 		bl	lv_obj_add_style
 968              	.LVL110:
 969 04ec 9CE5     		b	.L1
 970              	.L16:
 353:Drivers/lvgl/src/extra/themes/mono/lv_theme_mono.c ****         lv_obj_add_style(obj, &styles->card, 0);
 971              		.loc 1 353 10 is_stmt 1 view .LVU298
 353:Drivers/lvgl/src/extra/themes/mono/lv_theme_mono.c ****         lv_obj_add_style(obj, &styles->card, 0);
 972              		.loc 1 353 13 is_stmt 0 view .LVU299
 973 04ee 5D49     		ldr	r1, .L44+40
 974 04f0 2046     		mov	r0, r4
 975 04f2 FFF7FEFF 		bl	lv_obj_check_type
 976              	.LVL111:
 353:Drivers/lvgl/src/extra/themes/mono/lv_theme_mono.c ****         lv_obj_add_style(obj, &styles->card, 0);
 977              		.loc 1 353 12 view .LVU300
 978 04f6 48B3     		cbz	r0, .L17
 354:Drivers/lvgl/src/extra/themes/mono/lv_theme_mono.c ****         lv_obj_add_style(obj, &styles->scrollbar, LV_PART_SCROLLBAR);
 979              		.loc 1 354 9 is_stmt 1 view .LVU301
 354:Drivers/lvgl/src/extra/themes/mono/lv_theme_mono.c ****         lv_obj_add_style(obj, &styles->scrollbar, LV_PART_SCROLLBAR);
 980              		.loc 1 354 38 is_stmt 0 view .LVU302
 981 04f8 514D     		ldr	r5, .L44+4
 982 04fa 2968     		ldr	r1, [r5]
 354:Drivers/lvgl/src/extra/themes/mono/lv_theme_mono.c ****         lv_obj_add_style(obj, &styles->scrollbar, LV_PART_SCROLLBAR);
 983              		.loc 1 354 9 view .LVU303
 984 04fc 0022     		movs	r2, #0
 985 04fe 0831     		adds	r1, r1, #8
 986 0500 2046     		mov	r0, r4
 987 0502 FFF7FEFF 		bl	lv_obj_add_style
 988              	.LVL112:
 355:Drivers/lvgl/src/extra/themes/mono/lv_theme_mono.c ****         lv_obj_add_style(obj, &styles->card, LV_PART_ITEMS);
 989              		.loc 1 355 9 is_stmt 1 view .LVU304
 355:Drivers/lvgl/src/extra/themes/mono/lv_theme_mono.c ****         lv_obj_add_style(obj, &styles->card, LV_PART_ITEMS);
 990              		.loc 1 355 38 is_stmt 0 view .LVU305
 991 0506 2968     		ldr	r1, [r5]
ARM GAS  /var/folders/0z/tsy30v1j4xl4_7kw94k978ww0000gn/T//ccjTTGyJ.s 			page 32


 355:Drivers/lvgl/src/extra/themes/mono/lv_theme_mono.c ****         lv_obj_add_style(obj, &styles->card, LV_PART_ITEMS);
 992              		.loc 1 355 9 view .LVU306
 993 0508 4FF48032 		mov	r2, #65536
 994 050c 1031     		adds	r1, r1, #16
 995 050e 2046     		mov	r0, r4
 996 0510 FFF7FEFF 		bl	lv_obj_add_style
 997              	.LVL113:
 356:Drivers/lvgl/src/extra/themes/mono/lv_theme_mono.c ****         lv_obj_add_style(obj, &styles->card, LV_PART_TICKS);
 998              		.loc 1 356 9 is_stmt 1 view .LVU307
 356:Drivers/lvgl/src/extra/themes/mono/lv_theme_mono.c ****         lv_obj_add_style(obj, &styles->card, LV_PART_TICKS);
 999              		.loc 1 356 38 is_stmt 0 view .LVU308
 1000 0514 2968     		ldr	r1, [r5]
 356:Drivers/lvgl/src/extra/themes/mono/lv_theme_mono.c ****         lv_obj_add_style(obj, &styles->card, LV_PART_TICKS);
 1001              		.loc 1 356 9 view .LVU309
 1002 0516 4FF4A022 		mov	r2, #327680
 1003 051a 0831     		adds	r1, r1, #8
 1004 051c 2046     		mov	r0, r4
 1005 051e FFF7FEFF 		bl	lv_obj_add_style
 1006              	.LVL114:
 357:Drivers/lvgl/src/extra/themes/mono/lv_theme_mono.c ****         lv_obj_add_style(obj, &styles->card, LV_PART_CURSOR);
 1007              		.loc 1 357 9 is_stmt 1 view .LVU310
 357:Drivers/lvgl/src/extra/themes/mono/lv_theme_mono.c ****         lv_obj_add_style(obj, &styles->card, LV_PART_CURSOR);
 1008              		.loc 1 357 38 is_stmt 0 view .LVU311
 1009 0522 2968     		ldr	r1, [r5]
 357:Drivers/lvgl/src/extra/themes/mono/lv_theme_mono.c ****         lv_obj_add_style(obj, &styles->card, LV_PART_CURSOR);
 1010              		.loc 1 357 9 view .LVU312
 1011 0524 4FF4C022 		mov	r2, #393216
 1012 0528 0831     		adds	r1, r1, #8
 1013 052a 2046     		mov	r0, r4
 1014 052c FFF7FEFF 		bl	lv_obj_add_style
 1015              	.LVL115:
 358:Drivers/lvgl/src/extra/themes/mono/lv_theme_mono.c ****         lv_obj_add_style(obj, &styles->focus, LV_STATE_FOCUS_KEY);
 1016              		.loc 1 358 9 is_stmt 1 view .LVU313
 358:Drivers/lvgl/src/extra/themes/mono/lv_theme_mono.c ****         lv_obj_add_style(obj, &styles->focus, LV_STATE_FOCUS_KEY);
 1017              		.loc 1 358 38 is_stmt 0 view .LVU314
 1018 0530 2968     		ldr	r1, [r5]
 358:Drivers/lvgl/src/extra/themes/mono/lv_theme_mono.c ****         lv_obj_add_style(obj, &styles->focus, LV_STATE_FOCUS_KEY);
 1019              		.loc 1 358 9 view .LVU315
 1020 0532 4FF4E022 		mov	r2, #458752
 1021 0536 0831     		adds	r1, r1, #8
 1022 0538 2046     		mov	r0, r4
 1023 053a FFF7FEFF 		bl	lv_obj_add_style
 1024              	.LVL116:
 359:Drivers/lvgl/src/extra/themes/mono/lv_theme_mono.c ****     }
 1025              		.loc 1 359 9 is_stmt 1 view .LVU316
 359:Drivers/lvgl/src/extra/themes/mono/lv_theme_mono.c ****     }
 1026              		.loc 1 359 38 is_stmt 0 view .LVU317
 1027 053e 2968     		ldr	r1, [r5]
 359:Drivers/lvgl/src/extra/themes/mono/lv_theme_mono.c ****     }
 1028              		.loc 1 359 9 view .LVU318
 1029 0540 0422     		movs	r2, #4
 1030 0542 3831     		adds	r1, r1, #56
 1031 0544 2046     		mov	r0, r4
 1032 0546 FFF7FEFF 		bl	lv_obj_add_style
 1033              	.LVL117:
 1034 054a 6DE5     		b	.L1
 1035              	.L17:
ARM GAS  /var/folders/0z/tsy30v1j4xl4_7kw94k978ww0000gn/T//ccjTTGyJ.s 			page 33


 364:Drivers/lvgl/src/extra/themes/mono/lv_theme_mono.c ****         lv_obj_add_style(obj, &styles->card, 0);
 1036              		.loc 1 364 10 is_stmt 1 view .LVU319
 364:Drivers/lvgl/src/extra/themes/mono/lv_theme_mono.c ****         lv_obj_add_style(obj, &styles->card, 0);
 1037              		.loc 1 364 13 is_stmt 0 view .LVU320
 1038 054c 4649     		ldr	r1, .L44+44
 1039 054e 2046     		mov	r0, r4
 1040 0550 FFF7FEFF 		bl	lv_obj_check_type
 1041              	.LVL118:
 364:Drivers/lvgl/src/extra/themes/mono/lv_theme_mono.c ****         lv_obj_add_style(obj, &styles->card, 0);
 1042              		.loc 1 364 12 view .LVU321
 1043 0554 00B3     		cbz	r0, .L18
 365:Drivers/lvgl/src/extra/themes/mono/lv_theme_mono.c ****         lv_obj_add_style(obj, &styles->large_line_space, 0);
 1044              		.loc 1 365 9 is_stmt 1 view .LVU322
 365:Drivers/lvgl/src/extra/themes/mono/lv_theme_mono.c ****         lv_obj_add_style(obj, &styles->large_line_space, 0);
 1045              		.loc 1 365 38 is_stmt 0 view .LVU323
 1046 0556 3A4D     		ldr	r5, .L44+4
 1047 0558 2968     		ldr	r1, [r5]
 365:Drivers/lvgl/src/extra/themes/mono/lv_theme_mono.c ****         lv_obj_add_style(obj, &styles->large_line_space, 0);
 1048              		.loc 1 365 9 view .LVU324
 1049 055a 0022     		movs	r2, #0
 1050 055c 0831     		adds	r1, r1, #8
 1051 055e 2046     		mov	r0, r4
 1052 0560 FFF7FEFF 		bl	lv_obj_add_style
 1053              	.LVL119:
 366:Drivers/lvgl/src/extra/themes/mono/lv_theme_mono.c ****         lv_obj_add_style(obj, &styles->inv, LV_PART_SELECTED);
 1054              		.loc 1 366 9 is_stmt 1 view .LVU325
 366:Drivers/lvgl/src/extra/themes/mono/lv_theme_mono.c ****         lv_obj_add_style(obj, &styles->inv, LV_PART_SELECTED);
 1055              		.loc 1 366 38 is_stmt 0 view .LVU326
 1056 0564 2968     		ldr	r1, [r5]
 366:Drivers/lvgl/src/extra/themes/mono/lv_theme_mono.c ****         lv_obj_add_style(obj, &styles->inv, LV_PART_SELECTED);
 1057              		.loc 1 366 9 view .LVU327
 1058 0566 0022     		movs	r2, #0
 1059 0568 7031     		adds	r1, r1, #112
 1060 056a 2046     		mov	r0, r4
 1061 056c FFF7FEFF 		bl	lv_obj_add_style
 1062              	.LVL120:
 367:Drivers/lvgl/src/extra/themes/mono/lv_theme_mono.c ****         lv_obj_add_style(obj, &styles->focus, LV_STATE_FOCUS_KEY);
 1063              		.loc 1 367 9 is_stmt 1 view .LVU328
 367:Drivers/lvgl/src/extra/themes/mono/lv_theme_mono.c ****         lv_obj_add_style(obj, &styles->focus, LV_STATE_FOCUS_KEY);
 1064              		.loc 1 367 38 is_stmt 0 view .LVU329
 1065 0570 2968     		ldr	r1, [r5]
 367:Drivers/lvgl/src/extra/themes/mono/lv_theme_mono.c ****         lv_obj_add_style(obj, &styles->focus, LV_STATE_FOCUS_KEY);
 1066              		.loc 1 367 9 view .LVU330
 1067 0572 4FF48022 		mov	r2, #262144
 1068 0576 2831     		adds	r1, r1, #40
 1069 0578 2046     		mov	r0, r4
 1070 057a FFF7FEFF 		bl	lv_obj_add_style
 1071              	.LVL121:
 368:Drivers/lvgl/src/extra/themes/mono/lv_theme_mono.c ****         lv_obj_add_style(obj, &styles->edit, LV_STATE_EDITED);
 1072              		.loc 1 368 9 is_stmt 1 view .LVU331
 368:Drivers/lvgl/src/extra/themes/mono/lv_theme_mono.c ****         lv_obj_add_style(obj, &styles->edit, LV_STATE_EDITED);
 1073              		.loc 1 368 38 is_stmt 0 view .LVU332
 1074 057e 2968     		ldr	r1, [r5]
 368:Drivers/lvgl/src/extra/themes/mono/lv_theme_mono.c ****         lv_obj_add_style(obj, &styles->edit, LV_STATE_EDITED);
 1075              		.loc 1 368 9 view .LVU333
 1076 0580 0422     		movs	r2, #4
 1077 0582 3831     		adds	r1, r1, #56
ARM GAS  /var/folders/0z/tsy30v1j4xl4_7kw94k978ww0000gn/T//ccjTTGyJ.s 			page 34


 1078 0584 2046     		mov	r0, r4
 1079 0586 FFF7FEFF 		bl	lv_obj_add_style
 1080              	.LVL122:
 369:Drivers/lvgl/src/extra/themes/mono/lv_theme_mono.c ****     }
 1081              		.loc 1 369 9 is_stmt 1 view .LVU334
 369:Drivers/lvgl/src/extra/themes/mono/lv_theme_mono.c ****     }
 1082              		.loc 1 369 38 is_stmt 0 view .LVU335
 1083 058a 2968     		ldr	r1, [r5]
 369:Drivers/lvgl/src/extra/themes/mono/lv_theme_mono.c ****     }
 1084              		.loc 1 369 9 view .LVU336
 1085 058c 0822     		movs	r2, #8
 1086 058e 4031     		adds	r1, r1, #64
 1087 0590 2046     		mov	r0, r4
 1088 0592 FFF7FEFF 		bl	lv_obj_add_style
 1089              	.LVL123:
 1090 0596 47E5     		b	.L1
 1091              	.L18:
 374:Drivers/lvgl/src/extra/themes/mono/lv_theme_mono.c ****         lv_obj_add_style(obj, &styles->card, 0);
 1092              		.loc 1 374 10 is_stmt 1 view .LVU337
 374:Drivers/lvgl/src/extra/themes/mono/lv_theme_mono.c ****         lv_obj_add_style(obj, &styles->card, 0);
 1093              		.loc 1 374 13 is_stmt 0 view .LVU338
 1094 0598 3449     		ldr	r1, .L44+48
 1095 059a 2046     		mov	r0, r4
 1096 059c FFF7FEFF 		bl	lv_obj_check_type
 1097              	.LVL124:
 374:Drivers/lvgl/src/extra/themes/mono/lv_theme_mono.c ****         lv_obj_add_style(obj, &styles->card, 0);
 1098              		.loc 1 374 12 view .LVU339
 1099 05a0 C8B1     		cbz	r0, .L19
 375:Drivers/lvgl/src/extra/themes/mono/lv_theme_mono.c ****         lv_obj_add_style(obj, &styles->pr, LV_STATE_PRESSED);
 1100              		.loc 1 375 9 is_stmt 1 view .LVU340
 375:Drivers/lvgl/src/extra/themes/mono/lv_theme_mono.c ****         lv_obj_add_style(obj, &styles->pr, LV_STATE_PRESSED);
 1101              		.loc 1 375 38 is_stmt 0 view .LVU341
 1102 05a2 274D     		ldr	r5, .L44+4
 1103 05a4 2968     		ldr	r1, [r5]
 375:Drivers/lvgl/src/extra/themes/mono/lv_theme_mono.c ****         lv_obj_add_style(obj, &styles->pr, LV_STATE_PRESSED);
 1104              		.loc 1 375 9 view .LVU342
 1105 05a6 0022     		movs	r2, #0
 1106 05a8 0831     		adds	r1, r1, #8
 1107 05aa 2046     		mov	r0, r4
 1108 05ac FFF7FEFF 		bl	lv_obj_add_style
 1109              	.LVL125:
 376:Drivers/lvgl/src/extra/themes/mono/lv_theme_mono.c ****         lv_obj_add_style(obj, &styles->focus, LV_STATE_FOCUS_KEY);
 1110              		.loc 1 376 9 is_stmt 1 view .LVU343
 376:Drivers/lvgl/src/extra/themes/mono/lv_theme_mono.c ****         lv_obj_add_style(obj, &styles->focus, LV_STATE_FOCUS_KEY);
 1111              		.loc 1 376 38 is_stmt 0 view .LVU344
 1112 05b0 2968     		ldr	r1, [r5]
 376:Drivers/lvgl/src/extra/themes/mono/lv_theme_mono.c ****         lv_obj_add_style(obj, &styles->focus, LV_STATE_FOCUS_KEY);
 1113              		.loc 1 376 9 view .LVU345
 1114 05b2 2022     		movs	r2, #32
 1115 05b4 1144     		add	r1, r1, r2
 1116 05b6 2046     		mov	r0, r4
 1117 05b8 FFF7FEFF 		bl	lv_obj_add_style
 1118              	.LVL126:
 377:Drivers/lvgl/src/extra/themes/mono/lv_theme_mono.c ****         lv_obj_add_style(obj, &styles->edit, LV_STATE_EDITED);
 1119              		.loc 1 377 9 is_stmt 1 view .LVU346
 377:Drivers/lvgl/src/extra/themes/mono/lv_theme_mono.c ****         lv_obj_add_style(obj, &styles->edit, LV_STATE_EDITED);
 1120              		.loc 1 377 38 is_stmt 0 view .LVU347
ARM GAS  /var/folders/0z/tsy30v1j4xl4_7kw94k978ww0000gn/T//ccjTTGyJ.s 			page 35


 1121 05bc 2968     		ldr	r1, [r5]
 377:Drivers/lvgl/src/extra/themes/mono/lv_theme_mono.c ****         lv_obj_add_style(obj, &styles->edit, LV_STATE_EDITED);
 1122              		.loc 1 377 9 view .LVU348
 1123 05be 0422     		movs	r2, #4
 1124 05c0 3831     		adds	r1, r1, #56
 1125 05c2 2046     		mov	r0, r4
 1126 05c4 FFF7FEFF 		bl	lv_obj_add_style
 1127              	.LVL127:
 378:Drivers/lvgl/src/extra/themes/mono/lv_theme_mono.c ****     }
 1128              		.loc 1 378 9 is_stmt 1 view .LVU349
 378:Drivers/lvgl/src/extra/themes/mono/lv_theme_mono.c ****     }
 1129              		.loc 1 378 38 is_stmt 0 view .LVU350
 1130 05c8 2968     		ldr	r1, [r5]
 378:Drivers/lvgl/src/extra/themes/mono/lv_theme_mono.c ****     }
 1131              		.loc 1 378 9 view .LVU351
 1132 05ca 0822     		movs	r2, #8
 1133 05cc 4031     		adds	r1, r1, #64
 1134 05ce 2046     		mov	r0, r4
 1135 05d0 FFF7FEFF 		bl	lv_obj_add_style
 1136              	.LVL128:
 1137 05d4 28E5     		b	.L1
 1138              	.L19:
 380:Drivers/lvgl/src/extra/themes/mono/lv_theme_mono.c ****         lv_obj_add_style(obj, &styles->card, 0);
 1139              		.loc 1 380 10 is_stmt 1 view .LVU352
 380:Drivers/lvgl/src/extra/themes/mono/lv_theme_mono.c ****         lv_obj_add_style(obj, &styles->card, 0);
 1140              		.loc 1 380 13 is_stmt 0 view .LVU353
 1141 05d6 2649     		ldr	r1, .L44+52
 1142 05d8 2046     		mov	r0, r4
 1143 05da FFF7FEFF 		bl	lv_obj_check_type
 1144              	.LVL129:
 380:Drivers/lvgl/src/extra/themes/mono/lv_theme_mono.c ****         lv_obj_add_style(obj, &styles->card, 0);
 1145              		.loc 1 380 12 view .LVU354
 1146 05de 0028     		cmp	r0, #0
 1147 05e0 4CD0     		beq	.L20
 381:Drivers/lvgl/src/extra/themes/mono/lv_theme_mono.c ****         lv_obj_add_style(obj, &styles->large_line_space, 0);
 1148              		.loc 1 381 9 is_stmt 1 view .LVU355
 381:Drivers/lvgl/src/extra/themes/mono/lv_theme_mono.c ****         lv_obj_add_style(obj, &styles->large_line_space, 0);
 1149              		.loc 1 381 38 is_stmt 0 view .LVU356
 1150 05e2 174D     		ldr	r5, .L44+4
 1151 05e4 2968     		ldr	r1, [r5]
 381:Drivers/lvgl/src/extra/themes/mono/lv_theme_mono.c ****         lv_obj_add_style(obj, &styles->large_line_space, 0);
 1152              		.loc 1 381 9 view .LVU357
 1153 05e6 0022     		movs	r2, #0
 1154 05e8 0831     		adds	r1, r1, #8
 1155 05ea 2046     		mov	r0, r4
 1156 05ec FFF7FEFF 		bl	lv_obj_add_style
 1157              	.LVL130:
 382:Drivers/lvgl/src/extra/themes/mono/lv_theme_mono.c ****         lv_obj_add_style(obj, &styles->scrollbar, LV_PART_SCROLLBAR);
 1158              		.loc 1 382 9 is_stmt 1 view .LVU358
 382:Drivers/lvgl/src/extra/themes/mono/lv_theme_mono.c ****         lv_obj_add_style(obj, &styles->scrollbar, LV_PART_SCROLLBAR);
 1159              		.loc 1 382 38 is_stmt 0 view .LVU359
 1160 05f0 2968     		ldr	r1, [r5]
 382:Drivers/lvgl/src/extra/themes/mono/lv_theme_mono.c ****         lv_obj_add_style(obj, &styles->scrollbar, LV_PART_SCROLLBAR);
 1161              		.loc 1 382 9 view .LVU360
 1162 05f2 0022     		movs	r2, #0
 1163 05f4 7031     		adds	r1, r1, #112
 1164 05f6 2046     		mov	r0, r4
ARM GAS  /var/folders/0z/tsy30v1j4xl4_7kw94k978ww0000gn/T//ccjTTGyJ.s 			page 36


 1165 05f8 FFF7FEFF 		bl	lv_obj_add_style
 1166              	.LVL131:
 383:Drivers/lvgl/src/extra/themes/mono/lv_theme_mono.c ****         lv_obj_add_style(obj, &styles->inv, LV_PART_SELECTED | LV_STATE_CHECKED);
 1167              		.loc 1 383 9 is_stmt 1 view .LVU361
 383:Drivers/lvgl/src/extra/themes/mono/lv_theme_mono.c ****         lv_obj_add_style(obj, &styles->inv, LV_PART_SELECTED | LV_STATE_CHECKED);
 1168              		.loc 1 383 38 is_stmt 0 view .LVU362
 1169 05fc 2968     		ldr	r1, [r5]
 383:Drivers/lvgl/src/extra/themes/mono/lv_theme_mono.c ****         lv_obj_add_style(obj, &styles->inv, LV_PART_SELECTED | LV_STATE_CHECKED);
 1170              		.loc 1 383 9 view .LVU363
 1171 05fe 4FF48032 		mov	r2, #65536
 1172 0602 1031     		adds	r1, r1, #16
 1173 0604 2046     		mov	r0, r4
 1174 0606 FFF7FEFF 		bl	lv_obj_add_style
 1175              	.LVL132:
 384:Drivers/lvgl/src/extra/themes/mono/lv_theme_mono.c ****         lv_obj_add_style(obj, &styles->pr, LV_PART_SELECTED | LV_STATE_PRESSED);
 1176              		.loc 1 384 9 is_stmt 1 view .LVU364
 384:Drivers/lvgl/src/extra/themes/mono/lv_theme_mono.c ****         lv_obj_add_style(obj, &styles->pr, LV_PART_SELECTED | LV_STATE_PRESSED);
 1177              		.loc 1 384 38 is_stmt 0 view .LVU365
 1178 060a 2968     		ldr	r1, [r5]
 384:Drivers/lvgl/src/extra/themes/mono/lv_theme_mono.c ****         lv_obj_add_style(obj, &styles->pr, LV_PART_SELECTED | LV_STATE_PRESSED);
 1179              		.loc 1 384 9 view .LVU366
 1180 060c 194A     		ldr	r2, .L44+56
 1181 060e 2831     		adds	r1, r1, #40
 1182 0610 2046     		mov	r0, r4
 1183 0612 FFF7FEFF 		bl	lv_obj_add_style
 1184              	.LVL133:
 385:Drivers/lvgl/src/extra/themes/mono/lv_theme_mono.c ****         lv_obj_add_style(obj, &styles->focus, LV_STATE_FOCUS_KEY);
 1185              		.loc 1 385 9 is_stmt 1 view .LVU367
 385:Drivers/lvgl/src/extra/themes/mono/lv_theme_mono.c ****         lv_obj_add_style(obj, &styles->focus, LV_STATE_FOCUS_KEY);
 1186              		.loc 1 385 38 is_stmt 0 view .LVU368
 1187 0616 2968     		ldr	r1, [r5]
 385:Drivers/lvgl/src/extra/themes/mono/lv_theme_mono.c ****         lv_obj_add_style(obj, &styles->focus, LV_STATE_FOCUS_KEY);
 1188              		.loc 1 385 9 view .LVU369
 1189 0618 174A     		ldr	r2, .L44+60
 1190 061a 2031     		adds	r1, r1, #32
 1191 061c 2046     		mov	r0, r4
 1192 061e FFF7FEFF 		bl	lv_obj_add_style
 1193              	.LVL134:
 386:Drivers/lvgl/src/extra/themes/mono/lv_theme_mono.c ****         lv_obj_add_style(obj, &styles->edit, LV_STATE_EDITED);
 1194              		.loc 1 386 9 is_stmt 1 view .LVU370
 386:Drivers/lvgl/src/extra/themes/mono/lv_theme_mono.c ****         lv_obj_add_style(obj, &styles->edit, LV_STATE_EDITED);
 1195              		.loc 1 386 38 is_stmt 0 view .LVU371
 1196 0622 2968     		ldr	r1, [r5]
 386:Drivers/lvgl/src/extra/themes/mono/lv_theme_mono.c ****         lv_obj_add_style(obj, &styles->edit, LV_STATE_EDITED);
 1197              		.loc 1 386 9 view .LVU372
 1198 0624 0422     		movs	r2, #4
 1199 0626 3831     		adds	r1, r1, #56
 1200 0628 2046     		mov	r0, r4
 1201 062a FFF7FEFF 		bl	lv_obj_add_style
 1202              	.LVL135:
 387:Drivers/lvgl/src/extra/themes/mono/lv_theme_mono.c ****     }
 1203              		.loc 1 387 9 is_stmt 1 view .LVU373
 387:Drivers/lvgl/src/extra/themes/mono/lv_theme_mono.c ****     }
 1204              		.loc 1 387 38 is_stmt 0 view .LVU374
 1205 062e 2968     		ldr	r1, [r5]
 387:Drivers/lvgl/src/extra/themes/mono/lv_theme_mono.c ****     }
 1206              		.loc 1 387 9 view .LVU375
ARM GAS  /var/folders/0z/tsy30v1j4xl4_7kw94k978ww0000gn/T//ccjTTGyJ.s 			page 37


 1207 0630 0822     		movs	r2, #8
 1208 0632 4031     		adds	r1, r1, #64
 1209 0634 2046     		mov	r0, r4
 1210 0636 FFF7FEFF 		bl	lv_obj_add_style
 1211              	.LVL136:
 1212 063a F5E4     		b	.L1
 1213              	.L45:
 1214              		.align	2
 1215              	.L44:
 1216 063c 00000000 		.word	lv_slider_class
 1217 0640 00000000 		.word	.LANCHOR0
 1218 0644 00000000 		.word	lv_table_class
 1219 0648 20000500 		.word	327712
 1220 064c 04000500 		.word	327684
 1221 0650 00000000 		.word	lv_checkbox_class
 1222 0654 80000200 		.word	131200
 1223 0658 01000200 		.word	131073
 1224 065c 20000200 		.word	131104
 1225 0660 00000000 		.word	lv_switch_class
 1226 0664 00000000 		.word	lv_chart_class
 1227 0668 00000000 		.word	lv_roller_class
 1228 066c 00000000 		.word	lv_dropdown_class
 1229 0670 00000000 		.word	lv_dropdownlist_class
 1230 0674 01000400 		.word	262145
 1231 0678 20000400 		.word	262176
 1232              	.L20:
 392:Drivers/lvgl/src/extra/themes/mono/lv_theme_mono.c ****         lv_obj_add_style(obj, &styles->card, 0);
 1233              		.loc 1 392 10 is_stmt 1 view .LVU376
 392:Drivers/lvgl/src/extra/themes/mono/lv_theme_mono.c ****         lv_obj_add_style(obj, &styles->card, 0);
 1234              		.loc 1 392 13 is_stmt 0 view .LVU377
 1235 067c B449     		ldr	r1, .L46
 1236 067e 2046     		mov	r0, r4
 1237 0680 FFF7FEFF 		bl	lv_obj_check_type
 1238              	.LVL137:
 392:Drivers/lvgl/src/extra/themes/mono/lv_theme_mono.c ****         lv_obj_add_style(obj, &styles->card, 0);
 1239              		.loc 1 392 12 view .LVU378
 1240 0684 78B3     		cbz	r0, .L21
 393:Drivers/lvgl/src/extra/themes/mono/lv_theme_mono.c ****         lv_obj_add_style(obj, &styles->inv, LV_PART_INDICATOR);
 1241              		.loc 1 393 9 is_stmt 1 view .LVU379
 393:Drivers/lvgl/src/extra/themes/mono/lv_theme_mono.c ****         lv_obj_add_style(obj, &styles->inv, LV_PART_INDICATOR);
 1242              		.loc 1 393 38 is_stmt 0 view .LVU380
 1243 0686 B34D     		ldr	r5, .L46+4
 1244 0688 2968     		ldr	r1, [r5]
 393:Drivers/lvgl/src/extra/themes/mono/lv_theme_mono.c ****         lv_obj_add_style(obj, &styles->inv, LV_PART_INDICATOR);
 1245              		.loc 1 393 9 view .LVU381
 1246 068a 0022     		movs	r2, #0
 1247 068c 0831     		adds	r1, r1, #8
 1248 068e 2046     		mov	r0, r4
 1249 0690 FFF7FEFF 		bl	lv_obj_add_style
 1250              	.LVL138:
 394:Drivers/lvgl/src/extra/themes/mono/lv_theme_mono.c ****         lv_obj_add_style(obj, &styles->pad_zero, LV_PART_INDICATOR);
 1251              		.loc 1 394 9 is_stmt 1 view .LVU382
 394:Drivers/lvgl/src/extra/themes/mono/lv_theme_mono.c ****         lv_obj_add_style(obj, &styles->pad_zero, LV_PART_INDICATOR);
 1252              		.loc 1 394 38 is_stmt 0 view .LVU383
 1253 0694 2968     		ldr	r1, [r5]
 394:Drivers/lvgl/src/extra/themes/mono/lv_theme_mono.c ****         lv_obj_add_style(obj, &styles->pad_zero, LV_PART_INDICATOR);
 1254              		.loc 1 394 9 view .LVU384
ARM GAS  /var/folders/0z/tsy30v1j4xl4_7kw94k978ww0000gn/T//ccjTTGyJ.s 			page 38


 1255 0696 4FF40032 		mov	r2, #131072
 1256 069a 2831     		adds	r1, r1, #40
 1257 069c 2046     		mov	r0, r4
 1258 069e FFF7FEFF 		bl	lv_obj_add_style
 1259              	.LVL139:
 395:Drivers/lvgl/src/extra/themes/mono/lv_theme_mono.c ****         lv_obj_add_style(obj, &styles->card, LV_PART_KNOB);
 1260              		.loc 1 395 9 is_stmt 1 view .LVU385
 395:Drivers/lvgl/src/extra/themes/mono/lv_theme_mono.c ****         lv_obj_add_style(obj, &styles->card, LV_PART_KNOB);
 1261              		.loc 1 395 38 is_stmt 0 view .LVU386
 1262 06a2 2968     		ldr	r1, [r5]
 395:Drivers/lvgl/src/extra/themes/mono/lv_theme_mono.c ****         lv_obj_add_style(obj, &styles->card, LV_PART_KNOB);
 1263              		.loc 1 395 9 view .LVU387
 1264 06a4 4FF40032 		mov	r2, #131072
 1265 06a8 5031     		adds	r1, r1, #80
 1266 06aa 2046     		mov	r0, r4
 1267 06ac FFF7FEFF 		bl	lv_obj_add_style
 1268              	.LVL140:
 396:Drivers/lvgl/src/extra/themes/mono/lv_theme_mono.c ****         lv_obj_add_style(obj, &styles->radius_circle, LV_PART_KNOB);
 1269              		.loc 1 396 9 is_stmt 1 view .LVU388
 396:Drivers/lvgl/src/extra/themes/mono/lv_theme_mono.c ****         lv_obj_add_style(obj, &styles->radius_circle, LV_PART_KNOB);
 1270              		.loc 1 396 38 is_stmt 0 view .LVU389
 1271 06b0 2968     		ldr	r1, [r5]
 396:Drivers/lvgl/src/extra/themes/mono/lv_theme_mono.c ****         lv_obj_add_style(obj, &styles->radius_circle, LV_PART_KNOB);
 1272              		.loc 1 396 9 view .LVU390
 1273 06b2 4FF44032 		mov	r2, #196608
 1274 06b6 0831     		adds	r1, r1, #8
 1275 06b8 2046     		mov	r0, r4
 1276 06ba FFF7FEFF 		bl	lv_obj_add_style
 1277              	.LVL141:
 397:Drivers/lvgl/src/extra/themes/mono/lv_theme_mono.c ****         lv_obj_add_style(obj, &styles->focus, LV_STATE_FOCUS_KEY);
 1278              		.loc 1 397 9 is_stmt 1 view .LVU391
 397:Drivers/lvgl/src/extra/themes/mono/lv_theme_mono.c ****         lv_obj_add_style(obj, &styles->focus, LV_STATE_FOCUS_KEY);
 1279              		.loc 1 397 38 is_stmt 0 view .LVU392
 1280 06be 2968     		ldr	r1, [r5]
 397:Drivers/lvgl/src/extra/themes/mono/lv_theme_mono.c ****         lv_obj_add_style(obj, &styles->focus, LV_STATE_FOCUS_KEY);
 1281              		.loc 1 397 9 view .LVU393
 1282 06c0 4FF44032 		mov	r2, #196608
 1283 06c4 6031     		adds	r1, r1, #96
 1284 06c6 2046     		mov	r0, r4
 1285 06c8 FFF7FEFF 		bl	lv_obj_add_style
 1286              	.LVL142:
 398:Drivers/lvgl/src/extra/themes/mono/lv_theme_mono.c ****         lv_obj_add_style(obj, &styles->edit, LV_STATE_EDITED);
 1287              		.loc 1 398 9 is_stmt 1 view .LVU394
 398:Drivers/lvgl/src/extra/themes/mono/lv_theme_mono.c ****         lv_obj_add_style(obj, &styles->edit, LV_STATE_EDITED);
 1288              		.loc 1 398 38 is_stmt 0 view .LVU395
 1289 06cc 2968     		ldr	r1, [r5]
 398:Drivers/lvgl/src/extra/themes/mono/lv_theme_mono.c ****         lv_obj_add_style(obj, &styles->edit, LV_STATE_EDITED);
 1290              		.loc 1 398 9 view .LVU396
 1291 06ce 0422     		movs	r2, #4
 1292 06d0 3831     		adds	r1, r1, #56
 1293 06d2 2046     		mov	r0, r4
 1294 06d4 FFF7FEFF 		bl	lv_obj_add_style
 1295              	.LVL143:
 399:Drivers/lvgl/src/extra/themes/mono/lv_theme_mono.c ****     }
 1296              		.loc 1 399 9 is_stmt 1 view .LVU397
 399:Drivers/lvgl/src/extra/themes/mono/lv_theme_mono.c ****     }
 1297              		.loc 1 399 38 is_stmt 0 view .LVU398
ARM GAS  /var/folders/0z/tsy30v1j4xl4_7kw94k978ww0000gn/T//ccjTTGyJ.s 			page 39


 1298 06d8 2968     		ldr	r1, [r5]
 399:Drivers/lvgl/src/extra/themes/mono/lv_theme_mono.c ****     }
 1299              		.loc 1 399 9 view .LVU399
 1300 06da 0822     		movs	r2, #8
 1301 06dc 4031     		adds	r1, r1, #64
 1302 06de 2046     		mov	r0, r4
 1303 06e0 FFF7FEFF 		bl	lv_obj_add_style
 1304              	.LVL144:
 1305 06e4 A0E4     		b	.L1
 1306              	.L21:
 404:Drivers/lvgl/src/extra/themes/mono/lv_theme_mono.c ****         lv_obj_add_style(obj, &styles->card, 0);
 1307              		.loc 1 404 10 is_stmt 1 view .LVU400
 404:Drivers/lvgl/src/extra/themes/mono/lv_theme_mono.c ****         lv_obj_add_style(obj, &styles->card, 0);
 1308              		.loc 1 404 13 is_stmt 0 view .LVU401
 1309 06e6 9C49     		ldr	r1, .L46+8
 1310 06e8 2046     		mov	r0, r4
 1311 06ea FFF7FEFF 		bl	lv_obj_check_type
 1312              	.LVL145:
 404:Drivers/lvgl/src/extra/themes/mono/lv_theme_mono.c ****         lv_obj_add_style(obj, &styles->card, 0);
 1313              		.loc 1 404 12 view .LVU402
 1314 06ee 38B1     		cbz	r0, .L22
 405:Drivers/lvgl/src/extra/themes/mono/lv_theme_mono.c ****     }
 1315              		.loc 1 405 9 is_stmt 1 view .LVU403
 405:Drivers/lvgl/src/extra/themes/mono/lv_theme_mono.c ****     }
 1316              		.loc 1 405 38 is_stmt 0 view .LVU404
 1317 06f0 984B     		ldr	r3, .L46+4
 1318 06f2 1968     		ldr	r1, [r3]
 405:Drivers/lvgl/src/extra/themes/mono/lv_theme_mono.c ****     }
 1319              		.loc 1 405 9 view .LVU405
 1320 06f4 0022     		movs	r2, #0
 1321 06f6 0831     		adds	r1, r1, #8
 1322 06f8 2046     		mov	r0, r4
 1323 06fa FFF7FEFF 		bl	lv_obj_add_style
 1324              	.LVL146:
 1325 06fe 93E4     		b	.L1
 1326              	.L22:
 410:Drivers/lvgl/src/extra/themes/mono/lv_theme_mono.c ****         lv_obj_add_style(obj, &styles->card, 0);
 1327              		.loc 1 410 10 is_stmt 1 view .LVU406
 410:Drivers/lvgl/src/extra/themes/mono/lv_theme_mono.c ****         lv_obj_add_style(obj, &styles->card, 0);
 1328              		.loc 1 410 13 is_stmt 0 view .LVU407
 1329 0700 9649     		ldr	r1, .L46+12
 1330 0702 2046     		mov	r0, r4
 1331 0704 FFF7FEFF 		bl	lv_obj_check_type
 1332              	.LVL147:
 410:Drivers/lvgl/src/extra/themes/mono/lv_theme_mono.c ****         lv_obj_add_style(obj, &styles->card, 0);
 1333              		.loc 1 410 12 view .LVU408
 1334 0708 00B3     		cbz	r0, .L23
 411:Drivers/lvgl/src/extra/themes/mono/lv_theme_mono.c ****         lv_obj_add_style(obj, &styles->scrollbar, LV_PART_SCROLLBAR);
 1335              		.loc 1 411 9 is_stmt 1 view .LVU409
 411:Drivers/lvgl/src/extra/themes/mono/lv_theme_mono.c ****         lv_obj_add_style(obj, &styles->scrollbar, LV_PART_SCROLLBAR);
 1336              		.loc 1 411 38 is_stmt 0 view .LVU410
 1337 070a 924D     		ldr	r5, .L46+4
 1338 070c 2968     		ldr	r1, [r5]
 411:Drivers/lvgl/src/extra/themes/mono/lv_theme_mono.c ****         lv_obj_add_style(obj, &styles->scrollbar, LV_PART_SCROLLBAR);
 1339              		.loc 1 411 9 view .LVU411
 1340 070e 0022     		movs	r2, #0
 1341 0710 0831     		adds	r1, r1, #8
ARM GAS  /var/folders/0z/tsy30v1j4xl4_7kw94k978ww0000gn/T//ccjTTGyJ.s 			page 40


 1342 0712 2046     		mov	r0, r4
 1343 0714 FFF7FEFF 		bl	lv_obj_add_style
 1344              	.LVL148:
 412:Drivers/lvgl/src/extra/themes/mono/lv_theme_mono.c ****         lv_obj_add_style(obj, &styles->ta_cursor, LV_PART_CURSOR | LV_STATE_FOCUSED);
 1345              		.loc 1 412 9 is_stmt 1 view .LVU412
 412:Drivers/lvgl/src/extra/themes/mono/lv_theme_mono.c ****         lv_obj_add_style(obj, &styles->ta_cursor, LV_PART_CURSOR | LV_STATE_FOCUSED);
 1346              		.loc 1 412 38 is_stmt 0 view .LVU413
 1347 0718 2968     		ldr	r1, [r5]
 412:Drivers/lvgl/src/extra/themes/mono/lv_theme_mono.c ****         lv_obj_add_style(obj, &styles->ta_cursor, LV_PART_CURSOR | LV_STATE_FOCUSED);
 1348              		.loc 1 412 9 view .LVU414
 1349 071a 4FF48032 		mov	r2, #65536
 1350 071e 1031     		adds	r1, r1, #16
 1351 0720 2046     		mov	r0, r4
 1352 0722 FFF7FEFF 		bl	lv_obj_add_style
 1353              	.LVL149:
 413:Drivers/lvgl/src/extra/themes/mono/lv_theme_mono.c ****         lv_obj_add_style(obj, &styles->focus, LV_STATE_FOCUSED);
 1354              		.loc 1 413 9 is_stmt 1 view .LVU415
 413:Drivers/lvgl/src/extra/themes/mono/lv_theme_mono.c ****         lv_obj_add_style(obj, &styles->focus, LV_STATE_FOCUSED);
 1355              		.loc 1 413 38 is_stmt 0 view .LVU416
 1356 0726 2968     		ldr	r1, [r5]
 413:Drivers/lvgl/src/extra/themes/mono/lv_theme_mono.c ****         lv_obj_add_style(obj, &styles->focus, LV_STATE_FOCUSED);
 1357              		.loc 1 413 9 view .LVU417
 1358 0728 8D4A     		ldr	r2, .L46+16
 1359 072a 8031     		adds	r1, r1, #128
 1360 072c 2046     		mov	r0, r4
 1361 072e FFF7FEFF 		bl	lv_obj_add_style
 1362              	.LVL150:
 414:Drivers/lvgl/src/extra/themes/mono/lv_theme_mono.c ****         lv_obj_add_style(obj, &styles->edit, LV_STATE_EDITED);
 1363              		.loc 1 414 9 is_stmt 1 view .LVU418
 414:Drivers/lvgl/src/extra/themes/mono/lv_theme_mono.c ****         lv_obj_add_style(obj, &styles->edit, LV_STATE_EDITED);
 1364              		.loc 1 414 38 is_stmt 0 view .LVU419
 1365 0732 2968     		ldr	r1, [r5]
 414:Drivers/lvgl/src/extra/themes/mono/lv_theme_mono.c ****         lv_obj_add_style(obj, &styles->edit, LV_STATE_EDITED);
 1366              		.loc 1 414 9 view .LVU420
 1367 0734 0222     		movs	r2, #2
 1368 0736 3831     		adds	r1, r1, #56
 1369 0738 2046     		mov	r0, r4
 1370 073a FFF7FEFF 		bl	lv_obj_add_style
 1371              	.LVL151:
 415:Drivers/lvgl/src/extra/themes/mono/lv_theme_mono.c ****     }
 1372              		.loc 1 415 9 is_stmt 1 view .LVU421
 415:Drivers/lvgl/src/extra/themes/mono/lv_theme_mono.c ****     }
 1373              		.loc 1 415 38 is_stmt 0 view .LVU422
 1374 073e 2968     		ldr	r1, [r5]
 415:Drivers/lvgl/src/extra/themes/mono/lv_theme_mono.c ****     }
 1375              		.loc 1 415 9 view .LVU423
 1376 0740 0822     		movs	r2, #8
 1377 0742 4031     		adds	r1, r1, #64
 1378 0744 2046     		mov	r0, r4
 1379 0746 FFF7FEFF 		bl	lv_obj_add_style
 1380              	.LVL152:
 1381 074a 6DE4     		b	.L1
 1382              	.L23:
 420:Drivers/lvgl/src/extra/themes/mono/lv_theme_mono.c ****         lv_obj_add_style(obj, &styles->card, 0);
 1383              		.loc 1 420 10 is_stmt 1 view .LVU424
 420:Drivers/lvgl/src/extra/themes/mono/lv_theme_mono.c ****         lv_obj_add_style(obj, &styles->card, 0);
 1384              		.loc 1 420 13 is_stmt 0 view .LVU425
ARM GAS  /var/folders/0z/tsy30v1j4xl4_7kw94k978ww0000gn/T//ccjTTGyJ.s 			page 41


 1385 074c 8549     		ldr	r1, .L46+20
 1386 074e 2046     		mov	r0, r4
 1387 0750 FFF7FEFF 		bl	lv_obj_check_type
 1388              	.LVL153:
 420:Drivers/lvgl/src/extra/themes/mono/lv_theme_mono.c ****         lv_obj_add_style(obj, &styles->card, 0);
 1389              		.loc 1 420 12 view .LVU426
 1390 0754 58B3     		cbz	r0, .L24
 421:Drivers/lvgl/src/extra/themes/mono/lv_theme_mono.c ****         lv_obj_add_style(obj, &styles->no_radius, 0);
 1391              		.loc 1 421 9 is_stmt 1 view .LVU427
 421:Drivers/lvgl/src/extra/themes/mono/lv_theme_mono.c ****         lv_obj_add_style(obj, &styles->no_radius, 0);
 1392              		.loc 1 421 38 is_stmt 0 view .LVU428
 1393 0756 7F4D     		ldr	r5, .L46+4
 1394 0758 2968     		ldr	r1, [r5]
 421:Drivers/lvgl/src/extra/themes/mono/lv_theme_mono.c ****         lv_obj_add_style(obj, &styles->no_radius, 0);
 1395              		.loc 1 421 9 view .LVU429
 1396 075a 0022     		movs	r2, #0
 1397 075c 0831     		adds	r1, r1, #8
 1398 075e 2046     		mov	r0, r4
 1399 0760 FFF7FEFF 		bl	lv_obj_add_style
 1400              	.LVL154:
 422:Drivers/lvgl/src/extra/themes/mono/lv_theme_mono.c ****         lv_obj_add_style(obj, &styles->pr, LV_PART_ITEMS | LV_STATE_PRESSED);
 1401              		.loc 1 422 9 is_stmt 1 view .LVU430
 422:Drivers/lvgl/src/extra/themes/mono/lv_theme_mono.c ****         lv_obj_add_style(obj, &styles->pr, LV_PART_ITEMS | LV_STATE_PRESSED);
 1402              		.loc 1 422 38 is_stmt 0 view .LVU431
 1403 0764 2968     		ldr	r1, [r5]
 422:Drivers/lvgl/src/extra/themes/mono/lv_theme_mono.c ****         lv_obj_add_style(obj, &styles->pr, LV_PART_ITEMS | LV_STATE_PRESSED);
 1404              		.loc 1 422 9 view .LVU432
 1405 0766 0022     		movs	r2, #0
 1406 0768 5831     		adds	r1, r1, #88
 1407 076a 2046     		mov	r0, r4
 1408 076c FFF7FEFF 		bl	lv_obj_add_style
 1409              	.LVL155:
 423:Drivers/lvgl/src/extra/themes/mono/lv_theme_mono.c ****         lv_obj_add_style(obj, &styles->disabled, LV_PART_ITEMS | LV_STATE_DISABLED);
 1410              		.loc 1 423 9 is_stmt 1 view .LVU433
 423:Drivers/lvgl/src/extra/themes/mono/lv_theme_mono.c ****         lv_obj_add_style(obj, &styles->disabled, LV_PART_ITEMS | LV_STATE_DISABLED);
 1411              		.loc 1 423 38 is_stmt 0 view .LVU434
 1412 0770 2968     		ldr	r1, [r5]
 423:Drivers/lvgl/src/extra/themes/mono/lv_theme_mono.c ****         lv_obj_add_style(obj, &styles->disabled, LV_PART_ITEMS | LV_STATE_DISABLED);
 1413              		.loc 1 423 9 view .LVU435
 1414 0772 7D4A     		ldr	r2, .L46+24
 1415 0774 2031     		adds	r1, r1, #32
 1416 0776 2046     		mov	r0, r4
 1417 0778 FFF7FEFF 		bl	lv_obj_add_style
 1418              	.LVL156:
 424:Drivers/lvgl/src/extra/themes/mono/lv_theme_mono.c ****         lv_obj_add_style(obj, &styles->focus, LV_STATE_FOCUS_KEY);
 1419              		.loc 1 424 9 is_stmt 1 view .LVU436
 424:Drivers/lvgl/src/extra/themes/mono/lv_theme_mono.c ****         lv_obj_add_style(obj, &styles->focus, LV_STATE_FOCUS_KEY);
 1420              		.loc 1 424 38 is_stmt 0 view .LVU437
 1421 077c 2968     		ldr	r1, [r5]
 424:Drivers/lvgl/src/extra/themes/mono/lv_theme_mono.c ****         lv_obj_add_style(obj, &styles->focus, LV_STATE_FOCUS_KEY);
 1422              		.loc 1 424 9 view .LVU438
 1423 077e 7B4A     		ldr	r2, .L46+28
 1424 0780 3031     		adds	r1, r1, #48
 1425 0782 2046     		mov	r0, r4
 1426 0784 FFF7FEFF 		bl	lv_obj_add_style
 1427              	.LVL157:
 425:Drivers/lvgl/src/extra/themes/mono/lv_theme_mono.c ****         lv_obj_add_style(obj, &styles->edit, LV_STATE_EDITED);
ARM GAS  /var/folders/0z/tsy30v1j4xl4_7kw94k978ww0000gn/T//ccjTTGyJ.s 			page 42


 1428              		.loc 1 425 9 is_stmt 1 view .LVU439
 425:Drivers/lvgl/src/extra/themes/mono/lv_theme_mono.c ****         lv_obj_add_style(obj, &styles->edit, LV_STATE_EDITED);
 1429              		.loc 1 425 38 is_stmt 0 view .LVU440
 1430 0788 2968     		ldr	r1, [r5]
 425:Drivers/lvgl/src/extra/themes/mono/lv_theme_mono.c ****         lv_obj_add_style(obj, &styles->edit, LV_STATE_EDITED);
 1431              		.loc 1 425 9 view .LVU441
 1432 078a 0422     		movs	r2, #4
 1433 078c 3831     		adds	r1, r1, #56
 1434 078e 2046     		mov	r0, r4
 1435 0790 FFF7FEFF 		bl	lv_obj_add_style
 1436              	.LVL158:
 426:Drivers/lvgl/src/extra/themes/mono/lv_theme_mono.c ****         lv_obj_add_style(obj, &styles->large_border, LV_PART_ITEMS | LV_STATE_FOCUS_KEY);
 1437              		.loc 1 426 9 is_stmt 1 view .LVU442
 426:Drivers/lvgl/src/extra/themes/mono/lv_theme_mono.c ****         lv_obj_add_style(obj, &styles->large_border, LV_PART_ITEMS | LV_STATE_FOCUS_KEY);
 1438              		.loc 1 426 38 is_stmt 0 view .LVU443
 1439 0794 2968     		ldr	r1, [r5]
 426:Drivers/lvgl/src/extra/themes/mono/lv_theme_mono.c ****         lv_obj_add_style(obj, &styles->large_border, LV_PART_ITEMS | LV_STATE_FOCUS_KEY);
 1440              		.loc 1 426 9 view .LVU444
 1441 0796 0822     		movs	r2, #8
 1442 0798 4031     		adds	r1, r1, #64
 1443 079a 2046     		mov	r0, r4
 1444 079c FFF7FEFF 		bl	lv_obj_add_style
 1445              	.LVL159:
 427:Drivers/lvgl/src/extra/themes/mono/lv_theme_mono.c ****     }
 1446              		.loc 1 427 9 is_stmt 1 view .LVU445
 427:Drivers/lvgl/src/extra/themes/mono/lv_theme_mono.c ****     }
 1447              		.loc 1 427 38 is_stmt 0 view .LVU446
 1448 07a0 2968     		ldr	r1, [r5]
 427:Drivers/lvgl/src/extra/themes/mono/lv_theme_mono.c ****     }
 1449              		.loc 1 427 9 view .LVU447
 1450 07a2 734A     		ldr	r2, .L46+32
 1451 07a4 6831     		adds	r1, r1, #104
 1452 07a6 2046     		mov	r0, r4
 1453 07a8 FFF7FEFF 		bl	lv_obj_add_style
 1454              	.LVL160:
 1455 07ac 3CE4     		b	.L1
 1456              	.L24:
 432:Drivers/lvgl/src/extra/themes/mono/lv_theme_mono.c ****         lv_obj_add_style(obj, &styles->card, 0);
 1457              		.loc 1 432 10 is_stmt 1 view .LVU448
 432:Drivers/lvgl/src/extra/themes/mono/lv_theme_mono.c ****         lv_obj_add_style(obj, &styles->card, 0);
 1458              		.loc 1 432 13 is_stmt 0 view .LVU449
 1459 07ae 7149     		ldr	r1, .L46+36
 1460 07b0 2046     		mov	r0, r4
 1461 07b2 FFF7FEFF 		bl	lv_obj_check_type
 1462              	.LVL161:
 432:Drivers/lvgl/src/extra/themes/mono/lv_theme_mono.c ****         lv_obj_add_style(obj, &styles->card, 0);
 1463              		.loc 1 432 12 view .LVU450
 1464 07b6 60B3     		cbz	r0, .L25
 433:Drivers/lvgl/src/extra/themes/mono/lv_theme_mono.c ****         lv_obj_add_style(obj, &styles->card, LV_PART_ITEMS);
 1465              		.loc 1 433 9 is_stmt 1 view .LVU451
 433:Drivers/lvgl/src/extra/themes/mono/lv_theme_mono.c ****         lv_obj_add_style(obj, &styles->card, LV_PART_ITEMS);
 1466              		.loc 1 433 38 is_stmt 0 view .LVU452
 1467 07b8 664D     		ldr	r5, .L46+4
 1468 07ba 2968     		ldr	r1, [r5]
 433:Drivers/lvgl/src/extra/themes/mono/lv_theme_mono.c ****         lv_obj_add_style(obj, &styles->card, LV_PART_ITEMS);
 1469              		.loc 1 433 9 view .LVU453
 1470 07bc 0022     		movs	r2, #0
ARM GAS  /var/folders/0z/tsy30v1j4xl4_7kw94k978ww0000gn/T//ccjTTGyJ.s 			page 43


 1471 07be 0831     		adds	r1, r1, #8
 1472 07c0 2046     		mov	r0, r4
 1473 07c2 FFF7FEFF 		bl	lv_obj_add_style
 1474              	.LVL162:
 434:Drivers/lvgl/src/extra/themes/mono/lv_theme_mono.c ****         lv_obj_add_style(obj, &styles->pr, LV_PART_ITEMS | LV_STATE_PRESSED);
 1475              		.loc 1 434 9 is_stmt 1 view .LVU454
 434:Drivers/lvgl/src/extra/themes/mono/lv_theme_mono.c ****         lv_obj_add_style(obj, &styles->pr, LV_PART_ITEMS | LV_STATE_PRESSED);
 1476              		.loc 1 434 38 is_stmt 0 view .LVU455
 1477 07c6 2968     		ldr	r1, [r5]
 434:Drivers/lvgl/src/extra/themes/mono/lv_theme_mono.c ****         lv_obj_add_style(obj, &styles->pr, LV_PART_ITEMS | LV_STATE_PRESSED);
 1478              		.loc 1 434 9 view .LVU456
 1479 07c8 4FF4A022 		mov	r2, #327680
 1480 07cc 0831     		adds	r1, r1, #8
 1481 07ce 2046     		mov	r0, r4
 1482 07d0 FFF7FEFF 		bl	lv_obj_add_style
 1483              	.LVL163:
 435:Drivers/lvgl/src/extra/themes/mono/lv_theme_mono.c ****         lv_obj_add_style(obj, &styles->inv, LV_PART_ITEMS | LV_STATE_CHECKED);
 1484              		.loc 1 435 9 is_stmt 1 view .LVU457
 435:Drivers/lvgl/src/extra/themes/mono/lv_theme_mono.c ****         lv_obj_add_style(obj, &styles->inv, LV_PART_ITEMS | LV_STATE_CHECKED);
 1485              		.loc 1 435 38 is_stmt 0 view .LVU458
 1486 07d4 2968     		ldr	r1, [r5]
 435:Drivers/lvgl/src/extra/themes/mono/lv_theme_mono.c ****         lv_obj_add_style(obj, &styles->inv, LV_PART_ITEMS | LV_STATE_CHECKED);
 1487              		.loc 1 435 9 view .LVU459
 1488 07d6 644A     		ldr	r2, .L46+24
 1489 07d8 2031     		adds	r1, r1, #32
 1490 07da 2046     		mov	r0, r4
 1491 07dc FFF7FEFF 		bl	lv_obj_add_style
 1492              	.LVL164:
 436:Drivers/lvgl/src/extra/themes/mono/lv_theme_mono.c ****         lv_obj_add_style(obj, &styles->focus, LV_STATE_FOCUS_KEY);
 1493              		.loc 1 436 9 is_stmt 1 view .LVU460
 436:Drivers/lvgl/src/extra/themes/mono/lv_theme_mono.c ****         lv_obj_add_style(obj, &styles->focus, LV_STATE_FOCUS_KEY);
 1494              		.loc 1 436 38 is_stmt 0 view .LVU461
 1495 07e0 2968     		ldr	r1, [r5]
 436:Drivers/lvgl/src/extra/themes/mono/lv_theme_mono.c ****         lv_obj_add_style(obj, &styles->focus, LV_STATE_FOCUS_KEY);
 1496              		.loc 1 436 9 view .LVU462
 1497 07e2 654A     		ldr	r2, .L46+40
 1498 07e4 2831     		adds	r1, r1, #40
 1499 07e6 2046     		mov	r0, r4
 1500 07e8 FFF7FEFF 		bl	lv_obj_add_style
 1501              	.LVL165:
 437:Drivers/lvgl/src/extra/themes/mono/lv_theme_mono.c ****         lv_obj_add_style(obj, &styles->edit, LV_STATE_EDITED);
 1502              		.loc 1 437 9 is_stmt 1 view .LVU463
 437:Drivers/lvgl/src/extra/themes/mono/lv_theme_mono.c ****         lv_obj_add_style(obj, &styles->edit, LV_STATE_EDITED);
 1503              		.loc 1 437 38 is_stmt 0 view .LVU464
 1504 07ec 2968     		ldr	r1, [r5]
 437:Drivers/lvgl/src/extra/themes/mono/lv_theme_mono.c ****         lv_obj_add_style(obj, &styles->edit, LV_STATE_EDITED);
 1505              		.loc 1 437 9 view .LVU465
 1506 07ee 0422     		movs	r2, #4
 1507 07f0 3831     		adds	r1, r1, #56
 1508 07f2 2046     		mov	r0, r4
 1509 07f4 FFF7FEFF 		bl	lv_obj_add_style
 1510              	.LVL166:
 438:Drivers/lvgl/src/extra/themes/mono/lv_theme_mono.c ****         lv_obj_add_style(obj, &styles->large_border, LV_PART_ITEMS | LV_STATE_EDITED);
 1511              		.loc 1 438 9 is_stmt 1 view .LVU466
 438:Drivers/lvgl/src/extra/themes/mono/lv_theme_mono.c ****         lv_obj_add_style(obj, &styles->large_border, LV_PART_ITEMS | LV_STATE_EDITED);
 1512              		.loc 1 438 38 is_stmt 0 view .LVU467
 1513 07f8 2968     		ldr	r1, [r5]
ARM GAS  /var/folders/0z/tsy30v1j4xl4_7kw94k978ww0000gn/T//ccjTTGyJ.s 			page 44


 438:Drivers/lvgl/src/extra/themes/mono/lv_theme_mono.c ****         lv_obj_add_style(obj, &styles->large_border, LV_PART_ITEMS | LV_STATE_EDITED);
 1514              		.loc 1 438 9 view .LVU468
 1515 07fa 0822     		movs	r2, #8
 1516 07fc 4031     		adds	r1, r1, #64
 1517 07fe 2046     		mov	r0, r4
 1518 0800 FFF7FEFF 		bl	lv_obj_add_style
 1519              	.LVL167:
 439:Drivers/lvgl/src/extra/themes/mono/lv_theme_mono.c ****     }
 1520              		.loc 1 439 9 is_stmt 1 view .LVU469
 439:Drivers/lvgl/src/extra/themes/mono/lv_theme_mono.c ****     }
 1521              		.loc 1 439 38 is_stmt 0 view .LVU470
 1522 0804 2968     		ldr	r1, [r5]
 439:Drivers/lvgl/src/extra/themes/mono/lv_theme_mono.c ****     }
 1523              		.loc 1 439 9 view .LVU471
 1524 0806 5D4A     		ldr	r2, .L46+44
 1525 0808 6831     		adds	r1, r1, #104
 1526 080a 2046     		mov	r0, r4
 1527 080c FFF7FEFF 		bl	lv_obj_add_style
 1528              	.LVL168:
 1529 0810 0AE4     		b	.L1
 1530              	.L25:
 443:Drivers/lvgl/src/extra/themes/mono/lv_theme_mono.c ****         lv_obj_add_style(obj, &styles->card, 0);
 1531              		.loc 1 443 10 is_stmt 1 view .LVU472
 443:Drivers/lvgl/src/extra/themes/mono/lv_theme_mono.c ****         lv_obj_add_style(obj, &styles->card, 0);
 1532              		.loc 1 443 13 is_stmt 0 view .LVU473
 1533 0812 5B49     		ldr	r1, .L46+48
 1534 0814 2046     		mov	r0, r4
 1535 0816 FFF7FEFF 		bl	lv_obj_check_type
 1536              	.LVL169:
 443:Drivers/lvgl/src/extra/themes/mono/lv_theme_mono.c ****         lv_obj_add_style(obj, &styles->card, 0);
 1537              		.loc 1 443 12 view .LVU474
 1538 081a 30BB     		cbnz	r0, .L40
 448:Drivers/lvgl/src/extra/themes/mono/lv_theme_mono.c **** 
 1539              		.loc 1 448 10 is_stmt 1 view .LVU475
 448:Drivers/lvgl/src/extra/themes/mono/lv_theme_mono.c **** 
 1540              		.loc 1 448 13 is_stmt 0 view .LVU476
 1541 081c 5949     		ldr	r1, .L46+52
 1542 081e 2046     		mov	r0, r4
 1543 0820 FFF7FEFF 		bl	lv_obj_check_type
 1544              	.LVL170:
 448:Drivers/lvgl/src/extra/themes/mono/lv_theme_mono.c **** 
 1545              		.loc 1 448 12 view .LVU477
 1546 0824 0028     		cmp	r0, #0
 1547 0826 7FF4FFAB 		bne	.L1
 451:Drivers/lvgl/src/extra/themes/mono/lv_theme_mono.c ****         lv_obj_add_style(obj, &styles->card, 0);
 1548              		.loc 1 451 10 is_stmt 1 view .LVU478
 451:Drivers/lvgl/src/extra/themes/mono/lv_theme_mono.c ****         lv_obj_add_style(obj, &styles->card, 0);
 1549              		.loc 1 451 13 is_stmt 0 view .LVU479
 1550 082a 5749     		ldr	r1, .L46+56
 1551 082c 2046     		mov	r0, r4
 1552 082e FFF7FEFF 		bl	lv_obj_check_type
 1553              	.LVL171:
 451:Drivers/lvgl/src/extra/themes/mono/lv_theme_mono.c ****         lv_obj_add_style(obj, &styles->card, 0);
 1554              		.loc 1 451 12 view .LVU480
 1555 0832 50B3     		cbz	r0, .L27
 452:Drivers/lvgl/src/extra/themes/mono/lv_theme_mono.c ****         lv_obj_add_style(obj, &styles->pr, LV_STATE_PRESSED);
 1556              		.loc 1 452 9 is_stmt 1 view .LVU481
ARM GAS  /var/folders/0z/tsy30v1j4xl4_7kw94k978ww0000gn/T//ccjTTGyJ.s 			page 45


 452:Drivers/lvgl/src/extra/themes/mono/lv_theme_mono.c ****         lv_obj_add_style(obj, &styles->pr, LV_STATE_PRESSED);
 1557              		.loc 1 452 38 is_stmt 0 view .LVU482
 1558 0834 474D     		ldr	r5, .L46+4
 1559 0836 2968     		ldr	r1, [r5]
 452:Drivers/lvgl/src/extra/themes/mono/lv_theme_mono.c ****         lv_obj_add_style(obj, &styles->pr, LV_STATE_PRESSED);
 1560              		.loc 1 452 9 view .LVU483
 1561 0838 0022     		movs	r2, #0
 1562 083a 0831     		adds	r1, r1, #8
 1563 083c 2046     		mov	r0, r4
 1564 083e FFF7FEFF 		bl	lv_obj_add_style
 1565              	.LVL172:
 453:Drivers/lvgl/src/extra/themes/mono/lv_theme_mono.c ****         lv_obj_add_style(obj, &styles->focus, LV_STATE_FOCUS_KEY);
 1566              		.loc 1 453 9 is_stmt 1 view .LVU484
 453:Drivers/lvgl/src/extra/themes/mono/lv_theme_mono.c ****         lv_obj_add_style(obj, &styles->focus, LV_STATE_FOCUS_KEY);
 1567              		.loc 1 453 38 is_stmt 0 view .LVU485
 1568 0842 2968     		ldr	r1, [r5]
 453:Drivers/lvgl/src/extra/themes/mono/lv_theme_mono.c ****         lv_obj_add_style(obj, &styles->focus, LV_STATE_FOCUS_KEY);
 1569              		.loc 1 453 9 view .LVU486
 1570 0844 2022     		movs	r2, #32
 1571 0846 1144     		add	r1, r1, r2
 1572 0848 2046     		mov	r0, r4
 1573 084a FFF7FEFF 		bl	lv_obj_add_style
 1574              	.LVL173:
 454:Drivers/lvgl/src/extra/themes/mono/lv_theme_mono.c ****         lv_obj_add_style(obj, &styles->large_border, LV_STATE_EDITED);
 1575              		.loc 1 454 9 is_stmt 1 view .LVU487
 454:Drivers/lvgl/src/extra/themes/mono/lv_theme_mono.c ****         lv_obj_add_style(obj, &styles->large_border, LV_STATE_EDITED);
 1576              		.loc 1 454 38 is_stmt 0 view .LVU488
 1577 084e 2968     		ldr	r1, [r5]
 454:Drivers/lvgl/src/extra/themes/mono/lv_theme_mono.c ****         lv_obj_add_style(obj, &styles->large_border, LV_STATE_EDITED);
 1578              		.loc 1 454 9 view .LVU489
 1579 0850 0422     		movs	r2, #4
 1580 0852 3831     		adds	r1, r1, #56
 1581 0854 2046     		mov	r0, r4
 1582 0856 FFF7FEFF 		bl	lv_obj_add_style
 1583              	.LVL174:
 455:Drivers/lvgl/src/extra/themes/mono/lv_theme_mono.c **** 
 1584              		.loc 1 455 9 is_stmt 1 view .LVU490
 455:Drivers/lvgl/src/extra/themes/mono/lv_theme_mono.c **** 
 1585              		.loc 1 455 38 is_stmt 0 view .LVU491
 1586 085a 2968     		ldr	r1, [r5]
 455:Drivers/lvgl/src/extra/themes/mono/lv_theme_mono.c **** 
 1587              		.loc 1 455 9 view .LVU492
 1588 085c 0822     		movs	r2, #8
 1589 085e 6831     		adds	r1, r1, #104
 1590 0860 2046     		mov	r0, r4
 1591 0862 FFF7FEFF 		bl	lv_obj_add_style
 1592              	.LVL175:
 1593 0866 FFF7DFBB 		b	.L1
 1594              	.L40:
 444:Drivers/lvgl/src/extra/themes/mono/lv_theme_mono.c ****         lv_obj_add_style(obj, &styles->scrollbar, LV_PART_SCROLLBAR);
 1595              		.loc 1 444 9 is_stmt 1 view .LVU493
 444:Drivers/lvgl/src/extra/themes/mono/lv_theme_mono.c ****         lv_obj_add_style(obj, &styles->scrollbar, LV_PART_SCROLLBAR);
 1596              		.loc 1 444 38 is_stmt 0 view .LVU494
 1597 086a 3A4D     		ldr	r5, .L46+4
 1598 086c 2968     		ldr	r1, [r5]
 444:Drivers/lvgl/src/extra/themes/mono/lv_theme_mono.c ****         lv_obj_add_style(obj, &styles->scrollbar, LV_PART_SCROLLBAR);
 1599              		.loc 1 444 9 view .LVU495
ARM GAS  /var/folders/0z/tsy30v1j4xl4_7kw94k978ww0000gn/T//ccjTTGyJ.s 			page 46


 1600 086e 0022     		movs	r2, #0
 1601 0870 0831     		adds	r1, r1, #8
 1602 0872 2046     		mov	r0, r4
 1603 0874 FFF7FEFF 		bl	lv_obj_add_style
 1604              	.LVL176:
 445:Drivers/lvgl/src/extra/themes/mono/lv_theme_mono.c ****         return;
 1605              		.loc 1 445 9 is_stmt 1 view .LVU496
 445:Drivers/lvgl/src/extra/themes/mono/lv_theme_mono.c ****         return;
 1606              		.loc 1 445 38 is_stmt 0 view .LVU497
 1607 0878 2968     		ldr	r1, [r5]
 445:Drivers/lvgl/src/extra/themes/mono/lv_theme_mono.c ****         return;
 1608              		.loc 1 445 9 view .LVU498
 1609 087a 4FF48032 		mov	r2, #65536
 1610 087e 1031     		adds	r1, r1, #16
 1611 0880 2046     		mov	r0, r4
 1612 0882 FFF7FEFF 		bl	lv_obj_add_style
 1613              	.LVL177:
 446:Drivers/lvgl/src/extra/themes/mono/lv_theme_mono.c ****     }
 1614              		.loc 1 446 9 is_stmt 1 view .LVU499
 1615 0886 FFF7CFBB 		b	.L1
 1616              	.L27:
 460:Drivers/lvgl/src/extra/themes/mono/lv_theme_mono.c ****         lv_obj_add_style(obj, &styles->card, 0);
 1617              		.loc 1 460 10 view .LVU500
 460:Drivers/lvgl/src/extra/themes/mono/lv_theme_mono.c ****         lv_obj_add_style(obj, &styles->card, 0);
 1618              		.loc 1 460 13 is_stmt 0 view .LVU501
 1619 088a 4049     		ldr	r1, .L46+60
 1620 088c 2046     		mov	r0, r4
 1621 088e FFF7FEFF 		bl	lv_obj_check_type
 1622              	.LVL178:
 460:Drivers/lvgl/src/extra/themes/mono/lv_theme_mono.c ****         lv_obj_add_style(obj, &styles->card, 0);
 1623              		.loc 1 460 12 view .LVU502
 1624 0892 00BB     		cbnz	r0, .L41
 466:Drivers/lvgl/src/extra/themes/mono/lv_theme_mono.c ****         lv_obj_add_style(obj, &styles->card, 0);
 1625              		.loc 1 466 10 is_stmt 1 view .LVU503
 466:Drivers/lvgl/src/extra/themes/mono/lv_theme_mono.c ****         lv_obj_add_style(obj, &styles->card, 0);
 1626              		.loc 1 466 13 is_stmt 0 view .LVU504
 1627 0894 3E49     		ldr	r1, .L46+64
 1628 0896 2046     		mov	r0, r4
 1629 0898 FFF7FEFF 		bl	lv_obj_check_type
 1630              	.LVL179:
 466:Drivers/lvgl/src/extra/themes/mono/lv_theme_mono.c ****         lv_obj_add_style(obj, &styles->card, 0);
 1631              		.loc 1 466 12 view .LVU505
 1632 089c 20B3     		cbz	r0, .L29
 467:Drivers/lvgl/src/extra/themes/mono/lv_theme_mono.c ****         lv_obj_add_style(obj, &styles->inv, LV_PART_CURSOR);
 1633              		.loc 1 467 9 is_stmt 1 view .LVU506
 467:Drivers/lvgl/src/extra/themes/mono/lv_theme_mono.c ****         lv_obj_add_style(obj, &styles->inv, LV_PART_CURSOR);
 1634              		.loc 1 467 38 is_stmt 0 view .LVU507
 1635 089e 2D4D     		ldr	r5, .L46+4
 1636 08a0 2968     		ldr	r1, [r5]
 467:Drivers/lvgl/src/extra/themes/mono/lv_theme_mono.c ****         lv_obj_add_style(obj, &styles->inv, LV_PART_CURSOR);
 1637              		.loc 1 467 9 view .LVU508
 1638 08a2 0022     		movs	r2, #0
 1639 08a4 0831     		adds	r1, r1, #8
 1640 08a6 2046     		mov	r0, r4
 1641 08a8 FFF7FEFF 		bl	lv_obj_add_style
 1642              	.LVL180:
 468:Drivers/lvgl/src/extra/themes/mono/lv_theme_mono.c ****         lv_obj_add_style(obj, &styles->focus, LV_STATE_FOCUS_KEY);
ARM GAS  /var/folders/0z/tsy30v1j4xl4_7kw94k978ww0000gn/T//ccjTTGyJ.s 			page 47


 1643              		.loc 1 468 9 is_stmt 1 view .LVU509
 468:Drivers/lvgl/src/extra/themes/mono/lv_theme_mono.c ****         lv_obj_add_style(obj, &styles->focus, LV_STATE_FOCUS_KEY);
 1644              		.loc 1 468 38 is_stmt 0 view .LVU510
 1645 08ac 2968     		ldr	r1, [r5]
 468:Drivers/lvgl/src/extra/themes/mono/lv_theme_mono.c ****         lv_obj_add_style(obj, &styles->focus, LV_STATE_FOCUS_KEY);
 1646              		.loc 1 468 9 view .LVU511
 1647 08ae 4FF4E022 		mov	r2, #458752
 1648 08b2 2831     		adds	r1, r1, #40
 1649 08b4 2046     		mov	r0, r4
 1650 08b6 FFF7FEFF 		bl	lv_obj_add_style
 1651              	.LVL181:
 469:Drivers/lvgl/src/extra/themes/mono/lv_theme_mono.c ****         lv_obj_add_style(obj, &styles->edit, LV_STATE_EDITED);
 1652              		.loc 1 469 9 is_stmt 1 view .LVU512
 469:Drivers/lvgl/src/extra/themes/mono/lv_theme_mono.c ****         lv_obj_add_style(obj, &styles->edit, LV_STATE_EDITED);
 1653              		.loc 1 469 38 is_stmt 0 view .LVU513
 1654 08ba 2968     		ldr	r1, [r5]
 469:Drivers/lvgl/src/extra/themes/mono/lv_theme_mono.c ****         lv_obj_add_style(obj, &styles->edit, LV_STATE_EDITED);
 1655              		.loc 1 469 9 view .LVU514
 1656 08bc 0422     		movs	r2, #4
 1657 08be 3831     		adds	r1, r1, #56
 1658 08c0 2046     		mov	r0, r4
 1659 08c2 FFF7FEFF 		bl	lv_obj_add_style
 1660              	.LVL182:
 470:Drivers/lvgl/src/extra/themes/mono/lv_theme_mono.c ****     }
 1661              		.loc 1 470 9 is_stmt 1 view .LVU515
 470:Drivers/lvgl/src/extra/themes/mono/lv_theme_mono.c ****     }
 1662              		.loc 1 470 38 is_stmt 0 view .LVU516
 1663 08c6 2968     		ldr	r1, [r5]
 470:Drivers/lvgl/src/extra/themes/mono/lv_theme_mono.c ****     }
 1664              		.loc 1 470 9 view .LVU517
 1665 08c8 0822     		movs	r2, #8
 1666 08ca 4031     		adds	r1, r1, #64
 1667 08cc 2046     		mov	r0, r4
 1668 08ce FFF7FEFF 		bl	lv_obj_add_style
 1669              	.LVL183:
 1670 08d2 FFF7A9BB 		b	.L1
 1671              	.L41:
 461:Drivers/lvgl/src/extra/themes/mono/lv_theme_mono.c ****         return;
 1672              		.loc 1 461 9 is_stmt 1 view .LVU518
 461:Drivers/lvgl/src/extra/themes/mono/lv_theme_mono.c ****         return;
 1673              		.loc 1 461 38 is_stmt 0 view .LVU519
 1674 08d6 1F4B     		ldr	r3, .L46+4
 1675 08d8 1968     		ldr	r1, [r3]
 461:Drivers/lvgl/src/extra/themes/mono/lv_theme_mono.c ****         return;
 1676              		.loc 1 461 9 view .LVU520
 1677 08da 0022     		movs	r2, #0
 1678 08dc 0831     		adds	r1, r1, #8
 1679 08de 2046     		mov	r0, r4
 1680 08e0 FFF7FEFF 		bl	lv_obj_add_style
 1681              	.LVL184:
 462:Drivers/lvgl/src/extra/themes/mono/lv_theme_mono.c ****     }
 1682              		.loc 1 462 9 is_stmt 1 view .LVU521
 1683 08e4 FFF7A0BB 		b	.L1
 1684              	.L29:
 474:Drivers/lvgl/src/extra/themes/mono/lv_theme_mono.c ****         lv_obj_add_style(obj, &styles->scr, 0);
 1685              		.loc 1 474 10 view .LVU522
 474:Drivers/lvgl/src/extra/themes/mono/lv_theme_mono.c ****         lv_obj_add_style(obj, &styles->scr, 0);
ARM GAS  /var/folders/0z/tsy30v1j4xl4_7kw94k978ww0000gn/T//ccjTTGyJ.s 			page 48


 1686              		.loc 1 474 13 is_stmt 0 view .LVU523
 1687 08e8 2A49     		ldr	r1, .L46+68
 1688 08ea 2046     		mov	r0, r4
 1689 08ec FFF7FEFF 		bl	lv_obj_check_type
 1690              	.LVL185:
 474:Drivers/lvgl/src/extra/themes/mono/lv_theme_mono.c ****         lv_obj_add_style(obj, &styles->scr, 0);
 1691              		.loc 1 474 12 view .LVU524
 1692 08f0 70B1     		cbz	r0, .L30
 475:Drivers/lvgl/src/extra/themes/mono/lv_theme_mono.c ****         lv_obj_add_style(obj, &styles->scrollbar, LV_PART_SCROLLBAR);
 1693              		.loc 1 475 9 is_stmt 1 view .LVU525
 475:Drivers/lvgl/src/extra/themes/mono/lv_theme_mono.c ****         lv_obj_add_style(obj, &styles->scrollbar, LV_PART_SCROLLBAR);
 1694              		.loc 1 475 38 is_stmt 0 view .LVU526
 1695 08f2 184D     		ldr	r5, .L46+4
 475:Drivers/lvgl/src/extra/themes/mono/lv_theme_mono.c ****         lv_obj_add_style(obj, &styles->scrollbar, LV_PART_SCROLLBAR);
 1696              		.loc 1 475 9 view .LVU527
 1697 08f4 0022     		movs	r2, #0
 1698 08f6 2968     		ldr	r1, [r5]
 1699 08f8 2046     		mov	r0, r4
 1700 08fa FFF7FEFF 		bl	lv_obj_add_style
 1701              	.LVL186:
 476:Drivers/lvgl/src/extra/themes/mono/lv_theme_mono.c ****     }
 1702              		.loc 1 476 9 is_stmt 1 view .LVU528
 476:Drivers/lvgl/src/extra/themes/mono/lv_theme_mono.c ****     }
 1703              		.loc 1 476 38 is_stmt 0 view .LVU529
 1704 08fe 2968     		ldr	r1, [r5]
 476:Drivers/lvgl/src/extra/themes/mono/lv_theme_mono.c ****     }
 1705              		.loc 1 476 9 view .LVU530
 1706 0900 4FF48032 		mov	r2, #65536
 1707 0904 1031     		adds	r1, r1, #16
 1708 0906 2046     		mov	r0, r4
 1709 0908 FFF7FEFF 		bl	lv_obj_add_style
 1710              	.LVL187:
 1711 090c FFF78CBB 		b	.L1
 1712              	.L30:
 478:Drivers/lvgl/src/extra/themes/mono/lv_theme_mono.c ****         lv_obj_add_style(obj, &styles->scrollbar, LV_PART_SCROLLBAR);
 1713              		.loc 1 478 10 is_stmt 1 view .LVU531
 478:Drivers/lvgl/src/extra/themes/mono/lv_theme_mono.c ****         lv_obj_add_style(obj, &styles->scrollbar, LV_PART_SCROLLBAR);
 1714              		.loc 1 478 13 is_stmt 0 view .LVU532
 1715 0910 2149     		ldr	r1, .L46+72
 1716 0912 2046     		mov	r0, r4
 1717 0914 FFF7FEFF 		bl	lv_obj_check_type
 1718              	.LVL188:
 478:Drivers/lvgl/src/extra/themes/mono/lv_theme_mono.c ****         lv_obj_add_style(obj, &styles->scrollbar, LV_PART_SCROLLBAR);
 1719              		.loc 1 478 12 view .LVU533
 1720 0918 48B1     		cbz	r0, .L31
 479:Drivers/lvgl/src/extra/themes/mono/lv_theme_mono.c ****     }
 1721              		.loc 1 479 9 is_stmt 1 view .LVU534
 479:Drivers/lvgl/src/extra/themes/mono/lv_theme_mono.c ****     }
 1722              		.loc 1 479 38 is_stmt 0 view .LVU535
 1723 091a 0E4B     		ldr	r3, .L46+4
 1724 091c 1968     		ldr	r1, [r3]
 479:Drivers/lvgl/src/extra/themes/mono/lv_theme_mono.c ****     }
 1725              		.loc 1 479 9 view .LVU536
 1726 091e 4FF48032 		mov	r2, #65536
 1727 0922 1031     		adds	r1, r1, #16
 1728 0924 2046     		mov	r0, r4
 1729 0926 FFF7FEFF 		bl	lv_obj_add_style
ARM GAS  /var/folders/0z/tsy30v1j4xl4_7kw94k978ww0000gn/T//ccjTTGyJ.s 			page 49


 1730              	.LVL189:
 1731 092a FFF77DBB 		b	.L1
 1732              	.L31:
 484:Drivers/lvgl/src/extra/themes/mono/lv_theme_mono.c ****         lv_obj_add_style(obj, &styles->card, 0);
 1733              		.loc 1 484 10 is_stmt 1 view .LVU537
 484:Drivers/lvgl/src/extra/themes/mono/lv_theme_mono.c ****         lv_obj_add_style(obj, &styles->card, 0);
 1734              		.loc 1 484 13 is_stmt 0 view .LVU538
 1735 092e 1B49     		ldr	r1, .L46+76
 1736 0930 2046     		mov	r0, r4
 1737 0932 FFF7FEFF 		bl	lv_obj_check_type
 1738              	.LVL190:
 484:Drivers/lvgl/src/extra/themes/mono/lv_theme_mono.c ****         lv_obj_add_style(obj, &styles->card, 0);
 1739              		.loc 1 484 12 view .LVU539
 1740 0936 0028     		cmp	r0, #0
 1741 0938 3FF476AB 		beq	.L1
 485:Drivers/lvgl/src/extra/themes/mono/lv_theme_mono.c ****     }
 1742              		.loc 1 485 9 is_stmt 1 view .LVU540
 485:Drivers/lvgl/src/extra/themes/mono/lv_theme_mono.c ****     }
 1743              		.loc 1 485 38 is_stmt 0 view .LVU541
 1744 093c 054B     		ldr	r3, .L46+4
 1745 093e 1968     		ldr	r1, [r3]
 485:Drivers/lvgl/src/extra/themes/mono/lv_theme_mono.c ****     }
 1746              		.loc 1 485 9 view .LVU542
 1747 0940 0022     		movs	r2, #0
 1748 0942 0831     		adds	r1, r1, #8
 1749 0944 2046     		mov	r0, r4
 1750 0946 FFF7FEFF 		bl	lv_obj_add_style
 1751              	.LVL191:
 1752 094a FFF76DBB 		b	.L1
 1753              	.L47:
 1754 094e 00BF     		.align	2
 1755              	.L46:
 1756 0950 00000000 		.word	lv_arc_class
 1757 0954 00000000 		.word	.LANCHOR0
 1758 0958 00000000 		.word	lv_meter_class
 1759 095c 00000000 		.word	lv_textarea_class
 1760 0960 02000700 		.word	458754
 1761 0964 00000000 		.word	lv_calendar_class
 1762 0968 20000500 		.word	327712
 1763 096c 80000500 		.word	327808
 1764 0970 04000500 		.word	327684
 1765 0974 00000000 		.word	lv_keyboard_class
 1766 0978 01000500 		.word	327681
 1767 097c 08000500 		.word	327688
 1768 0980 00000000 		.word	lv_list_class
 1769 0984 00000000 		.word	lv_list_text_class
 1770 0988 00000000 		.word	lv_list_btn_class
 1771 098c 00000000 		.word	lv_msgbox_class
 1772 0990 00000000 		.word	lv_spinbox_class
 1773 0994 00000000 		.word	lv_tileview_class
 1774 0998 00000000 		.word	lv_tileview_tile_class
 1775 099c 00000000 		.word	lv_led_class
 1776              		.cfi_endproc
 1777              	.LFE207:
 1779              		.section	.text.style_init_reset,"ax",%progbits
 1780              		.align	1
 1781              		.syntax unified
ARM GAS  /var/folders/0z/tsy30v1j4xl4_7kw94k978ww0000gn/T//ccjTTGyJ.s 			page 50


 1782              		.thumb
 1783              		.thumb_func
 1785              	style_init_reset:
 1786              	.LVL192:
 1787              	.LFB208:
 489:Drivers/lvgl/src/extra/themes/mono/lv_theme_mono.c **** 
 490:Drivers/lvgl/src/extra/themes/mono/lv_theme_mono.c **** /**********************
 491:Drivers/lvgl/src/extra/themes/mono/lv_theme_mono.c ****  *   STATIC FUNCTIONS
 492:Drivers/lvgl/src/extra/themes/mono/lv_theme_mono.c ****  **********************/
 493:Drivers/lvgl/src/extra/themes/mono/lv_theme_mono.c **** 
 494:Drivers/lvgl/src/extra/themes/mono/lv_theme_mono.c **** static void style_init_reset(lv_style_t * style)
 495:Drivers/lvgl/src/extra/themes/mono/lv_theme_mono.c **** {
 1788              		.loc 1 495 1 is_stmt 1 view -0
 1789              		.cfi_startproc
 1790              		@ args = 0, pretend = 0, frame = 0
 1791              		@ frame_needed = 0, uses_anonymous_args = 0
 1792              		.loc 1 495 1 is_stmt 0 view .LVU544
 1793 0000 08B5     		push	{r3, lr}
 1794              		.cfi_def_cfa_offset 8
 1795              		.cfi_offset 3, -8
 1796              		.cfi_offset 14, -4
 496:Drivers/lvgl/src/extra/themes/mono/lv_theme_mono.c ****     if(inited) {
 1797              		.loc 1 496 5 is_stmt 1 view .LVU545
 1798              		.loc 1 496 8 is_stmt 0 view .LVU546
 1799 0002 044B     		ldr	r3, .L52
 1800 0004 1B78     		ldrb	r3, [r3]	@ zero_extendqisi2
 1801              		.loc 1 496 7 view .LVU547
 1802 0006 13B1     		cbz	r3, .L49
 497:Drivers/lvgl/src/extra/themes/mono/lv_theme_mono.c ****         lv_style_reset(style);
 1803              		.loc 1 497 9 is_stmt 1 view .LVU548
 1804 0008 FFF7FEFF 		bl	lv_style_reset
 1805              	.LVL193:
 1806              	.L48:
 498:Drivers/lvgl/src/extra/themes/mono/lv_theme_mono.c ****     }
 499:Drivers/lvgl/src/extra/themes/mono/lv_theme_mono.c ****     else {
 500:Drivers/lvgl/src/extra/themes/mono/lv_theme_mono.c ****         lv_style_init(style);
 501:Drivers/lvgl/src/extra/themes/mono/lv_theme_mono.c ****     }
 502:Drivers/lvgl/src/extra/themes/mono/lv_theme_mono.c **** }
 1807              		.loc 1 502 1 is_stmt 0 view .LVU549
 1808 000c 08BD     		pop	{r3, pc}
 1809              	.LVL194:
 1810              	.L49:
 500:Drivers/lvgl/src/extra/themes/mono/lv_theme_mono.c ****     }
 1811              		.loc 1 500 9 is_stmt 1 view .LVU550
 1812 000e FFF7FEFF 		bl	lv_style_init
 1813              	.LVL195:
 1814              		.loc 1 502 1 is_stmt 0 view .LVU551
 1815 0012 FBE7     		b	.L48
 1816              	.L53:
 1817              		.align	2
 1818              	.L52:
 1819 0014 00000000 		.word	.LANCHOR1
 1820              		.cfi_endproc
 1821              	.LFE208:
 1823              		.section	.text.style_init,"ax",%progbits
 1824              		.align	1
 1825              		.syntax unified
ARM GAS  /var/folders/0z/tsy30v1j4xl4_7kw94k978ww0000gn/T//ccjTTGyJ.s 			page 51


 1826              		.thumb
 1827              		.thumb_func
 1829              	style_init:
 1830              	.LVL196:
 1831              	.LFB204:
  78:Drivers/lvgl/src/extra/themes/mono/lv_theme_mono.c ****     style_init_reset(&styles->scrollbar);
 1832              		.loc 1 78 1 is_stmt 1 view -0
 1833              		.cfi_startproc
 1834              		@ args = 0, pretend = 0, frame = 0
 1835              		@ frame_needed = 0, uses_anonymous_args = 0
  78:Drivers/lvgl/src/extra/themes/mono/lv_theme_mono.c ****     style_init_reset(&styles->scrollbar);
 1836              		.loc 1 78 1 is_stmt 0 view .LVU553
 1837 0000 70B5     		push	{r4, r5, r6, lr}
 1838              		.cfi_def_cfa_offset 16
 1839              		.cfi_offset 4, -16
 1840              		.cfi_offset 5, -12
 1841              		.cfi_offset 6, -8
 1842              		.cfi_offset 14, -4
 1843 0002 0546     		mov	r5, r0
 1844 0004 0E46     		mov	r6, r1
  79:Drivers/lvgl/src/extra/themes/mono/lv_theme_mono.c ****     lv_style_set_bg_opa(&styles->scrollbar, LV_OPA_COVER);
 1845              		.loc 1 79 5 is_stmt 1 view .LVU554
  79:Drivers/lvgl/src/extra/themes/mono/lv_theme_mono.c ****     lv_style_set_bg_opa(&styles->scrollbar, LV_OPA_COVER);
 1846              		.loc 1 79 29 is_stmt 0 view .LVU555
 1847 0006 CE4C     		ldr	r4, .L88
 1848 0008 2068     		ldr	r0, [r4]
 1849              	.LVL197:
  79:Drivers/lvgl/src/extra/themes/mono/lv_theme_mono.c ****     lv_style_set_bg_opa(&styles->scrollbar, LV_OPA_COVER);
 1850              		.loc 1 79 5 view .LVU556
 1851 000a 1030     		adds	r0, r0, #16
 1852 000c FFF7FEFF 		bl	style_init_reset
 1853              	.LVL198:
  80:Drivers/lvgl/src/extra/themes/mono/lv_theme_mono.c ****     lv_style_set_bg_color(&styles->scrollbar, COLOR_FG);
 1854              		.loc 1 80 5 is_stmt 1 view .LVU557
  80:Drivers/lvgl/src/extra/themes/mono/lv_theme_mono.c ****     lv_style_set_bg_color(&styles->scrollbar, COLOR_FG);
 1855              		.loc 1 80 32 is_stmt 0 view .LVU558
 1856 0010 2068     		ldr	r0, [r4]
  80:Drivers/lvgl/src/extra/themes/mono/lv_theme_mono.c ****     lv_style_set_bg_color(&styles->scrollbar, COLOR_FG);
 1857              		.loc 1 80 5 view .LVU559
 1858 0012 FF21     		movs	r1, #255
 1859 0014 1030     		adds	r0, r0, #16
 1860 0016 FFF7FEFF 		bl	lv_style_set_bg_opa
 1861              	.LVL199:
  81:Drivers/lvgl/src/extra/themes/mono/lv_theme_mono.c ****     lv_style_set_width(&styles->scrollbar,  PAD_DEF);
 1862              		.loc 1 81 5 is_stmt 1 view .LVU560
  81:Drivers/lvgl/src/extra/themes/mono/lv_theme_mono.c ****     lv_style_set_width(&styles->scrollbar,  PAD_DEF);
 1863              		.loc 1 81 34 is_stmt 0 view .LVU561
 1864 001a 2068     		ldr	r0, [r4]
  81:Drivers/lvgl/src/extra/themes/mono/lv_theme_mono.c ****     lv_style_set_width(&styles->scrollbar,  PAD_DEF);
 1865              		.loc 1 81 5 view .LVU562
 1866 001c 1030     		adds	r0, r0, #16
 1867 001e 002D     		cmp	r5, #0
 1868 0020 00F09B81 		beq	.L55
 1869              	.LBB275:
 1870              	.LBI275:
 1871              		.file 2 "Drivers/lvgl/src/extra/themes/mono/../../../../src/hal/../draw/../misc/lv_color.h"
   1:Drivers/lvgl/src/extra/themes/mono/../../../../src/hal/../draw/../misc/lv_color.h **** /**
ARM GAS  /var/folders/0z/tsy30v1j4xl4_7kw94k978ww0000gn/T//ccjTTGyJ.s 			page 52


   2:Drivers/lvgl/src/extra/themes/mono/../../../../src/hal/../draw/../misc/lv_color.h ****  * @file lv_color.h
   3:Drivers/lvgl/src/extra/themes/mono/../../../../src/hal/../draw/../misc/lv_color.h ****  *
   4:Drivers/lvgl/src/extra/themes/mono/../../../../src/hal/../draw/../misc/lv_color.h ****  */
   5:Drivers/lvgl/src/extra/themes/mono/../../../../src/hal/../draw/../misc/lv_color.h **** 
   6:Drivers/lvgl/src/extra/themes/mono/../../../../src/hal/../draw/../misc/lv_color.h **** #ifndef LV_COLOR_H
   7:Drivers/lvgl/src/extra/themes/mono/../../../../src/hal/../draw/../misc/lv_color.h **** #define LV_COLOR_H
   8:Drivers/lvgl/src/extra/themes/mono/../../../../src/hal/../draw/../misc/lv_color.h **** 
   9:Drivers/lvgl/src/extra/themes/mono/../../../../src/hal/../draw/../misc/lv_color.h **** #ifdef __cplusplus
  10:Drivers/lvgl/src/extra/themes/mono/../../../../src/hal/../draw/../misc/lv_color.h **** extern "C" {
  11:Drivers/lvgl/src/extra/themes/mono/../../../../src/hal/../draw/../misc/lv_color.h **** #endif
  12:Drivers/lvgl/src/extra/themes/mono/../../../../src/hal/../draw/../misc/lv_color.h **** 
  13:Drivers/lvgl/src/extra/themes/mono/../../../../src/hal/../draw/../misc/lv_color.h **** /*********************
  14:Drivers/lvgl/src/extra/themes/mono/../../../../src/hal/../draw/../misc/lv_color.h ****  *      INCLUDES
  15:Drivers/lvgl/src/extra/themes/mono/../../../../src/hal/../draw/../misc/lv_color.h ****  *********************/
  16:Drivers/lvgl/src/extra/themes/mono/../../../../src/hal/../draw/../misc/lv_color.h **** #include "../lv_conf_internal.h"
  17:Drivers/lvgl/src/extra/themes/mono/../../../../src/hal/../draw/../misc/lv_color.h **** #include "lv_assert.h"
  18:Drivers/lvgl/src/extra/themes/mono/../../../../src/hal/../draw/../misc/lv_color.h **** #include "lv_math.h"
  19:Drivers/lvgl/src/extra/themes/mono/../../../../src/hal/../draw/../misc/lv_color.h **** #include "lv_types.h"
  20:Drivers/lvgl/src/extra/themes/mono/../../../../src/hal/../draw/../misc/lv_color.h **** 
  21:Drivers/lvgl/src/extra/themes/mono/../../../../src/hal/../draw/../misc/lv_color.h **** /*Error checking*/
  22:Drivers/lvgl/src/extra/themes/mono/../../../../src/hal/../draw/../misc/lv_color.h **** #if LV_COLOR_DEPTH == 24
  23:Drivers/lvgl/src/extra/themes/mono/../../../../src/hal/../draw/../misc/lv_color.h **** #error "LV_COLOR_DEPTH 24 is deprecated. Use LV_COLOR_DEPTH 32 instead (lv_conf.h)"
  24:Drivers/lvgl/src/extra/themes/mono/../../../../src/hal/../draw/../misc/lv_color.h **** #endif
  25:Drivers/lvgl/src/extra/themes/mono/../../../../src/hal/../draw/../misc/lv_color.h **** 
  26:Drivers/lvgl/src/extra/themes/mono/../../../../src/hal/../draw/../misc/lv_color.h **** #if LV_COLOR_DEPTH != 16 && LV_COLOR_16_SWAP != 0
  27:Drivers/lvgl/src/extra/themes/mono/../../../../src/hal/../draw/../misc/lv_color.h **** #error "LV_COLOR_16_SWAP requires LV_COLOR_DEPTH == 16. Set it in lv_conf.h"
  28:Drivers/lvgl/src/extra/themes/mono/../../../../src/hal/../draw/../misc/lv_color.h **** #endif
  29:Drivers/lvgl/src/extra/themes/mono/../../../../src/hal/../draw/../misc/lv_color.h **** 
  30:Drivers/lvgl/src/extra/themes/mono/../../../../src/hal/../draw/../misc/lv_color.h **** #include <stdint.h>
  31:Drivers/lvgl/src/extra/themes/mono/../../../../src/hal/../draw/../misc/lv_color.h **** 
  32:Drivers/lvgl/src/extra/themes/mono/../../../../src/hal/../draw/../misc/lv_color.h **** /*********************
  33:Drivers/lvgl/src/extra/themes/mono/../../../../src/hal/../draw/../misc/lv_color.h ****  *      DEFINES
  34:Drivers/lvgl/src/extra/themes/mono/../../../../src/hal/../draw/../misc/lv_color.h ****  *********************/
  35:Drivers/lvgl/src/extra/themes/mono/../../../../src/hal/../draw/../misc/lv_color.h **** LV_EXPORT_CONST_INT(LV_COLOR_DEPTH);
  36:Drivers/lvgl/src/extra/themes/mono/../../../../src/hal/../draw/../misc/lv_color.h **** LV_EXPORT_CONST_INT(LV_COLOR_16_SWAP);
  37:Drivers/lvgl/src/extra/themes/mono/../../../../src/hal/../draw/../misc/lv_color.h **** 
  38:Drivers/lvgl/src/extra/themes/mono/../../../../src/hal/../draw/../misc/lv_color.h **** /**
  39:Drivers/lvgl/src/extra/themes/mono/../../../../src/hal/../draw/../misc/lv_color.h ****  * Opacity percentages.
  40:Drivers/lvgl/src/extra/themes/mono/../../../../src/hal/../draw/../misc/lv_color.h ****  */
  41:Drivers/lvgl/src/extra/themes/mono/../../../../src/hal/../draw/../misc/lv_color.h **** enum {
  42:Drivers/lvgl/src/extra/themes/mono/../../../../src/hal/../draw/../misc/lv_color.h ****     LV_OPA_TRANSP = 0,
  43:Drivers/lvgl/src/extra/themes/mono/../../../../src/hal/../draw/../misc/lv_color.h ****     LV_OPA_0      = 0,
  44:Drivers/lvgl/src/extra/themes/mono/../../../../src/hal/../draw/../misc/lv_color.h ****     LV_OPA_10     = 25,
  45:Drivers/lvgl/src/extra/themes/mono/../../../../src/hal/../draw/../misc/lv_color.h ****     LV_OPA_20     = 51,
  46:Drivers/lvgl/src/extra/themes/mono/../../../../src/hal/../draw/../misc/lv_color.h ****     LV_OPA_30     = 76,
  47:Drivers/lvgl/src/extra/themes/mono/../../../../src/hal/../draw/../misc/lv_color.h ****     LV_OPA_40     = 102,
  48:Drivers/lvgl/src/extra/themes/mono/../../../../src/hal/../draw/../misc/lv_color.h ****     LV_OPA_50     = 127,
  49:Drivers/lvgl/src/extra/themes/mono/../../../../src/hal/../draw/../misc/lv_color.h ****     LV_OPA_60     = 153,
  50:Drivers/lvgl/src/extra/themes/mono/../../../../src/hal/../draw/../misc/lv_color.h ****     LV_OPA_70     = 178,
  51:Drivers/lvgl/src/extra/themes/mono/../../../../src/hal/../draw/../misc/lv_color.h ****     LV_OPA_80     = 204,
  52:Drivers/lvgl/src/extra/themes/mono/../../../../src/hal/../draw/../misc/lv_color.h ****     LV_OPA_90     = 229,
  53:Drivers/lvgl/src/extra/themes/mono/../../../../src/hal/../draw/../misc/lv_color.h ****     LV_OPA_100    = 255,
  54:Drivers/lvgl/src/extra/themes/mono/../../../../src/hal/../draw/../misc/lv_color.h ****     LV_OPA_COVER  = 255,
  55:Drivers/lvgl/src/extra/themes/mono/../../../../src/hal/../draw/../misc/lv_color.h **** };
  56:Drivers/lvgl/src/extra/themes/mono/../../../../src/hal/../draw/../misc/lv_color.h **** 
  57:Drivers/lvgl/src/extra/themes/mono/../../../../src/hal/../draw/../misc/lv_color.h **** #define LV_OPA_MIN 2    /*Opacities below this will be transparent*/
  58:Drivers/lvgl/src/extra/themes/mono/../../../../src/hal/../draw/../misc/lv_color.h **** #define LV_OPA_MAX 253  /*Opacities above this will fully cover*/
ARM GAS  /var/folders/0z/tsy30v1j4xl4_7kw94k978ww0000gn/T//ccjTTGyJ.s 			page 53


  59:Drivers/lvgl/src/extra/themes/mono/../../../../src/hal/../draw/../misc/lv_color.h **** 
  60:Drivers/lvgl/src/extra/themes/mono/../../../../src/hal/../draw/../misc/lv_color.h **** #if LV_COLOR_DEPTH == 1
  61:Drivers/lvgl/src/extra/themes/mono/../../../../src/hal/../draw/../misc/lv_color.h **** #define LV_COLOR_SIZE 8
  62:Drivers/lvgl/src/extra/themes/mono/../../../../src/hal/../draw/../misc/lv_color.h **** #elif LV_COLOR_DEPTH == 8
  63:Drivers/lvgl/src/extra/themes/mono/../../../../src/hal/../draw/../misc/lv_color.h **** #define LV_COLOR_SIZE 8
  64:Drivers/lvgl/src/extra/themes/mono/../../../../src/hal/../draw/../misc/lv_color.h **** #elif LV_COLOR_DEPTH == 16
  65:Drivers/lvgl/src/extra/themes/mono/../../../../src/hal/../draw/../misc/lv_color.h **** #define LV_COLOR_SIZE 16
  66:Drivers/lvgl/src/extra/themes/mono/../../../../src/hal/../draw/../misc/lv_color.h **** #elif LV_COLOR_DEPTH == 32
  67:Drivers/lvgl/src/extra/themes/mono/../../../../src/hal/../draw/../misc/lv_color.h **** #define LV_COLOR_SIZE 32
  68:Drivers/lvgl/src/extra/themes/mono/../../../../src/hal/../draw/../misc/lv_color.h **** #else
  69:Drivers/lvgl/src/extra/themes/mono/../../../../src/hal/../draw/../misc/lv_color.h **** #error "Invalid LV_COLOR_DEPTH in lv_conf.h! Set it to 1, 8, 16 or 32!"
  70:Drivers/lvgl/src/extra/themes/mono/../../../../src/hal/../draw/../misc/lv_color.h **** #endif
  71:Drivers/lvgl/src/extra/themes/mono/../../../../src/hal/../draw/../misc/lv_color.h **** 
  72:Drivers/lvgl/src/extra/themes/mono/../../../../src/hal/../draw/../misc/lv_color.h **** #if defined(__cplusplus) && !defined(_LV_COLOR_HAS_MODERN_CPP)
  73:Drivers/lvgl/src/extra/themes/mono/../../../../src/hal/../draw/../misc/lv_color.h **** /**
  74:Drivers/lvgl/src/extra/themes/mono/../../../../src/hal/../draw/../misc/lv_color.h **** * MSVC compiler's definition of the __cplusplus indicating 199711L regardless to C++ standard versi
  75:Drivers/lvgl/src/extra/themes/mono/../../../../src/hal/../draw/../misc/lv_color.h **** * see https://devblogs.microsoft.com/cppblog/msvc-now-correctly-reports-cplusplus
  76:Drivers/lvgl/src/extra/themes/mono/../../../../src/hal/../draw/../misc/lv_color.h **** * so we use _MSC_VER macro instead of __cplusplus
  77:Drivers/lvgl/src/extra/themes/mono/../../../../src/hal/../draw/../misc/lv_color.h **** */
  78:Drivers/lvgl/src/extra/themes/mono/../../../../src/hal/../draw/../misc/lv_color.h **** #ifdef _MSC_VER
  79:Drivers/lvgl/src/extra/themes/mono/../../../../src/hal/../draw/../misc/lv_color.h **** #if _MSC_VER >= 1900 /*Visual Studio 2015*/
  80:Drivers/lvgl/src/extra/themes/mono/../../../../src/hal/../draw/../misc/lv_color.h **** #define _LV_COLOR_HAS_MODERN_CPP 1
  81:Drivers/lvgl/src/extra/themes/mono/../../../../src/hal/../draw/../misc/lv_color.h **** #endif
  82:Drivers/lvgl/src/extra/themes/mono/../../../../src/hal/../draw/../misc/lv_color.h **** #else
  83:Drivers/lvgl/src/extra/themes/mono/../../../../src/hal/../draw/../misc/lv_color.h **** #if __cplusplus >= 201103L
  84:Drivers/lvgl/src/extra/themes/mono/../../../../src/hal/../draw/../misc/lv_color.h **** #define _LV_COLOR_HAS_MODERN_CPP 1
  85:Drivers/lvgl/src/extra/themes/mono/../../../../src/hal/../draw/../misc/lv_color.h **** #endif
  86:Drivers/lvgl/src/extra/themes/mono/../../../../src/hal/../draw/../misc/lv_color.h **** #endif
  87:Drivers/lvgl/src/extra/themes/mono/../../../../src/hal/../draw/../misc/lv_color.h **** #endif /*__cplusplus*/
  88:Drivers/lvgl/src/extra/themes/mono/../../../../src/hal/../draw/../misc/lv_color.h **** 
  89:Drivers/lvgl/src/extra/themes/mono/../../../../src/hal/../draw/../misc/lv_color.h **** #ifndef _LV_COLOR_HAS_MODERN_CPP
  90:Drivers/lvgl/src/extra/themes/mono/../../../../src/hal/../draw/../misc/lv_color.h **** #define _LV_COLOR_HAS_MODERN_CPP 0
  91:Drivers/lvgl/src/extra/themes/mono/../../../../src/hal/../draw/../misc/lv_color.h **** #endif
  92:Drivers/lvgl/src/extra/themes/mono/../../../../src/hal/../draw/../misc/lv_color.h **** 
  93:Drivers/lvgl/src/extra/themes/mono/../../../../src/hal/../draw/../misc/lv_color.h **** #if _LV_COLOR_HAS_MODERN_CPP
  94:Drivers/lvgl/src/extra/themes/mono/../../../../src/hal/../draw/../misc/lv_color.h **** /*Fix msvc compiler error C4576 inside C++ code*/
  95:Drivers/lvgl/src/extra/themes/mono/../../../../src/hal/../draw/../misc/lv_color.h **** #define _LV_COLOR_MAKE_TYPE_HELPER lv_color_t
  96:Drivers/lvgl/src/extra/themes/mono/../../../../src/hal/../draw/../misc/lv_color.h **** #else
  97:Drivers/lvgl/src/extra/themes/mono/../../../../src/hal/../draw/../misc/lv_color.h **** #define _LV_COLOR_MAKE_TYPE_HELPER (lv_color_t)
  98:Drivers/lvgl/src/extra/themes/mono/../../../../src/hal/../draw/../misc/lv_color.h **** #endif
  99:Drivers/lvgl/src/extra/themes/mono/../../../../src/hal/../draw/../misc/lv_color.h **** 
 100:Drivers/lvgl/src/extra/themes/mono/../../../../src/hal/../draw/../misc/lv_color.h **** /*---------------------------------------
 101:Drivers/lvgl/src/extra/themes/mono/../../../../src/hal/../draw/../misc/lv_color.h ****  * Macros for all existing color depths
 102:Drivers/lvgl/src/extra/themes/mono/../../../../src/hal/../draw/../misc/lv_color.h ****  * to set/get values of the color channels
 103:Drivers/lvgl/src/extra/themes/mono/../../../../src/hal/../draw/../misc/lv_color.h ****  *------------------------------------------*/
 104:Drivers/lvgl/src/extra/themes/mono/../../../../src/hal/../draw/../misc/lv_color.h **** # define LV_COLOR_SET_R1(c, v) (c).ch.red = (uint8_t)((v) & 0x1)
 105:Drivers/lvgl/src/extra/themes/mono/../../../../src/hal/../draw/../misc/lv_color.h **** # define LV_COLOR_SET_G1(c, v) (c).ch.green = (uint8_t)((v) & 0x1)
 106:Drivers/lvgl/src/extra/themes/mono/../../../../src/hal/../draw/../misc/lv_color.h **** # define LV_COLOR_SET_B1(c, v) (c).ch.blue = (uint8_t)((v) & 0x1)
 107:Drivers/lvgl/src/extra/themes/mono/../../../../src/hal/../draw/../misc/lv_color.h **** # define LV_COLOR_SET_A1(c, v) do {} while(0)
 108:Drivers/lvgl/src/extra/themes/mono/../../../../src/hal/../draw/../misc/lv_color.h **** 
 109:Drivers/lvgl/src/extra/themes/mono/../../../../src/hal/../draw/../misc/lv_color.h **** # define LV_COLOR_GET_R1(c) (c).ch.red
 110:Drivers/lvgl/src/extra/themes/mono/../../../../src/hal/../draw/../misc/lv_color.h **** # define LV_COLOR_GET_G1(c) (c).ch.green
 111:Drivers/lvgl/src/extra/themes/mono/../../../../src/hal/../draw/../misc/lv_color.h **** # define LV_COLOR_GET_B1(c) (c).ch.blue
 112:Drivers/lvgl/src/extra/themes/mono/../../../../src/hal/../draw/../misc/lv_color.h **** # define LV_COLOR_GET_A1(c) 0xFF
 113:Drivers/lvgl/src/extra/themes/mono/../../../../src/hal/../draw/../misc/lv_color.h **** 
 114:Drivers/lvgl/src/extra/themes/mono/../../../../src/hal/../draw/../misc/lv_color.h **** # define _LV_COLOR_ZERO_INITIALIZER1 {0x00}
 115:Drivers/lvgl/src/extra/themes/mono/../../../../src/hal/../draw/../misc/lv_color.h **** # define LV_COLOR_MAKE1(r8, g8, b8)  {(uint8_t)((b8 >> 7) | (g8 >> 7) | (r8 >> 7))}
ARM GAS  /var/folders/0z/tsy30v1j4xl4_7kw94k978ww0000gn/T//ccjTTGyJ.s 			page 54


 116:Drivers/lvgl/src/extra/themes/mono/../../../../src/hal/../draw/../misc/lv_color.h **** 
 117:Drivers/lvgl/src/extra/themes/mono/../../../../src/hal/../draw/../misc/lv_color.h **** # define LV_COLOR_SET_R8(c, v) (c).ch.red = (uint8_t)((v) & 0x7U)
 118:Drivers/lvgl/src/extra/themes/mono/../../../../src/hal/../draw/../misc/lv_color.h **** # define LV_COLOR_SET_G8(c, v) (c).ch.green = (uint8_t)((v) & 0x7U)
 119:Drivers/lvgl/src/extra/themes/mono/../../../../src/hal/../draw/../misc/lv_color.h **** # define LV_COLOR_SET_B8(c, v) (c).ch.blue = (uint8_t)((v) & 0x3U)
 120:Drivers/lvgl/src/extra/themes/mono/../../../../src/hal/../draw/../misc/lv_color.h **** # define LV_COLOR_SET_A8(c, v) do {} while(0)
 121:Drivers/lvgl/src/extra/themes/mono/../../../../src/hal/../draw/../misc/lv_color.h **** 
 122:Drivers/lvgl/src/extra/themes/mono/../../../../src/hal/../draw/../misc/lv_color.h **** # define LV_COLOR_GET_R8(c) (c).ch.red
 123:Drivers/lvgl/src/extra/themes/mono/../../../../src/hal/../draw/../misc/lv_color.h **** # define LV_COLOR_GET_G8(c) (c).ch.green
 124:Drivers/lvgl/src/extra/themes/mono/../../../../src/hal/../draw/../misc/lv_color.h **** # define LV_COLOR_GET_B8(c) (c).ch.blue
 125:Drivers/lvgl/src/extra/themes/mono/../../../../src/hal/../draw/../misc/lv_color.h **** # define LV_COLOR_GET_A8(c) 0xFF
 126:Drivers/lvgl/src/extra/themes/mono/../../../../src/hal/../draw/../misc/lv_color.h **** 
 127:Drivers/lvgl/src/extra/themes/mono/../../../../src/hal/../draw/../misc/lv_color.h **** # define _LV_COLOR_ZERO_INITIALIZER8 {{0x00, 0x00, 0x00}}
 128:Drivers/lvgl/src/extra/themes/mono/../../../../src/hal/../draw/../misc/lv_color.h **** # define LV_COLOR_MAKE8(r8, g8, b8) {{(uint8_t)((b8 >> 6) & 0x3U), (uint8_t)((g8 >> 5) & 0x7U), (ui
 129:Drivers/lvgl/src/extra/themes/mono/../../../../src/hal/../draw/../misc/lv_color.h **** 
 130:Drivers/lvgl/src/extra/themes/mono/../../../../src/hal/../draw/../misc/lv_color.h **** # define LV_COLOR_SET_R16(c, v) (c).ch.red = (uint8_t)((v) & 0x1FU)
 131:Drivers/lvgl/src/extra/themes/mono/../../../../src/hal/../draw/../misc/lv_color.h **** #if LV_COLOR_16_SWAP == 0
 132:Drivers/lvgl/src/extra/themes/mono/../../../../src/hal/../draw/../misc/lv_color.h **** # define LV_COLOR_SET_G16(c, v) (c).ch.green = (uint8_t)((v) & 0x3FU)
 133:Drivers/lvgl/src/extra/themes/mono/../../../../src/hal/../draw/../misc/lv_color.h **** #else
 134:Drivers/lvgl/src/extra/themes/mono/../../../../src/hal/../draw/../misc/lv_color.h **** # define LV_COLOR_SET_G16(c, v) {(c).ch.green_h = (uint8_t)(((v) >> 3) & 0x7); (c).ch.green_l = (ui
 135:Drivers/lvgl/src/extra/themes/mono/../../../../src/hal/../draw/../misc/lv_color.h **** #endif
 136:Drivers/lvgl/src/extra/themes/mono/../../../../src/hal/../draw/../misc/lv_color.h **** # define LV_COLOR_SET_B16(c, v) (c).ch.blue = (uint8_t)((v) & 0x1FU)
 137:Drivers/lvgl/src/extra/themes/mono/../../../../src/hal/../draw/../misc/lv_color.h **** # define LV_COLOR_SET_A16(c, v) do {} while(0)
 138:Drivers/lvgl/src/extra/themes/mono/../../../../src/hal/../draw/../misc/lv_color.h **** 
 139:Drivers/lvgl/src/extra/themes/mono/../../../../src/hal/../draw/../misc/lv_color.h **** # define LV_COLOR_GET_R16(c) (c).ch.red
 140:Drivers/lvgl/src/extra/themes/mono/../../../../src/hal/../draw/../misc/lv_color.h **** #if LV_COLOR_16_SWAP == 0
 141:Drivers/lvgl/src/extra/themes/mono/../../../../src/hal/../draw/../misc/lv_color.h **** # define LV_COLOR_GET_G16(c) (c).ch.green
 142:Drivers/lvgl/src/extra/themes/mono/../../../../src/hal/../draw/../misc/lv_color.h **** #else
 143:Drivers/lvgl/src/extra/themes/mono/../../../../src/hal/../draw/../misc/lv_color.h **** # define LV_COLOR_GET_G16(c) (((c).ch.green_h << 3) + (c).ch.green_l)
 144:Drivers/lvgl/src/extra/themes/mono/../../../../src/hal/../draw/../misc/lv_color.h **** #endif
 145:Drivers/lvgl/src/extra/themes/mono/../../../../src/hal/../draw/../misc/lv_color.h **** # define LV_COLOR_GET_B16(c) (c).ch.blue
 146:Drivers/lvgl/src/extra/themes/mono/../../../../src/hal/../draw/../misc/lv_color.h **** # define LV_COLOR_GET_A16(c) 0xFF
 147:Drivers/lvgl/src/extra/themes/mono/../../../../src/hal/../draw/../misc/lv_color.h **** 
 148:Drivers/lvgl/src/extra/themes/mono/../../../../src/hal/../draw/../misc/lv_color.h **** #if LV_COLOR_16_SWAP == 0
 149:Drivers/lvgl/src/extra/themes/mono/../../../../src/hal/../draw/../misc/lv_color.h **** # define _LV_COLOR_ZERO_INITIALIZER16  {{0x00, 0x00, 0x00}}
 150:Drivers/lvgl/src/extra/themes/mono/../../../../src/hal/../draw/../misc/lv_color.h **** # define LV_COLOR_MAKE16(r8, g8, b8) {{(uint8_t)((b8 >> 3) & 0x1FU), (uint8_t)((g8 >> 2) & 0x3FU), 
 151:Drivers/lvgl/src/extra/themes/mono/../../../../src/hal/../draw/../misc/lv_color.h **** #else
 152:Drivers/lvgl/src/extra/themes/mono/../../../../src/hal/../draw/../misc/lv_color.h **** # define _LV_COLOR_ZERO_INITIALIZER16 {{0x00, 0x00, 0x00, 0x00}}
 153:Drivers/lvgl/src/extra/themes/mono/../../../../src/hal/../draw/../misc/lv_color.h **** # define LV_COLOR_MAKE16(r8, g8, b8) {{(uint8_t)((g8 >> 5) & 0x7U), (uint8_t)((r8 >> 3) & 0x1FU), (
 154:Drivers/lvgl/src/extra/themes/mono/../../../../src/hal/../draw/../misc/lv_color.h **** #endif
 155:Drivers/lvgl/src/extra/themes/mono/../../../../src/hal/../draw/../misc/lv_color.h **** 
 156:Drivers/lvgl/src/extra/themes/mono/../../../../src/hal/../draw/../misc/lv_color.h **** # define LV_COLOR_SET_R32(c, v) (c).ch.red = (uint8_t)((v) & 0xFF)
 157:Drivers/lvgl/src/extra/themes/mono/../../../../src/hal/../draw/../misc/lv_color.h **** # define LV_COLOR_SET_G32(c, v) (c).ch.green = (uint8_t)((v) & 0xFF)
 158:Drivers/lvgl/src/extra/themes/mono/../../../../src/hal/../draw/../misc/lv_color.h **** # define LV_COLOR_SET_B32(c, v) (c).ch.blue = (uint8_t)((v) & 0xFF)
 159:Drivers/lvgl/src/extra/themes/mono/../../../../src/hal/../draw/../misc/lv_color.h **** # define LV_COLOR_SET_A32(c, v) (c).ch.alpha = (uint8_t)((v) & 0xFF)
 160:Drivers/lvgl/src/extra/themes/mono/../../../../src/hal/../draw/../misc/lv_color.h **** 
 161:Drivers/lvgl/src/extra/themes/mono/../../../../src/hal/../draw/../misc/lv_color.h **** # define LV_COLOR_GET_R32(c) (c).ch.red
 162:Drivers/lvgl/src/extra/themes/mono/../../../../src/hal/../draw/../misc/lv_color.h **** # define LV_COLOR_GET_G32(c) (c).ch.green
 163:Drivers/lvgl/src/extra/themes/mono/../../../../src/hal/../draw/../misc/lv_color.h **** # define LV_COLOR_GET_B32(c) (c).ch.blue
 164:Drivers/lvgl/src/extra/themes/mono/../../../../src/hal/../draw/../misc/lv_color.h **** # define LV_COLOR_GET_A32(c) (c).ch.alpha
 165:Drivers/lvgl/src/extra/themes/mono/../../../../src/hal/../draw/../misc/lv_color.h **** 
 166:Drivers/lvgl/src/extra/themes/mono/../../../../src/hal/../draw/../misc/lv_color.h **** # define _LV_COLOR_ZERO_INITIALIZER32  {{0x00, 0x00, 0x00, 0x00}}
 167:Drivers/lvgl/src/extra/themes/mono/../../../../src/hal/../draw/../misc/lv_color.h **** # define LV_COLOR_MAKE32(r8, g8, b8) {{b8, g8, r8, 0xff}} /*Fix 0xff alpha*/
 168:Drivers/lvgl/src/extra/themes/mono/../../../../src/hal/../draw/../misc/lv_color.h **** 
 169:Drivers/lvgl/src/extra/themes/mono/../../../../src/hal/../draw/../misc/lv_color.h **** /*---------------------------------------
 170:Drivers/lvgl/src/extra/themes/mono/../../../../src/hal/../draw/../misc/lv_color.h ****  * Macros for the current color depth
 171:Drivers/lvgl/src/extra/themes/mono/../../../../src/hal/../draw/../misc/lv_color.h ****  * to set/get values of the color channels
 172:Drivers/lvgl/src/extra/themes/mono/../../../../src/hal/../draw/../misc/lv_color.h ****  *------------------------------------------*/
ARM GAS  /var/folders/0z/tsy30v1j4xl4_7kw94k978ww0000gn/T//ccjTTGyJ.s 			page 55


 173:Drivers/lvgl/src/extra/themes/mono/../../../../src/hal/../draw/../misc/lv_color.h **** #define LV_COLOR_SET_R(c, v) LV_CONCAT(LV_COLOR_SET_R, LV_COLOR_DEPTH)(c, v)
 174:Drivers/lvgl/src/extra/themes/mono/../../../../src/hal/../draw/../misc/lv_color.h **** #define LV_COLOR_SET_G(c, v) LV_CONCAT(LV_COLOR_SET_G, LV_COLOR_DEPTH)(c, v)
 175:Drivers/lvgl/src/extra/themes/mono/../../../../src/hal/../draw/../misc/lv_color.h **** #define LV_COLOR_SET_B(c, v) LV_CONCAT(LV_COLOR_SET_B, LV_COLOR_DEPTH)(c, v)
 176:Drivers/lvgl/src/extra/themes/mono/../../../../src/hal/../draw/../misc/lv_color.h **** #define LV_COLOR_SET_A(c, v) LV_CONCAT(LV_COLOR_SET_A, LV_COLOR_DEPTH)(c, v)
 177:Drivers/lvgl/src/extra/themes/mono/../../../../src/hal/../draw/../misc/lv_color.h **** 
 178:Drivers/lvgl/src/extra/themes/mono/../../../../src/hal/../draw/../misc/lv_color.h **** #define LV_COLOR_GET_R(c) LV_CONCAT(LV_COLOR_GET_R, LV_COLOR_DEPTH)(c)
 179:Drivers/lvgl/src/extra/themes/mono/../../../../src/hal/../draw/../misc/lv_color.h **** #define LV_COLOR_GET_G(c) LV_CONCAT(LV_COLOR_GET_G, LV_COLOR_DEPTH)(c)
 180:Drivers/lvgl/src/extra/themes/mono/../../../../src/hal/../draw/../misc/lv_color.h **** #define LV_COLOR_GET_B(c) LV_CONCAT(LV_COLOR_GET_B, LV_COLOR_DEPTH)(c)
 181:Drivers/lvgl/src/extra/themes/mono/../../../../src/hal/../draw/../misc/lv_color.h **** #define LV_COLOR_GET_A(c) LV_CONCAT(LV_COLOR_GET_A, LV_COLOR_DEPTH)(c)
 182:Drivers/lvgl/src/extra/themes/mono/../../../../src/hal/../draw/../misc/lv_color.h **** 
 183:Drivers/lvgl/src/extra/themes/mono/../../../../src/hal/../draw/../misc/lv_color.h **** #define _LV_COLOR_ZERO_INITIALIZER LV_CONCAT(_LV_COLOR_ZERO_INITIALIZER, LV_COLOR_DEPTH)
 184:Drivers/lvgl/src/extra/themes/mono/../../../../src/hal/../draw/../misc/lv_color.h **** #define LV_COLOR_MAKE(r8, g8, b8) LV_CONCAT(LV_COLOR_MAKE, LV_COLOR_DEPTH)(r8, g8, b8)
 185:Drivers/lvgl/src/extra/themes/mono/../../../../src/hal/../draw/../misc/lv_color.h **** 
 186:Drivers/lvgl/src/extra/themes/mono/../../../../src/hal/../draw/../misc/lv_color.h **** /**********************
 187:Drivers/lvgl/src/extra/themes/mono/../../../../src/hal/../draw/../misc/lv_color.h ****  *      TYPEDEFS
 188:Drivers/lvgl/src/extra/themes/mono/../../../../src/hal/../draw/../misc/lv_color.h ****  **********************/
 189:Drivers/lvgl/src/extra/themes/mono/../../../../src/hal/../draw/../misc/lv_color.h **** 
 190:Drivers/lvgl/src/extra/themes/mono/../../../../src/hal/../draw/../misc/lv_color.h **** typedef union {
 191:Drivers/lvgl/src/extra/themes/mono/../../../../src/hal/../draw/../misc/lv_color.h ****     uint8_t full; /*must be declared first to set all bits of byte via initializer list*/
 192:Drivers/lvgl/src/extra/themes/mono/../../../../src/hal/../draw/../misc/lv_color.h ****     union {
 193:Drivers/lvgl/src/extra/themes/mono/../../../../src/hal/../draw/../misc/lv_color.h ****         uint8_t blue : 1;
 194:Drivers/lvgl/src/extra/themes/mono/../../../../src/hal/../draw/../misc/lv_color.h ****         uint8_t green : 1;
 195:Drivers/lvgl/src/extra/themes/mono/../../../../src/hal/../draw/../misc/lv_color.h ****         uint8_t red : 1;
 196:Drivers/lvgl/src/extra/themes/mono/../../../../src/hal/../draw/../misc/lv_color.h ****     } ch;
 197:Drivers/lvgl/src/extra/themes/mono/../../../../src/hal/../draw/../misc/lv_color.h **** } lv_color1_t;
 198:Drivers/lvgl/src/extra/themes/mono/../../../../src/hal/../draw/../misc/lv_color.h **** 
 199:Drivers/lvgl/src/extra/themes/mono/../../../../src/hal/../draw/../misc/lv_color.h **** typedef union {
 200:Drivers/lvgl/src/extra/themes/mono/../../../../src/hal/../draw/../misc/lv_color.h ****     struct {
 201:Drivers/lvgl/src/extra/themes/mono/../../../../src/hal/../draw/../misc/lv_color.h ****         uint8_t blue : 2;
 202:Drivers/lvgl/src/extra/themes/mono/../../../../src/hal/../draw/../misc/lv_color.h ****         uint8_t green : 3;
 203:Drivers/lvgl/src/extra/themes/mono/../../../../src/hal/../draw/../misc/lv_color.h ****         uint8_t red : 3;
 204:Drivers/lvgl/src/extra/themes/mono/../../../../src/hal/../draw/../misc/lv_color.h ****     } ch;
 205:Drivers/lvgl/src/extra/themes/mono/../../../../src/hal/../draw/../misc/lv_color.h ****     uint8_t full;
 206:Drivers/lvgl/src/extra/themes/mono/../../../../src/hal/../draw/../misc/lv_color.h **** } lv_color8_t;
 207:Drivers/lvgl/src/extra/themes/mono/../../../../src/hal/../draw/../misc/lv_color.h **** 
 208:Drivers/lvgl/src/extra/themes/mono/../../../../src/hal/../draw/../misc/lv_color.h **** typedef union {
 209:Drivers/lvgl/src/extra/themes/mono/../../../../src/hal/../draw/../misc/lv_color.h ****     struct {
 210:Drivers/lvgl/src/extra/themes/mono/../../../../src/hal/../draw/../misc/lv_color.h **** #if LV_COLOR_16_SWAP == 0
 211:Drivers/lvgl/src/extra/themes/mono/../../../../src/hal/../draw/../misc/lv_color.h ****         uint16_t blue : 5;
 212:Drivers/lvgl/src/extra/themes/mono/../../../../src/hal/../draw/../misc/lv_color.h ****         uint16_t green : 6;
 213:Drivers/lvgl/src/extra/themes/mono/../../../../src/hal/../draw/../misc/lv_color.h ****         uint16_t red : 5;
 214:Drivers/lvgl/src/extra/themes/mono/../../../../src/hal/../draw/../misc/lv_color.h **** #else
 215:Drivers/lvgl/src/extra/themes/mono/../../../../src/hal/../draw/../misc/lv_color.h ****         uint16_t green_h : 3;
 216:Drivers/lvgl/src/extra/themes/mono/../../../../src/hal/../draw/../misc/lv_color.h ****         uint16_t red : 5;
 217:Drivers/lvgl/src/extra/themes/mono/../../../../src/hal/../draw/../misc/lv_color.h ****         uint16_t blue : 5;
 218:Drivers/lvgl/src/extra/themes/mono/../../../../src/hal/../draw/../misc/lv_color.h ****         uint16_t green_l : 3;
 219:Drivers/lvgl/src/extra/themes/mono/../../../../src/hal/../draw/../misc/lv_color.h **** #endif
 220:Drivers/lvgl/src/extra/themes/mono/../../../../src/hal/../draw/../misc/lv_color.h ****     } ch;
 221:Drivers/lvgl/src/extra/themes/mono/../../../../src/hal/../draw/../misc/lv_color.h ****     uint16_t full;
 222:Drivers/lvgl/src/extra/themes/mono/../../../../src/hal/../draw/../misc/lv_color.h **** } lv_color16_t;
 223:Drivers/lvgl/src/extra/themes/mono/../../../../src/hal/../draw/../misc/lv_color.h **** 
 224:Drivers/lvgl/src/extra/themes/mono/../../../../src/hal/../draw/../misc/lv_color.h **** typedef union {
 225:Drivers/lvgl/src/extra/themes/mono/../../../../src/hal/../draw/../misc/lv_color.h ****     struct {
 226:Drivers/lvgl/src/extra/themes/mono/../../../../src/hal/../draw/../misc/lv_color.h ****         uint8_t blue;
 227:Drivers/lvgl/src/extra/themes/mono/../../../../src/hal/../draw/../misc/lv_color.h ****         uint8_t green;
 228:Drivers/lvgl/src/extra/themes/mono/../../../../src/hal/../draw/../misc/lv_color.h ****         uint8_t red;
 229:Drivers/lvgl/src/extra/themes/mono/../../../../src/hal/../draw/../misc/lv_color.h ****         uint8_t alpha;
ARM GAS  /var/folders/0z/tsy30v1j4xl4_7kw94k978ww0000gn/T//ccjTTGyJ.s 			page 56


 230:Drivers/lvgl/src/extra/themes/mono/../../../../src/hal/../draw/../misc/lv_color.h ****     } ch;
 231:Drivers/lvgl/src/extra/themes/mono/../../../../src/hal/../draw/../misc/lv_color.h ****     uint32_t full;
 232:Drivers/lvgl/src/extra/themes/mono/../../../../src/hal/../draw/../misc/lv_color.h **** } lv_color32_t;
 233:Drivers/lvgl/src/extra/themes/mono/../../../../src/hal/../draw/../misc/lv_color.h **** 
 234:Drivers/lvgl/src/extra/themes/mono/../../../../src/hal/../draw/../misc/lv_color.h **** typedef LV_CONCAT3(uint, LV_COLOR_SIZE, _t) lv_color_int_t;
 235:Drivers/lvgl/src/extra/themes/mono/../../../../src/hal/../draw/../misc/lv_color.h **** typedef LV_CONCAT3(lv_color, LV_COLOR_DEPTH, _t) lv_color_t;
 236:Drivers/lvgl/src/extra/themes/mono/../../../../src/hal/../draw/../misc/lv_color.h **** 
 237:Drivers/lvgl/src/extra/themes/mono/../../../../src/hal/../draw/../misc/lv_color.h **** typedef struct {
 238:Drivers/lvgl/src/extra/themes/mono/../../../../src/hal/../draw/../misc/lv_color.h ****     uint16_t h;
 239:Drivers/lvgl/src/extra/themes/mono/../../../../src/hal/../draw/../misc/lv_color.h ****     uint8_t s;
 240:Drivers/lvgl/src/extra/themes/mono/../../../../src/hal/../draw/../misc/lv_color.h ****     uint8_t v;
 241:Drivers/lvgl/src/extra/themes/mono/../../../../src/hal/../draw/../misc/lv_color.h **** } lv_color_hsv_t;
 242:Drivers/lvgl/src/extra/themes/mono/../../../../src/hal/../draw/../misc/lv_color.h **** 
 243:Drivers/lvgl/src/extra/themes/mono/../../../../src/hal/../draw/../misc/lv_color.h **** //! @cond Doxygen_Suppress
 244:Drivers/lvgl/src/extra/themes/mono/../../../../src/hal/../draw/../misc/lv_color.h **** /*No idea where the guard is required but else throws warnings in the docs*/
 245:Drivers/lvgl/src/extra/themes/mono/../../../../src/hal/../draw/../misc/lv_color.h **** typedef uint8_t lv_opa_t;
 246:Drivers/lvgl/src/extra/themes/mono/../../../../src/hal/../draw/../misc/lv_color.h **** //! @endcond
 247:Drivers/lvgl/src/extra/themes/mono/../../../../src/hal/../draw/../misc/lv_color.h **** 
 248:Drivers/lvgl/src/extra/themes/mono/../../../../src/hal/../draw/../misc/lv_color.h **** struct _lv_color_filter_dsc_t;
 249:Drivers/lvgl/src/extra/themes/mono/../../../../src/hal/../draw/../misc/lv_color.h **** 
 250:Drivers/lvgl/src/extra/themes/mono/../../../../src/hal/../draw/../misc/lv_color.h **** typedef lv_color_t (*lv_color_filter_cb_t)(const struct _lv_color_filter_dsc_t *, lv_color_t, lv_op
 251:Drivers/lvgl/src/extra/themes/mono/../../../../src/hal/../draw/../misc/lv_color.h **** 
 252:Drivers/lvgl/src/extra/themes/mono/../../../../src/hal/../draw/../misc/lv_color.h **** typedef struct _lv_color_filter_dsc_t {
 253:Drivers/lvgl/src/extra/themes/mono/../../../../src/hal/../draw/../misc/lv_color.h ****     lv_color_filter_cb_t filter_cb;
 254:Drivers/lvgl/src/extra/themes/mono/../../../../src/hal/../draw/../misc/lv_color.h ****     void * user_data;
 255:Drivers/lvgl/src/extra/themes/mono/../../../../src/hal/../draw/../misc/lv_color.h **** } lv_color_filter_dsc_t;
 256:Drivers/lvgl/src/extra/themes/mono/../../../../src/hal/../draw/../misc/lv_color.h **** 
 257:Drivers/lvgl/src/extra/themes/mono/../../../../src/hal/../draw/../misc/lv_color.h **** 
 258:Drivers/lvgl/src/extra/themes/mono/../../../../src/hal/../draw/../misc/lv_color.h **** typedef enum {
 259:Drivers/lvgl/src/extra/themes/mono/../../../../src/hal/../draw/../misc/lv_color.h ****     LV_PALETTE_RED,
 260:Drivers/lvgl/src/extra/themes/mono/../../../../src/hal/../draw/../misc/lv_color.h ****     LV_PALETTE_PINK,
 261:Drivers/lvgl/src/extra/themes/mono/../../../../src/hal/../draw/../misc/lv_color.h ****     LV_PALETTE_PURPLE,
 262:Drivers/lvgl/src/extra/themes/mono/../../../../src/hal/../draw/../misc/lv_color.h ****     LV_PALETTE_DEEP_PURPLE,
 263:Drivers/lvgl/src/extra/themes/mono/../../../../src/hal/../draw/../misc/lv_color.h ****     LV_PALETTE_INDIGO,
 264:Drivers/lvgl/src/extra/themes/mono/../../../../src/hal/../draw/../misc/lv_color.h ****     LV_PALETTE_BLUE,
 265:Drivers/lvgl/src/extra/themes/mono/../../../../src/hal/../draw/../misc/lv_color.h ****     LV_PALETTE_LIGHT_BLUE,
 266:Drivers/lvgl/src/extra/themes/mono/../../../../src/hal/../draw/../misc/lv_color.h ****     LV_PALETTE_CYAN,
 267:Drivers/lvgl/src/extra/themes/mono/../../../../src/hal/../draw/../misc/lv_color.h ****     LV_PALETTE_TEAL,
 268:Drivers/lvgl/src/extra/themes/mono/../../../../src/hal/../draw/../misc/lv_color.h ****     LV_PALETTE_GREEN,
 269:Drivers/lvgl/src/extra/themes/mono/../../../../src/hal/../draw/../misc/lv_color.h ****     LV_PALETTE_LIGHT_GREEN,
 270:Drivers/lvgl/src/extra/themes/mono/../../../../src/hal/../draw/../misc/lv_color.h ****     LV_PALETTE_LIME,
 271:Drivers/lvgl/src/extra/themes/mono/../../../../src/hal/../draw/../misc/lv_color.h ****     LV_PALETTE_YELLOW,
 272:Drivers/lvgl/src/extra/themes/mono/../../../../src/hal/../draw/../misc/lv_color.h ****     LV_PALETTE_AMBER,
 273:Drivers/lvgl/src/extra/themes/mono/../../../../src/hal/../draw/../misc/lv_color.h ****     LV_PALETTE_ORANGE,
 274:Drivers/lvgl/src/extra/themes/mono/../../../../src/hal/../draw/../misc/lv_color.h ****     LV_PALETTE_DEEP_ORANGE,
 275:Drivers/lvgl/src/extra/themes/mono/../../../../src/hal/../draw/../misc/lv_color.h ****     LV_PALETTE_BROWN,
 276:Drivers/lvgl/src/extra/themes/mono/../../../../src/hal/../draw/../misc/lv_color.h ****     LV_PALETTE_BLUE_GREY,
 277:Drivers/lvgl/src/extra/themes/mono/../../../../src/hal/../draw/../misc/lv_color.h ****     LV_PALETTE_GREY,
 278:Drivers/lvgl/src/extra/themes/mono/../../../../src/hal/../draw/../misc/lv_color.h ****     _LV_PALETTE_LAST,
 279:Drivers/lvgl/src/extra/themes/mono/../../../../src/hal/../draw/../misc/lv_color.h ****     LV_PALETTE_NONE = 0xff,
 280:Drivers/lvgl/src/extra/themes/mono/../../../../src/hal/../draw/../misc/lv_color.h **** } lv_palette_t;
 281:Drivers/lvgl/src/extra/themes/mono/../../../../src/hal/../draw/../misc/lv_color.h **** 
 282:Drivers/lvgl/src/extra/themes/mono/../../../../src/hal/../draw/../misc/lv_color.h **** /**********************
 283:Drivers/lvgl/src/extra/themes/mono/../../../../src/hal/../draw/../misc/lv_color.h ****  * GLOBAL PROTOTYPES
 284:Drivers/lvgl/src/extra/themes/mono/../../../../src/hal/../draw/../misc/lv_color.h ****  **********************/
 285:Drivers/lvgl/src/extra/themes/mono/../../../../src/hal/../draw/../misc/lv_color.h **** 
 286:Drivers/lvgl/src/extra/themes/mono/../../../../src/hal/../draw/../misc/lv_color.h **** /*In color conversations:
ARM GAS  /var/folders/0z/tsy30v1j4xl4_7kw94k978ww0000gn/T//ccjTTGyJ.s 			page 57


 287:Drivers/lvgl/src/extra/themes/mono/../../../../src/hal/../draw/../misc/lv_color.h ****  * - When converting to bigger color type the LSB weight of 1 LSB is calculated
 288:Drivers/lvgl/src/extra/themes/mono/../../../../src/hal/../draw/../misc/lv_color.h ****  *   E.g. 16 bit Red has 5 bits
 289:Drivers/lvgl/src/extra/themes/mono/../../../../src/hal/../draw/../misc/lv_color.h ****  *         8 bit Red has 3 bits
 290:Drivers/lvgl/src/extra/themes/mono/../../../../src/hal/../draw/../misc/lv_color.h ****  *        ----------------------
 291:Drivers/lvgl/src/extra/themes/mono/../../../../src/hal/../draw/../misc/lv_color.h ****  *        8 bit red LSB = (2^5 - 1) / (2^3 - 1) = 31 / 7 = 4
 292:Drivers/lvgl/src/extra/themes/mono/../../../../src/hal/../draw/../misc/lv_color.h ****  *
 293:Drivers/lvgl/src/extra/themes/mono/../../../../src/hal/../draw/../misc/lv_color.h ****  * - When calculating to smaller color type simply shift out the LSBs
 294:Drivers/lvgl/src/extra/themes/mono/../../../../src/hal/../draw/../misc/lv_color.h ****  *   E.g.  8 bit Red has 3 bits
 295:Drivers/lvgl/src/extra/themes/mono/../../../../src/hal/../draw/../misc/lv_color.h ****  *        16 bit Red has 5 bits
 296:Drivers/lvgl/src/extra/themes/mono/../../../../src/hal/../draw/../misc/lv_color.h ****  *        ----------------------
 297:Drivers/lvgl/src/extra/themes/mono/../../../../src/hal/../draw/../misc/lv_color.h ****  *         Shift right with 5 - 3 = 2
 298:Drivers/lvgl/src/extra/themes/mono/../../../../src/hal/../draw/../misc/lv_color.h ****  */
 299:Drivers/lvgl/src/extra/themes/mono/../../../../src/hal/../draw/../misc/lv_color.h **** static inline uint8_t lv_color_to1(lv_color_t color)
 300:Drivers/lvgl/src/extra/themes/mono/../../../../src/hal/../draw/../misc/lv_color.h **** {
 301:Drivers/lvgl/src/extra/themes/mono/../../../../src/hal/../draw/../misc/lv_color.h **** #if LV_COLOR_DEPTH == 1
 302:Drivers/lvgl/src/extra/themes/mono/../../../../src/hal/../draw/../misc/lv_color.h ****     return color.full;
 303:Drivers/lvgl/src/extra/themes/mono/../../../../src/hal/../draw/../misc/lv_color.h **** #elif LV_COLOR_DEPTH == 8
 304:Drivers/lvgl/src/extra/themes/mono/../../../../src/hal/../draw/../misc/lv_color.h ****     if((LV_COLOR_GET_R(color) & 0x4) || (LV_COLOR_GET_G(color) & 0x4) || (LV_COLOR_GET_B(color) & 0
 305:Drivers/lvgl/src/extra/themes/mono/../../../../src/hal/../draw/../misc/lv_color.h ****         return 1;
 306:Drivers/lvgl/src/extra/themes/mono/../../../../src/hal/../draw/../misc/lv_color.h ****     }
 307:Drivers/lvgl/src/extra/themes/mono/../../../../src/hal/../draw/../misc/lv_color.h ****     else {
 308:Drivers/lvgl/src/extra/themes/mono/../../../../src/hal/../draw/../misc/lv_color.h ****         return 0;
 309:Drivers/lvgl/src/extra/themes/mono/../../../../src/hal/../draw/../misc/lv_color.h ****     }
 310:Drivers/lvgl/src/extra/themes/mono/../../../../src/hal/../draw/../misc/lv_color.h **** #elif LV_COLOR_DEPTH == 16
 311:Drivers/lvgl/src/extra/themes/mono/../../../../src/hal/../draw/../misc/lv_color.h ****     if((LV_COLOR_GET_R(color) & 0x10) || (LV_COLOR_GET_G(color) & 0x20) || (LV_COLOR_GET_B(color) &
 312:Drivers/lvgl/src/extra/themes/mono/../../../../src/hal/../draw/../misc/lv_color.h ****         return 1;
 313:Drivers/lvgl/src/extra/themes/mono/../../../../src/hal/../draw/../misc/lv_color.h ****     }
 314:Drivers/lvgl/src/extra/themes/mono/../../../../src/hal/../draw/../misc/lv_color.h ****     else {
 315:Drivers/lvgl/src/extra/themes/mono/../../../../src/hal/../draw/../misc/lv_color.h ****         return 0;
 316:Drivers/lvgl/src/extra/themes/mono/../../../../src/hal/../draw/../misc/lv_color.h ****     }
 317:Drivers/lvgl/src/extra/themes/mono/../../../../src/hal/../draw/../misc/lv_color.h **** #elif LV_COLOR_DEPTH == 32
 318:Drivers/lvgl/src/extra/themes/mono/../../../../src/hal/../draw/../misc/lv_color.h ****     if((LV_COLOR_GET_R(color) & 0x80) || (LV_COLOR_GET_G(color) & 0x80) || (LV_COLOR_GET_B(color) &
 319:Drivers/lvgl/src/extra/themes/mono/../../../../src/hal/../draw/../misc/lv_color.h ****         return 1;
 320:Drivers/lvgl/src/extra/themes/mono/../../../../src/hal/../draw/../misc/lv_color.h ****     }
 321:Drivers/lvgl/src/extra/themes/mono/../../../../src/hal/../draw/../misc/lv_color.h ****     else {
 322:Drivers/lvgl/src/extra/themes/mono/../../../../src/hal/../draw/../misc/lv_color.h ****         return 0;
 323:Drivers/lvgl/src/extra/themes/mono/../../../../src/hal/../draw/../misc/lv_color.h ****     }
 324:Drivers/lvgl/src/extra/themes/mono/../../../../src/hal/../draw/../misc/lv_color.h **** #endif
 325:Drivers/lvgl/src/extra/themes/mono/../../../../src/hal/../draw/../misc/lv_color.h **** }
 326:Drivers/lvgl/src/extra/themes/mono/../../../../src/hal/../draw/../misc/lv_color.h **** 
 327:Drivers/lvgl/src/extra/themes/mono/../../../../src/hal/../draw/../misc/lv_color.h **** static inline uint8_t lv_color_to8(lv_color_t color)
 328:Drivers/lvgl/src/extra/themes/mono/../../../../src/hal/../draw/../misc/lv_color.h **** {
 329:Drivers/lvgl/src/extra/themes/mono/../../../../src/hal/../draw/../misc/lv_color.h **** #if LV_COLOR_DEPTH == 1
 330:Drivers/lvgl/src/extra/themes/mono/../../../../src/hal/../draw/../misc/lv_color.h ****     if(color.full == 0)
 331:Drivers/lvgl/src/extra/themes/mono/../../../../src/hal/../draw/../misc/lv_color.h ****         return 0;
 332:Drivers/lvgl/src/extra/themes/mono/../../../../src/hal/../draw/../misc/lv_color.h ****     else
 333:Drivers/lvgl/src/extra/themes/mono/../../../../src/hal/../draw/../misc/lv_color.h ****         return 0xFF;
 334:Drivers/lvgl/src/extra/themes/mono/../../../../src/hal/../draw/../misc/lv_color.h **** #elif LV_COLOR_DEPTH == 8
 335:Drivers/lvgl/src/extra/themes/mono/../../../../src/hal/../draw/../misc/lv_color.h ****     return color.full;
 336:Drivers/lvgl/src/extra/themes/mono/../../../../src/hal/../draw/../misc/lv_color.h **** #elif LV_COLOR_DEPTH == 16
 337:Drivers/lvgl/src/extra/themes/mono/../../../../src/hal/../draw/../misc/lv_color.h ****     lv_color8_t ret;
 338:Drivers/lvgl/src/extra/themes/mono/../../../../src/hal/../draw/../misc/lv_color.h ****     LV_COLOR_SET_R8(ret, LV_COLOR_GET_R(color) >> 2); /*5 - 3  = 2*/
 339:Drivers/lvgl/src/extra/themes/mono/../../../../src/hal/../draw/../misc/lv_color.h ****     LV_COLOR_SET_G8(ret, LV_COLOR_GET_G(color) >> 3); /*6 - 3  = 3*/
 340:Drivers/lvgl/src/extra/themes/mono/../../../../src/hal/../draw/../misc/lv_color.h ****     LV_COLOR_SET_B8(ret, LV_COLOR_GET_B(color) >> 3); /*5 - 2  = 3*/
 341:Drivers/lvgl/src/extra/themes/mono/../../../../src/hal/../draw/../misc/lv_color.h ****     return ret.full;
 342:Drivers/lvgl/src/extra/themes/mono/../../../../src/hal/../draw/../misc/lv_color.h **** #elif LV_COLOR_DEPTH == 32
 343:Drivers/lvgl/src/extra/themes/mono/../../../../src/hal/../draw/../misc/lv_color.h ****     lv_color8_t ret;
ARM GAS  /var/folders/0z/tsy30v1j4xl4_7kw94k978ww0000gn/T//ccjTTGyJ.s 			page 58


 344:Drivers/lvgl/src/extra/themes/mono/../../../../src/hal/../draw/../misc/lv_color.h ****     LV_COLOR_SET_R8(ret, LV_COLOR_GET_R(color) >> 5); /*8 - 3  = 5*/
 345:Drivers/lvgl/src/extra/themes/mono/../../../../src/hal/../draw/../misc/lv_color.h ****     LV_COLOR_SET_G8(ret, LV_COLOR_GET_G(color) >> 5); /*8 - 3  = 5*/
 346:Drivers/lvgl/src/extra/themes/mono/../../../../src/hal/../draw/../misc/lv_color.h ****     LV_COLOR_SET_B8(ret, LV_COLOR_GET_B(color) >> 6); /*8 - 2  = 6*/
 347:Drivers/lvgl/src/extra/themes/mono/../../../../src/hal/../draw/../misc/lv_color.h ****     return ret.full;
 348:Drivers/lvgl/src/extra/themes/mono/../../../../src/hal/../draw/../misc/lv_color.h **** #endif
 349:Drivers/lvgl/src/extra/themes/mono/../../../../src/hal/../draw/../misc/lv_color.h **** }
 350:Drivers/lvgl/src/extra/themes/mono/../../../../src/hal/../draw/../misc/lv_color.h **** 
 351:Drivers/lvgl/src/extra/themes/mono/../../../../src/hal/../draw/../misc/lv_color.h **** static inline uint16_t lv_color_to16(lv_color_t color)
 352:Drivers/lvgl/src/extra/themes/mono/../../../../src/hal/../draw/../misc/lv_color.h **** {
 353:Drivers/lvgl/src/extra/themes/mono/../../../../src/hal/../draw/../misc/lv_color.h **** #if LV_COLOR_DEPTH == 1
 354:Drivers/lvgl/src/extra/themes/mono/../../../../src/hal/../draw/../misc/lv_color.h ****     if(color.full == 0)
 355:Drivers/lvgl/src/extra/themes/mono/../../../../src/hal/../draw/../misc/lv_color.h ****         return 0;
 356:Drivers/lvgl/src/extra/themes/mono/../../../../src/hal/../draw/../misc/lv_color.h ****     else
 357:Drivers/lvgl/src/extra/themes/mono/../../../../src/hal/../draw/../misc/lv_color.h ****         return 0xFFFF;
 358:Drivers/lvgl/src/extra/themes/mono/../../../../src/hal/../draw/../misc/lv_color.h **** #elif LV_COLOR_DEPTH == 8
 359:Drivers/lvgl/src/extra/themes/mono/../../../../src/hal/../draw/../misc/lv_color.h ****     lv_color16_t ret;
 360:Drivers/lvgl/src/extra/themes/mono/../../../../src/hal/../draw/../misc/lv_color.h ****     LV_COLOR_SET_R16(ret, LV_COLOR_GET_R(color) * 4);  /*(2^5 - 1)/(2^3 - 1) = 31/7 = 4*/
 361:Drivers/lvgl/src/extra/themes/mono/../../../../src/hal/../draw/../misc/lv_color.h ****     LV_COLOR_SET_G16(ret, LV_COLOR_GET_G(color) * 9);  /*(2^6 - 1)/(2^3 - 1) = 63/7 = 9*/
 362:Drivers/lvgl/src/extra/themes/mono/../../../../src/hal/../draw/../misc/lv_color.h ****     LV_COLOR_SET_B16(ret, LV_COLOR_GET_B(color) * 10); /*(2^5 - 1)/(2^2 - 1) = 31/3 = 10*/
 363:Drivers/lvgl/src/extra/themes/mono/../../../../src/hal/../draw/../misc/lv_color.h ****     return ret.full;
 364:Drivers/lvgl/src/extra/themes/mono/../../../../src/hal/../draw/../misc/lv_color.h **** #elif LV_COLOR_DEPTH == 16
 365:Drivers/lvgl/src/extra/themes/mono/../../../../src/hal/../draw/../misc/lv_color.h ****     return color.full;
 366:Drivers/lvgl/src/extra/themes/mono/../../../../src/hal/../draw/../misc/lv_color.h **** #elif LV_COLOR_DEPTH == 32
 367:Drivers/lvgl/src/extra/themes/mono/../../../../src/hal/../draw/../misc/lv_color.h ****     lv_color16_t ret;
 368:Drivers/lvgl/src/extra/themes/mono/../../../../src/hal/../draw/../misc/lv_color.h ****     LV_COLOR_SET_R16(ret, LV_COLOR_GET_R(color) >> 3); /*8 - 5  = 3*/
 369:Drivers/lvgl/src/extra/themes/mono/../../../../src/hal/../draw/../misc/lv_color.h ****     LV_COLOR_SET_G16(ret, LV_COLOR_GET_G(color) >> 2); /*8 - 6  = 2*/
 370:Drivers/lvgl/src/extra/themes/mono/../../../../src/hal/../draw/../misc/lv_color.h ****     LV_COLOR_SET_B16(ret, LV_COLOR_GET_B(color) >> 3); /*8 - 5  = 3*/
 371:Drivers/lvgl/src/extra/themes/mono/../../../../src/hal/../draw/../misc/lv_color.h ****     return ret.full;
 372:Drivers/lvgl/src/extra/themes/mono/../../../../src/hal/../draw/../misc/lv_color.h **** #endif
 373:Drivers/lvgl/src/extra/themes/mono/../../../../src/hal/../draw/../misc/lv_color.h **** }
 374:Drivers/lvgl/src/extra/themes/mono/../../../../src/hal/../draw/../misc/lv_color.h **** 
 375:Drivers/lvgl/src/extra/themes/mono/../../../../src/hal/../draw/../misc/lv_color.h **** static inline uint32_t lv_color_to32(lv_color_t color)
 376:Drivers/lvgl/src/extra/themes/mono/../../../../src/hal/../draw/../misc/lv_color.h **** {
 377:Drivers/lvgl/src/extra/themes/mono/../../../../src/hal/../draw/../misc/lv_color.h **** #if LV_COLOR_DEPTH == 1
 378:Drivers/lvgl/src/extra/themes/mono/../../../../src/hal/../draw/../misc/lv_color.h ****     if(color.full == 0)
 379:Drivers/lvgl/src/extra/themes/mono/../../../../src/hal/../draw/../misc/lv_color.h ****         return 0xFF000000;
 380:Drivers/lvgl/src/extra/themes/mono/../../../../src/hal/../draw/../misc/lv_color.h ****     else
 381:Drivers/lvgl/src/extra/themes/mono/../../../../src/hal/../draw/../misc/lv_color.h ****         return 0xFFFFFFFF;
 382:Drivers/lvgl/src/extra/themes/mono/../../../../src/hal/../draw/../misc/lv_color.h **** #elif LV_COLOR_DEPTH == 8
 383:Drivers/lvgl/src/extra/themes/mono/../../../../src/hal/../draw/../misc/lv_color.h ****     lv_color32_t ret;
 384:Drivers/lvgl/src/extra/themes/mono/../../../../src/hal/../draw/../misc/lv_color.h ****     LV_COLOR_SET_R32(ret, LV_COLOR_GET_R(color) * 36); /*(2^8 - 1)/(2^3 - 1) = 255/7 = 36*/
 385:Drivers/lvgl/src/extra/themes/mono/../../../../src/hal/../draw/../misc/lv_color.h ****     LV_COLOR_SET_G32(ret, LV_COLOR_GET_G(color) * 36); /*(2^8 - 1)/(2^3 - 1) = 255/7 = 36*/
 386:Drivers/lvgl/src/extra/themes/mono/../../../../src/hal/../draw/../misc/lv_color.h ****     LV_COLOR_SET_B32(ret, LV_COLOR_GET_B(color) * 85); /*(2^8 - 1)/(2^2 - 1) = 255/3 = 85*/
 387:Drivers/lvgl/src/extra/themes/mono/../../../../src/hal/../draw/../misc/lv_color.h ****     LV_COLOR_SET_A32(ret, 0xFF);
 388:Drivers/lvgl/src/extra/themes/mono/../../../../src/hal/../draw/../misc/lv_color.h ****     return ret.full;
 389:Drivers/lvgl/src/extra/themes/mono/../../../../src/hal/../draw/../misc/lv_color.h **** #elif LV_COLOR_DEPTH == 16
 390:Drivers/lvgl/src/extra/themes/mono/../../../../src/hal/../draw/../misc/lv_color.h ****     /**
 391:Drivers/lvgl/src/extra/themes/mono/../../../../src/hal/../draw/../misc/lv_color.h ****      * The floating point math for conversion is:
 392:Drivers/lvgl/src/extra/themes/mono/../../../../src/hal/../draw/../misc/lv_color.h ****      *  valueto = valuefrom * ( (2^bitsto - 1) / (float)(2^bitsfrom - 1) )
 393:Drivers/lvgl/src/extra/themes/mono/../../../../src/hal/../draw/../misc/lv_color.h ****      * The faster integer math for conversion is:
 394:Drivers/lvgl/src/extra/themes/mono/../../../../src/hal/../draw/../misc/lv_color.h ****      *  valueto = ( valuefrom * multiplier + adder ) >> divisor
 395:Drivers/lvgl/src/extra/themes/mono/../../../../src/hal/../draw/../misc/lv_color.h ****      *   multiplier = FLOOR( ( (2^bitsto - 1) << divisor ) / (float)(2^bitsfrom - 1) )
 396:Drivers/lvgl/src/extra/themes/mono/../../../../src/hal/../draw/../misc/lv_color.h ****      *
 397:Drivers/lvgl/src/extra/themes/mono/../../../../src/hal/../draw/../misc/lv_color.h ****      * Find the first divisor where ( adder >> divisor ) <= 0
 398:Drivers/lvgl/src/extra/themes/mono/../../../../src/hal/../draw/../misc/lv_color.h ****      *
 399:Drivers/lvgl/src/extra/themes/mono/../../../../src/hal/../draw/../misc/lv_color.h ****      * 5-bit to 8-bit: ( 31 * multiplier + adder ) >> divisor = 255
 400:Drivers/lvgl/src/extra/themes/mono/../../../../src/hal/../draw/../misc/lv_color.h ****      * divisor  multiplier  adder  min (0)  max (31)
ARM GAS  /var/folders/0z/tsy30v1j4xl4_7kw94k978ww0000gn/T//ccjTTGyJ.s 			page 59


 401:Drivers/lvgl/src/extra/themes/mono/../../../../src/hal/../draw/../misc/lv_color.h ****      *       0           8      7        7       255
 402:Drivers/lvgl/src/extra/themes/mono/../../../../src/hal/../draw/../misc/lv_color.h ****      *       1          16     14        7       255
 403:Drivers/lvgl/src/extra/themes/mono/../../../../src/hal/../draw/../misc/lv_color.h ****      *       2          32     28        7       255
 404:Drivers/lvgl/src/extra/themes/mono/../../../../src/hal/../draw/../misc/lv_color.h ****      *       3          65     25        3       255
 405:Drivers/lvgl/src/extra/themes/mono/../../../../src/hal/../draw/../misc/lv_color.h ****      *       4         131     19        1       255
 406:Drivers/lvgl/src/extra/themes/mono/../../../../src/hal/../draw/../misc/lv_color.h ****      *       5         263      7        0       255
 407:Drivers/lvgl/src/extra/themes/mono/../../../../src/hal/../draw/../misc/lv_color.h ****      *
 408:Drivers/lvgl/src/extra/themes/mono/../../../../src/hal/../draw/../misc/lv_color.h ****      * 6-bit to 8-bit: 255 = ( 63 * multiplier + adder ) >> divisor
 409:Drivers/lvgl/src/extra/themes/mono/../../../../src/hal/../draw/../misc/lv_color.h ****      * divisor  multiplier  adder  min (0)  max (63)
 410:Drivers/lvgl/src/extra/themes/mono/../../../../src/hal/../draw/../misc/lv_color.h ****      *       0           4      3        3       255
 411:Drivers/lvgl/src/extra/themes/mono/../../../../src/hal/../draw/../misc/lv_color.h ****      *       1           8      6        3       255
 412:Drivers/lvgl/src/extra/themes/mono/../../../../src/hal/../draw/../misc/lv_color.h ****      *       2          16     12        3       255
 413:Drivers/lvgl/src/extra/themes/mono/../../../../src/hal/../draw/../misc/lv_color.h ****      *       3          32     24        3       255
 414:Drivers/lvgl/src/extra/themes/mono/../../../../src/hal/../draw/../misc/lv_color.h ****      *       4          64     48        3       255
 415:Drivers/lvgl/src/extra/themes/mono/../../../../src/hal/../draw/../misc/lv_color.h ****      *       5         129     33        1       255
 416:Drivers/lvgl/src/extra/themes/mono/../../../../src/hal/../draw/../misc/lv_color.h ****      *       6         259      3        0       255
 417:Drivers/lvgl/src/extra/themes/mono/../../../../src/hal/../draw/../misc/lv_color.h ****      */
 418:Drivers/lvgl/src/extra/themes/mono/../../../../src/hal/../draw/../misc/lv_color.h **** 
 419:Drivers/lvgl/src/extra/themes/mono/../../../../src/hal/../draw/../misc/lv_color.h ****     lv_color32_t ret;
 420:Drivers/lvgl/src/extra/themes/mono/../../../../src/hal/../draw/../misc/lv_color.h ****     LV_COLOR_SET_R32(ret, (LV_COLOR_GET_R(color) * 263 + 7) >> 5);
 421:Drivers/lvgl/src/extra/themes/mono/../../../../src/hal/../draw/../misc/lv_color.h ****     LV_COLOR_SET_G32(ret, (LV_COLOR_GET_G(color) * 259 + 3) >> 6);
 422:Drivers/lvgl/src/extra/themes/mono/../../../../src/hal/../draw/../misc/lv_color.h ****     LV_COLOR_SET_B32(ret, (LV_COLOR_GET_B(color) * 263 + 7) >> 5);
 423:Drivers/lvgl/src/extra/themes/mono/../../../../src/hal/../draw/../misc/lv_color.h ****     LV_COLOR_SET_A32(ret, 0xFF);
 424:Drivers/lvgl/src/extra/themes/mono/../../../../src/hal/../draw/../misc/lv_color.h ****     return ret.full;
 425:Drivers/lvgl/src/extra/themes/mono/../../../../src/hal/../draw/../misc/lv_color.h **** #elif LV_COLOR_DEPTH == 32
 426:Drivers/lvgl/src/extra/themes/mono/../../../../src/hal/../draw/../misc/lv_color.h ****     return color.full;
 427:Drivers/lvgl/src/extra/themes/mono/../../../../src/hal/../draw/../misc/lv_color.h **** #endif
 428:Drivers/lvgl/src/extra/themes/mono/../../../../src/hal/../draw/../misc/lv_color.h **** }
 429:Drivers/lvgl/src/extra/themes/mono/../../../../src/hal/../draw/../misc/lv_color.h **** 
 430:Drivers/lvgl/src/extra/themes/mono/../../../../src/hal/../draw/../misc/lv_color.h **** //! @cond Doxygen_Suppress
 431:Drivers/lvgl/src/extra/themes/mono/../../../../src/hal/../draw/../misc/lv_color.h **** 
 432:Drivers/lvgl/src/extra/themes/mono/../../../../src/hal/../draw/../misc/lv_color.h **** /**
 433:Drivers/lvgl/src/extra/themes/mono/../../../../src/hal/../draw/../misc/lv_color.h ****  * Mix two colors with a given ratio.
 434:Drivers/lvgl/src/extra/themes/mono/../../../../src/hal/../draw/../misc/lv_color.h ****  * @param c1 the first color to mix (usually the foreground)
 435:Drivers/lvgl/src/extra/themes/mono/../../../../src/hal/../draw/../misc/lv_color.h ****  * @param c2 the second color to mix (usually the background)
 436:Drivers/lvgl/src/extra/themes/mono/../../../../src/hal/../draw/../misc/lv_color.h ****  * @param mix The ratio of the colors. 0: full `c2`, 255: full `c1`, 127: half `c1` and half`c2`
 437:Drivers/lvgl/src/extra/themes/mono/../../../../src/hal/../draw/../misc/lv_color.h ****  * @return the mixed color
 438:Drivers/lvgl/src/extra/themes/mono/../../../../src/hal/../draw/../misc/lv_color.h ****  */
 439:Drivers/lvgl/src/extra/themes/mono/../../../../src/hal/../draw/../misc/lv_color.h **** static inline lv_color_t LV_ATTRIBUTE_FAST_MEM lv_color_mix(lv_color_t c1, lv_color_t c2, uint8_t m
 440:Drivers/lvgl/src/extra/themes/mono/../../../../src/hal/../draw/../misc/lv_color.h **** {
 441:Drivers/lvgl/src/extra/themes/mono/../../../../src/hal/../draw/../misc/lv_color.h ****     lv_color_t ret;
 442:Drivers/lvgl/src/extra/themes/mono/../../../../src/hal/../draw/../misc/lv_color.h **** 
 443:Drivers/lvgl/src/extra/themes/mono/../../../../src/hal/../draw/../misc/lv_color.h **** #if LV_COLOR_DEPTH == 16 && LV_COLOR_MIX_ROUND_OFS == 0
 444:Drivers/lvgl/src/extra/themes/mono/../../../../src/hal/../draw/../misc/lv_color.h **** #if LV_COLOR_16_SWAP == 1
 445:Drivers/lvgl/src/extra/themes/mono/../../../../src/hal/../draw/../misc/lv_color.h ****     c1.full = c1.full << 8 | c1.full >> 8;
 446:Drivers/lvgl/src/extra/themes/mono/../../../../src/hal/../draw/../misc/lv_color.h ****     c2.full = c2.full << 8 | c2.full >> 8;
 447:Drivers/lvgl/src/extra/themes/mono/../../../../src/hal/../draw/../misc/lv_color.h **** #endif
 448:Drivers/lvgl/src/extra/themes/mono/../../../../src/hal/../draw/../misc/lv_color.h ****     /*Source: https://stackoverflow.com/a/50012418/1999969*/
 449:Drivers/lvgl/src/extra/themes/mono/../../../../src/hal/../draw/../misc/lv_color.h ****     mix = (uint32_t)((uint32_t)mix + 4) >> 3;
 450:Drivers/lvgl/src/extra/themes/mono/../../../../src/hal/../draw/../misc/lv_color.h ****     uint32_t bg = (uint32_t)((uint32_t)c2.full | ((uint32_t)c2.full << 16)) &
 451:Drivers/lvgl/src/extra/themes/mono/../../../../src/hal/../draw/../misc/lv_color.h ****                   0x7E0F81F; /*0b00000111111000001111100000011111*/
 452:Drivers/lvgl/src/extra/themes/mono/../../../../src/hal/../draw/../misc/lv_color.h ****     uint32_t fg = (uint32_t)((uint32_t)c1.full | ((uint32_t)c1.full << 16)) & 0x7E0F81F;
 453:Drivers/lvgl/src/extra/themes/mono/../../../../src/hal/../draw/../misc/lv_color.h ****     uint32_t result = ((((fg - bg) * mix) >> 5) + bg) & 0x7E0F81F;
 454:Drivers/lvgl/src/extra/themes/mono/../../../../src/hal/../draw/../misc/lv_color.h ****     ret.full = (uint16_t)((result >> 16) | result);
 455:Drivers/lvgl/src/extra/themes/mono/../../../../src/hal/../draw/../misc/lv_color.h **** #if LV_COLOR_16_SWAP == 1
 456:Drivers/lvgl/src/extra/themes/mono/../../../../src/hal/../draw/../misc/lv_color.h ****     ret.full = ret.full << 8 | ret.full >> 8;
 457:Drivers/lvgl/src/extra/themes/mono/../../../../src/hal/../draw/../misc/lv_color.h **** #endif
ARM GAS  /var/folders/0z/tsy30v1j4xl4_7kw94k978ww0000gn/T//ccjTTGyJ.s 			page 60


 458:Drivers/lvgl/src/extra/themes/mono/../../../../src/hal/../draw/../misc/lv_color.h **** #elif LV_COLOR_DEPTH != 1
 459:Drivers/lvgl/src/extra/themes/mono/../../../../src/hal/../draw/../misc/lv_color.h ****     /*LV_COLOR_DEPTH == 8, 16 or 32*/
 460:Drivers/lvgl/src/extra/themes/mono/../../../../src/hal/../draw/../misc/lv_color.h ****     LV_COLOR_SET_R(ret, LV_UDIV255((uint16_t)LV_COLOR_GET_R(c1) * mix + LV_COLOR_GET_R(c2) *
 461:Drivers/lvgl/src/extra/themes/mono/../../../../src/hal/../draw/../misc/lv_color.h ****                                    (255 - mix) + LV_COLOR_MIX_ROUND_OFS));
 462:Drivers/lvgl/src/extra/themes/mono/../../../../src/hal/../draw/../misc/lv_color.h ****     LV_COLOR_SET_G(ret, LV_UDIV255((uint16_t)LV_COLOR_GET_G(c1) * mix + LV_COLOR_GET_G(c2) *
 463:Drivers/lvgl/src/extra/themes/mono/../../../../src/hal/../draw/../misc/lv_color.h ****                                    (255 - mix) + LV_COLOR_MIX_ROUND_OFS));
 464:Drivers/lvgl/src/extra/themes/mono/../../../../src/hal/../draw/../misc/lv_color.h ****     LV_COLOR_SET_B(ret, LV_UDIV255((uint16_t)LV_COLOR_GET_B(c1) * mix + LV_COLOR_GET_B(c2) *
 465:Drivers/lvgl/src/extra/themes/mono/../../../../src/hal/../draw/../misc/lv_color.h ****                                    (255 - mix) + LV_COLOR_MIX_ROUND_OFS));
 466:Drivers/lvgl/src/extra/themes/mono/../../../../src/hal/../draw/../misc/lv_color.h ****     LV_COLOR_SET_A(ret, 0xFF);
 467:Drivers/lvgl/src/extra/themes/mono/../../../../src/hal/../draw/../misc/lv_color.h **** #else
 468:Drivers/lvgl/src/extra/themes/mono/../../../../src/hal/../draw/../misc/lv_color.h ****     /*LV_COLOR_DEPTH == 1*/
