ARM GAS  /var/folders/0z/tsy30v1j4xl4_7kw94k978ww0000gn/T//ccPhi0Sn.s 			page 1


   1              		.cpu cortex-m4
   2              		.arch armv7e-m
   3              		.fpu fpv4-sp-d16
   4              		.eabi_attribute 27, 1
   5              		.eabi_attribute 28, 1
   6              		.eabi_attribute 20, 1
   7              		.eabi_attribute 21, 1
   8              		.eabi_attribute 23, 3
   9              		.eabi_attribute 24, 1
  10              		.eabi_attribute 25, 1
  11              		.eabi_attribute 26, 1
  12              		.eabi_attribute 30, 1
  13              		.eabi_attribute 34, 1
  14              		.eabi_attribute 18, 4
  15              		.file	"lv_win.c"
  16              		.text
  17              	.Ltext0:
  18              		.cfi_sections	.debug_frame
  19              		.section	.text.lv_win_constructor,"ax",%progbits
  20              		.align	1
  21              		.syntax unified
  22              		.thumb
  23              		.thumb_func
  25              	lv_win_constructor:
  26              	.LVL0:
  27              	.LFB209:
  28              		.file 1 "Drivers/lvgl/src/extra/widgets/win/lv_win.c"
   1:Drivers/lvgl/src/extra/widgets/win/lv_win.c **** /**
   2:Drivers/lvgl/src/extra/widgets/win/lv_win.c ****  * @file lv_win.c
   3:Drivers/lvgl/src/extra/widgets/win/lv_win.c ****  *
   4:Drivers/lvgl/src/extra/widgets/win/lv_win.c ****  */
   5:Drivers/lvgl/src/extra/widgets/win/lv_win.c **** 
   6:Drivers/lvgl/src/extra/widgets/win/lv_win.c **** /*********************
   7:Drivers/lvgl/src/extra/widgets/win/lv_win.c ****  *      INCLUDES
   8:Drivers/lvgl/src/extra/widgets/win/lv_win.c ****  *********************/
   9:Drivers/lvgl/src/extra/widgets/win/lv_win.c **** #include "lv_win.h"
  10:Drivers/lvgl/src/extra/widgets/win/lv_win.c **** #if LV_USE_WIN
  11:Drivers/lvgl/src/extra/widgets/win/lv_win.c **** 
  12:Drivers/lvgl/src/extra/widgets/win/lv_win.c **** 
  13:Drivers/lvgl/src/extra/widgets/win/lv_win.c **** /*********************
  14:Drivers/lvgl/src/extra/widgets/win/lv_win.c ****  *      DEFINES
  15:Drivers/lvgl/src/extra/widgets/win/lv_win.c ****  *********************/
  16:Drivers/lvgl/src/extra/widgets/win/lv_win.c **** 
  17:Drivers/lvgl/src/extra/widgets/win/lv_win.c **** /**********************
  18:Drivers/lvgl/src/extra/widgets/win/lv_win.c ****  *      TYPEDEFS
  19:Drivers/lvgl/src/extra/widgets/win/lv_win.c ****  **********************/
  20:Drivers/lvgl/src/extra/widgets/win/lv_win.c **** 
  21:Drivers/lvgl/src/extra/widgets/win/lv_win.c **** /**********************
  22:Drivers/lvgl/src/extra/widgets/win/lv_win.c ****  *  STATIC PROTOTYPES
  23:Drivers/lvgl/src/extra/widgets/win/lv_win.c ****  **********************/
  24:Drivers/lvgl/src/extra/widgets/win/lv_win.c **** static void lv_win_constructor(const lv_obj_class_t * class_p, lv_obj_t * obj);
  25:Drivers/lvgl/src/extra/widgets/win/lv_win.c **** 
  26:Drivers/lvgl/src/extra/widgets/win/lv_win.c **** /**********************
  27:Drivers/lvgl/src/extra/widgets/win/lv_win.c ****  *  STATIC VARIABLES
  28:Drivers/lvgl/src/extra/widgets/win/lv_win.c ****  **********************/
  29:Drivers/lvgl/src/extra/widgets/win/lv_win.c **** const lv_obj_class_t lv_win_class = {
  30:Drivers/lvgl/src/extra/widgets/win/lv_win.c ****     .constructor_cb = lv_win_constructor,
ARM GAS  /var/folders/0z/tsy30v1j4xl4_7kw94k978ww0000gn/T//ccPhi0Sn.s 			page 2


  31:Drivers/lvgl/src/extra/widgets/win/lv_win.c ****     .width_def = LV_PCT(100),
  32:Drivers/lvgl/src/extra/widgets/win/lv_win.c ****     .height_def = LV_PCT(100),
  33:Drivers/lvgl/src/extra/widgets/win/lv_win.c ****     .base_class = &lv_obj_class,
  34:Drivers/lvgl/src/extra/widgets/win/lv_win.c ****     .instance_size = sizeof(lv_win_t)
  35:Drivers/lvgl/src/extra/widgets/win/lv_win.c **** };
  36:Drivers/lvgl/src/extra/widgets/win/lv_win.c **** static lv_coord_t create_header_height;
  37:Drivers/lvgl/src/extra/widgets/win/lv_win.c **** /**********************
  38:Drivers/lvgl/src/extra/widgets/win/lv_win.c ****  *      MACROS
  39:Drivers/lvgl/src/extra/widgets/win/lv_win.c ****  **********************/
  40:Drivers/lvgl/src/extra/widgets/win/lv_win.c **** 
  41:Drivers/lvgl/src/extra/widgets/win/lv_win.c **** /**********************
  42:Drivers/lvgl/src/extra/widgets/win/lv_win.c ****  *   GLOBAL FUNCTIONS
  43:Drivers/lvgl/src/extra/widgets/win/lv_win.c ****  **********************/
  44:Drivers/lvgl/src/extra/widgets/win/lv_win.c **** 
  45:Drivers/lvgl/src/extra/widgets/win/lv_win.c **** lv_obj_t * lv_win_create(lv_obj_t * parent, lv_coord_t header_height)
  46:Drivers/lvgl/src/extra/widgets/win/lv_win.c **** {
  47:Drivers/lvgl/src/extra/widgets/win/lv_win.c ****     LV_LOG_INFO("begin");
  48:Drivers/lvgl/src/extra/widgets/win/lv_win.c ****     create_header_height = header_height;
  49:Drivers/lvgl/src/extra/widgets/win/lv_win.c **** 
  50:Drivers/lvgl/src/extra/widgets/win/lv_win.c ****     lv_obj_t * obj = lv_obj_class_create_obj(&lv_win_class, parent);
  51:Drivers/lvgl/src/extra/widgets/win/lv_win.c ****     lv_obj_class_init_obj(obj);
  52:Drivers/lvgl/src/extra/widgets/win/lv_win.c ****     return obj;
  53:Drivers/lvgl/src/extra/widgets/win/lv_win.c **** }
  54:Drivers/lvgl/src/extra/widgets/win/lv_win.c **** 
  55:Drivers/lvgl/src/extra/widgets/win/lv_win.c **** lv_obj_t * lv_win_add_title(lv_obj_t * win, const char * txt)
  56:Drivers/lvgl/src/extra/widgets/win/lv_win.c **** {
  57:Drivers/lvgl/src/extra/widgets/win/lv_win.c ****     lv_obj_t * header = lv_win_get_header(win);
  58:Drivers/lvgl/src/extra/widgets/win/lv_win.c ****     lv_obj_t * title = lv_label_create(header);
  59:Drivers/lvgl/src/extra/widgets/win/lv_win.c ****     lv_label_set_long_mode(title, LV_LABEL_LONG_DOT);
  60:Drivers/lvgl/src/extra/widgets/win/lv_win.c ****     lv_label_set_text(title, txt);
  61:Drivers/lvgl/src/extra/widgets/win/lv_win.c ****     lv_obj_set_flex_grow(title, 1);
  62:Drivers/lvgl/src/extra/widgets/win/lv_win.c ****     return title;
  63:Drivers/lvgl/src/extra/widgets/win/lv_win.c **** }
  64:Drivers/lvgl/src/extra/widgets/win/lv_win.c **** 
  65:Drivers/lvgl/src/extra/widgets/win/lv_win.c **** lv_obj_t * lv_win_add_btn(lv_obj_t * win, const void * icon, lv_coord_t btn_w)
  66:Drivers/lvgl/src/extra/widgets/win/lv_win.c **** {
  67:Drivers/lvgl/src/extra/widgets/win/lv_win.c ****     lv_obj_t * header = lv_win_get_header(win);
  68:Drivers/lvgl/src/extra/widgets/win/lv_win.c ****     lv_obj_t * btn = lv_btn_create(header);
  69:Drivers/lvgl/src/extra/widgets/win/lv_win.c ****     lv_obj_set_size(btn, btn_w, LV_PCT(100));
  70:Drivers/lvgl/src/extra/widgets/win/lv_win.c **** 
  71:Drivers/lvgl/src/extra/widgets/win/lv_win.c ****     lv_obj_t * img = lv_img_create(btn);
  72:Drivers/lvgl/src/extra/widgets/win/lv_win.c ****     lv_img_set_src(img, icon);
  73:Drivers/lvgl/src/extra/widgets/win/lv_win.c ****     lv_obj_align(img, LV_ALIGN_CENTER, 0, 0);
  74:Drivers/lvgl/src/extra/widgets/win/lv_win.c **** 
  75:Drivers/lvgl/src/extra/widgets/win/lv_win.c ****     return btn;
  76:Drivers/lvgl/src/extra/widgets/win/lv_win.c **** }
  77:Drivers/lvgl/src/extra/widgets/win/lv_win.c **** 
  78:Drivers/lvgl/src/extra/widgets/win/lv_win.c **** lv_obj_t * lv_win_get_header(lv_obj_t * win)
  79:Drivers/lvgl/src/extra/widgets/win/lv_win.c **** {
  80:Drivers/lvgl/src/extra/widgets/win/lv_win.c ****     return lv_obj_get_child(win, 0);
  81:Drivers/lvgl/src/extra/widgets/win/lv_win.c **** }
  82:Drivers/lvgl/src/extra/widgets/win/lv_win.c **** 
  83:Drivers/lvgl/src/extra/widgets/win/lv_win.c **** lv_obj_t * lv_win_get_content(lv_obj_t * win)
  84:Drivers/lvgl/src/extra/widgets/win/lv_win.c **** {
  85:Drivers/lvgl/src/extra/widgets/win/lv_win.c ****     return lv_obj_get_child(win, 1);
  86:Drivers/lvgl/src/extra/widgets/win/lv_win.c **** }
  87:Drivers/lvgl/src/extra/widgets/win/lv_win.c **** 
ARM GAS  /var/folders/0z/tsy30v1j4xl4_7kw94k978ww0000gn/T//ccPhi0Sn.s 			page 3


  88:Drivers/lvgl/src/extra/widgets/win/lv_win.c **** /**********************
  89:Drivers/lvgl/src/extra/widgets/win/lv_win.c ****  *   STATIC FUNCTIONS
  90:Drivers/lvgl/src/extra/widgets/win/lv_win.c ****  **********************/
  91:Drivers/lvgl/src/extra/widgets/win/lv_win.c **** 
  92:Drivers/lvgl/src/extra/widgets/win/lv_win.c **** static void lv_win_constructor(const lv_obj_class_t * class_p, lv_obj_t * obj)
  93:Drivers/lvgl/src/extra/widgets/win/lv_win.c **** {
  29              		.loc 1 93 1 view -0
  30              		.cfi_startproc
  31              		@ args = 0, pretend = 0, frame = 0
  32              		@ frame_needed = 0, uses_anonymous_args = 0
  33              		.loc 1 93 1 is_stmt 0 view .LVU1
  34 0000 70B5     		push	{r4, r5, r6, lr}
  35              		.cfi_def_cfa_offset 16
  36              		.cfi_offset 4, -16
  37              		.cfi_offset 5, -12
  38              		.cfi_offset 6, -8
  39              		.cfi_offset 14, -4
  40 0002 0C46     		mov	r4, r1
  94:Drivers/lvgl/src/extra/widgets/win/lv_win.c ****     LV_UNUSED(class_p);
  41              		.loc 1 94 5 is_stmt 1 view .LVU2
  95:Drivers/lvgl/src/extra/widgets/win/lv_win.c ****     lv_obj_t * parent = lv_obj_get_parent(obj);
  42              		.loc 1 95 5 view .LVU3
  43              		.loc 1 95 25 is_stmt 0 view .LVU4
  44 0004 0846     		mov	r0, r1
  45              	.LVL1:
  46              		.loc 1 95 25 view .LVU5
  47 0006 FFF7FEFF 		bl	lv_obj_get_parent
  48              	.LVL2:
  49              		.loc 1 95 25 view .LVU6
  50 000a 0646     		mov	r6, r0
  51              	.LVL3:
  96:Drivers/lvgl/src/extra/widgets/win/lv_win.c ****     lv_obj_set_size(obj, lv_obj_get_width(parent), lv_obj_get_height(parent));
  52              		.loc 1 96 5 is_stmt 1 view .LVU7
  53 000c FFF7FEFF 		bl	lv_obj_get_width
  54              	.LVL4:
  55              		.loc 1 96 5 is_stmt 0 view .LVU8
  56 0010 0546     		mov	r5, r0
  57 0012 3046     		mov	r0, r6
  58 0014 FFF7FEFF 		bl	lv_obj_get_height
  59              	.LVL5:
  60 0018 0246     		mov	r2, r0
  61 001a 2946     		mov	r1, r5
  62 001c 2046     		mov	r0, r4
  63 001e FFF7FEFF 		bl	lv_obj_set_size
  64              	.LVL6:
  97:Drivers/lvgl/src/extra/widgets/win/lv_win.c ****     lv_obj_set_flex_flow(obj, LV_FLEX_FLOW_COLUMN);
  65              		.loc 1 97 5 is_stmt 1 view .LVU9
  66 0022 0121     		movs	r1, #1
  67 0024 2046     		mov	r0, r4
  68 0026 FFF7FEFF 		bl	lv_obj_set_flex_flow
  69              	.LVL7:
  98:Drivers/lvgl/src/extra/widgets/win/lv_win.c **** 
  99:Drivers/lvgl/src/extra/widgets/win/lv_win.c ****     lv_obj_t * header = lv_obj_create(obj);
  70              		.loc 1 99 5 view .LVU10
  71              		.loc 1 99 25 is_stmt 0 view .LVU11
  72 002a 2046     		mov	r0, r4
  73 002c FFF7FEFF 		bl	lv_obj_create
ARM GAS  /var/folders/0z/tsy30v1j4xl4_7kw94k978ww0000gn/T//ccPhi0Sn.s 			page 4


  74              	.LVL8:
  75 0030 0546     		mov	r5, r0
  76              	.LVL9:
 100:Drivers/lvgl/src/extra/widgets/win/lv_win.c ****     lv_obj_set_size(header, LV_PCT(100), create_header_height);
  77              		.loc 1 100 5 is_stmt 1 view .LVU12
  78 0032 0F4B     		ldr	r3, .L3
  79 0034 B3F90020 		ldrsh	r2, [r3]
  80 0038 42F26401 		movw	r1, #8292
  81 003c FFF7FEFF 		bl	lv_obj_set_size
  82              	.LVL10:
 101:Drivers/lvgl/src/extra/widgets/win/lv_win.c ****     lv_obj_set_flex_flow(header, LV_FLEX_FLOW_ROW);
  83              		.loc 1 101 5 view .LVU13
  84 0040 0021     		movs	r1, #0
  85 0042 2846     		mov	r0, r5
  86 0044 FFF7FEFF 		bl	lv_obj_set_flex_flow
  87              	.LVL11:
 102:Drivers/lvgl/src/extra/widgets/win/lv_win.c ****     lv_obj_set_flex_align(header, LV_FLEX_ALIGN_START, LV_FLEX_ALIGN_CENTER, LV_FLEX_ALIGN_CENTER);
  88              		.loc 1 102 5 view .LVU14
  89 0048 0223     		movs	r3, #2
  90 004a 1A46     		mov	r2, r3
  91 004c 0021     		movs	r1, #0
  92 004e 2846     		mov	r0, r5
  93 0050 FFF7FEFF 		bl	lv_obj_set_flex_align
  94              	.LVL12:
 103:Drivers/lvgl/src/extra/widgets/win/lv_win.c **** 
 104:Drivers/lvgl/src/extra/widgets/win/lv_win.c ****     lv_obj_t * cont = lv_obj_create(obj);
  95              		.loc 1 104 5 view .LVU15
  96              		.loc 1 104 23 is_stmt 0 view .LVU16
  97 0054 2046     		mov	r0, r4
  98 0056 FFF7FEFF 		bl	lv_obj_create
  99              	.LVL13:
 100 005a 0446     		mov	r4, r0
 101              	.LVL14:
 105:Drivers/lvgl/src/extra/widgets/win/lv_win.c ****     lv_obj_set_flex_grow(cont, 1);
 102              		.loc 1 105 5 is_stmt 1 view .LVU17
 103 005c 0121     		movs	r1, #1
 104 005e FFF7FEFF 		bl	lv_obj_set_flex_grow
 105              	.LVL15:
 106:Drivers/lvgl/src/extra/widgets/win/lv_win.c ****     lv_obj_set_width(cont, LV_PCT(100));
 106              		.loc 1 106 5 view .LVU18
 107 0062 42F26401 		movw	r1, #8292
 108 0066 2046     		mov	r0, r4
 109 0068 FFF7FEFF 		bl	lv_obj_set_width
 110              	.LVL16:
 107:Drivers/lvgl/src/extra/widgets/win/lv_win.c **** }
 111              		.loc 1 107 1 is_stmt 0 view .LVU19
 112 006c 70BD     		pop	{r4, r5, r6, pc}
 113              	.LVL17:
 114              	.L4:
 115              		.loc 1 107 1 view .LVU20
 116 006e 00BF     		.align	2
 117              	.L3:
 118 0070 00000000 		.word	.LANCHOR0
 119              		.cfi_endproc
 120              	.LFE209:
 122              		.section	.text.lv_win_create,"ax",%progbits
 123              		.align	1
ARM GAS  /var/folders/0z/tsy30v1j4xl4_7kw94k978ww0000gn/T//ccPhi0Sn.s 			page 5


 124              		.global	lv_win_create
 125              		.syntax unified
 126              		.thumb
 127              		.thumb_func
 129              	lv_win_create:
 130              	.LVL18:
 131              	.LFB204:
  46:Drivers/lvgl/src/extra/widgets/win/lv_win.c ****     LV_LOG_INFO("begin");
 132              		.loc 1 46 1 is_stmt 1 view -0
 133              		.cfi_startproc
 134              		@ args = 0, pretend = 0, frame = 0
 135              		@ frame_needed = 0, uses_anonymous_args = 0
  46:Drivers/lvgl/src/extra/widgets/win/lv_win.c ****     LV_LOG_INFO("begin");
 136              		.loc 1 46 1 is_stmt 0 view .LVU22
 137 0000 10B5     		push	{r4, lr}
 138              		.cfi_def_cfa_offset 8
 139              		.cfi_offset 4, -8
 140              		.cfi_offset 14, -4
  47:Drivers/lvgl/src/extra/widgets/win/lv_win.c ****     create_header_height = header_height;
 141              		.loc 1 47 5 is_stmt 1 view .LVU23
  47:Drivers/lvgl/src/extra/widgets/win/lv_win.c ****     create_header_height = header_height;
 142              		.loc 1 47 5 view .LVU24
  47:Drivers/lvgl/src/extra/widgets/win/lv_win.c ****     create_header_height = header_height;
 143              		.loc 1 47 5 view .LVU25
  48:Drivers/lvgl/src/extra/widgets/win/lv_win.c **** 
 144              		.loc 1 48 5 view .LVU26
  48:Drivers/lvgl/src/extra/widgets/win/lv_win.c **** 
 145              		.loc 1 48 26 is_stmt 0 view .LVU27
 146 0002 054B     		ldr	r3, .L7
 147 0004 1980     		strh	r1, [r3]	@ movhi
  50:Drivers/lvgl/src/extra/widgets/win/lv_win.c ****     lv_obj_class_init_obj(obj);
 148              		.loc 1 50 5 is_stmt 1 view .LVU28
  50:Drivers/lvgl/src/extra/widgets/win/lv_win.c ****     lv_obj_class_init_obj(obj);
 149              		.loc 1 50 22 is_stmt 0 view .LVU29
 150 0006 0146     		mov	r1, r0
 151              	.LVL19:
  50:Drivers/lvgl/src/extra/widgets/win/lv_win.c ****     lv_obj_class_init_obj(obj);
 152              		.loc 1 50 22 view .LVU30
 153 0008 0448     		ldr	r0, .L7+4
 154              	.LVL20:
  50:Drivers/lvgl/src/extra/widgets/win/lv_win.c ****     lv_obj_class_init_obj(obj);
 155              		.loc 1 50 22 view .LVU31
 156 000a FFF7FEFF 		bl	lv_obj_class_create_obj
 157              	.LVL21:
  50:Drivers/lvgl/src/extra/widgets/win/lv_win.c ****     lv_obj_class_init_obj(obj);
 158              		.loc 1 50 22 view .LVU32
 159 000e 0446     		mov	r4, r0
 160              	.LVL22:
  51:Drivers/lvgl/src/extra/widgets/win/lv_win.c ****     return obj;
 161              		.loc 1 51 5 is_stmt 1 view .LVU33
 162 0010 FFF7FEFF 		bl	lv_obj_class_init_obj
 163              	.LVL23:
  52:Drivers/lvgl/src/extra/widgets/win/lv_win.c **** }
 164              		.loc 1 52 5 view .LVU34
  53:Drivers/lvgl/src/extra/widgets/win/lv_win.c **** 
 165              		.loc 1 53 1 is_stmt 0 view .LVU35
 166 0014 2046     		mov	r0, r4
ARM GAS  /var/folders/0z/tsy30v1j4xl4_7kw94k978ww0000gn/T//ccPhi0Sn.s 			page 6


 167 0016 10BD     		pop	{r4, pc}
 168              	.LVL24:
 169              	.L8:
  53:Drivers/lvgl/src/extra/widgets/win/lv_win.c **** 
 170              		.loc 1 53 1 view .LVU36
 171              		.align	2
 172              	.L7:
 173 0018 00000000 		.word	.LANCHOR0
 174 001c 00000000 		.word	.LANCHOR1
 175              		.cfi_endproc
 176              	.LFE204:
 178              		.section	.text.lv_win_get_header,"ax",%progbits
 179              		.align	1
 180              		.global	lv_win_get_header
 181              		.syntax unified
 182              		.thumb
 183              		.thumb_func
 185              	lv_win_get_header:
 186              	.LVL25:
 187              	.LFB207:
  79:Drivers/lvgl/src/extra/widgets/win/lv_win.c ****     return lv_obj_get_child(win, 0);
 188              		.loc 1 79 1 is_stmt 1 view -0
 189              		.cfi_startproc
 190              		@ args = 0, pretend = 0, frame = 0
 191              		@ frame_needed = 0, uses_anonymous_args = 0
  79:Drivers/lvgl/src/extra/widgets/win/lv_win.c ****     return lv_obj_get_child(win, 0);
 192              		.loc 1 79 1 is_stmt 0 view .LVU38
 193 0000 08B5     		push	{r3, lr}
 194              		.cfi_def_cfa_offset 8
 195              		.cfi_offset 3, -8
 196              		.cfi_offset 14, -4
  80:Drivers/lvgl/src/extra/widgets/win/lv_win.c **** }
 197              		.loc 1 80 5 is_stmt 1 view .LVU39
  80:Drivers/lvgl/src/extra/widgets/win/lv_win.c **** }
 198              		.loc 1 80 12 is_stmt 0 view .LVU40
 199 0002 0021     		movs	r1, #0
 200 0004 FFF7FEFF 		bl	lv_obj_get_child
 201              	.LVL26:
  81:Drivers/lvgl/src/extra/widgets/win/lv_win.c **** 
 202              		.loc 1 81 1 view .LVU41
 203 0008 08BD     		pop	{r3, pc}
 204              		.cfi_endproc
 205              	.LFE207:
 207              		.section	.text.lv_win_add_title,"ax",%progbits
 208              		.align	1
 209              		.global	lv_win_add_title
 210              		.syntax unified
 211              		.thumb
 212              		.thumb_func
 214              	lv_win_add_title:
 215              	.LVL27:
 216              	.LFB205:
  56:Drivers/lvgl/src/extra/widgets/win/lv_win.c ****     lv_obj_t * header = lv_win_get_header(win);
 217              		.loc 1 56 1 is_stmt 1 view -0
 218              		.cfi_startproc
 219              		@ args = 0, pretend = 0, frame = 0
 220              		@ frame_needed = 0, uses_anonymous_args = 0
ARM GAS  /var/folders/0z/tsy30v1j4xl4_7kw94k978ww0000gn/T//ccPhi0Sn.s 			page 7


  56:Drivers/lvgl/src/extra/widgets/win/lv_win.c ****     lv_obj_t * header = lv_win_get_header(win);
 221              		.loc 1 56 1 is_stmt 0 view .LVU43
 222 0000 38B5     		push	{r3, r4, r5, lr}
 223              		.cfi_def_cfa_offset 16
 224              		.cfi_offset 3, -16
 225              		.cfi_offset 4, -12
 226              		.cfi_offset 5, -8
 227              		.cfi_offset 14, -4
 228 0002 0D46     		mov	r5, r1
  57:Drivers/lvgl/src/extra/widgets/win/lv_win.c ****     lv_obj_t * title = lv_label_create(header);
 229              		.loc 1 57 5 is_stmt 1 view .LVU44
  57:Drivers/lvgl/src/extra/widgets/win/lv_win.c ****     lv_obj_t * title = lv_label_create(header);
 230              		.loc 1 57 25 is_stmt 0 view .LVU45
 231 0004 FFF7FEFF 		bl	lv_win_get_header
 232              	.LVL28:
  58:Drivers/lvgl/src/extra/widgets/win/lv_win.c ****     lv_label_set_long_mode(title, LV_LABEL_LONG_DOT);
 233              		.loc 1 58 5 is_stmt 1 view .LVU46
  58:Drivers/lvgl/src/extra/widgets/win/lv_win.c ****     lv_label_set_long_mode(title, LV_LABEL_LONG_DOT);
 234              		.loc 1 58 24 is_stmt 0 view .LVU47
 235 0008 FFF7FEFF 		bl	lv_label_create
 236              	.LVL29:
  58:Drivers/lvgl/src/extra/widgets/win/lv_win.c ****     lv_label_set_long_mode(title, LV_LABEL_LONG_DOT);
 237              		.loc 1 58 24 view .LVU48
 238 000c 0446     		mov	r4, r0
 239              	.LVL30:
  59:Drivers/lvgl/src/extra/widgets/win/lv_win.c ****     lv_label_set_text(title, txt);
 240              		.loc 1 59 5 is_stmt 1 view .LVU49
 241 000e 0121     		movs	r1, #1
 242 0010 FFF7FEFF 		bl	lv_label_set_long_mode
 243              	.LVL31:
  60:Drivers/lvgl/src/extra/widgets/win/lv_win.c ****     lv_obj_set_flex_grow(title, 1);
 244              		.loc 1 60 5 view .LVU50
 245 0014 2946     		mov	r1, r5
 246 0016 2046     		mov	r0, r4
 247 0018 FFF7FEFF 		bl	lv_label_set_text
 248              	.LVL32:
  61:Drivers/lvgl/src/extra/widgets/win/lv_win.c ****     return title;
 249              		.loc 1 61 5 view .LVU51
 250 001c 0121     		movs	r1, #1
 251 001e 2046     		mov	r0, r4
 252 0020 FFF7FEFF 		bl	lv_obj_set_flex_grow
 253              	.LVL33:
  62:Drivers/lvgl/src/extra/widgets/win/lv_win.c **** }
 254              		.loc 1 62 5 view .LVU52
  63:Drivers/lvgl/src/extra/widgets/win/lv_win.c **** 
 255              		.loc 1 63 1 is_stmt 0 view .LVU53
 256 0024 2046     		mov	r0, r4
 257 0026 38BD     		pop	{r3, r4, r5, pc}
  63:Drivers/lvgl/src/extra/widgets/win/lv_win.c **** 
 258              		.loc 1 63 1 view .LVU54
 259              		.cfi_endproc
 260              	.LFE205:
 262              		.section	.text.lv_win_add_btn,"ax",%progbits
 263              		.align	1
 264              		.global	lv_win_add_btn
 265              		.syntax unified
 266              		.thumb
ARM GAS  /var/folders/0z/tsy30v1j4xl4_7kw94k978ww0000gn/T//ccPhi0Sn.s 			page 8


 267              		.thumb_func
 269              	lv_win_add_btn:
 270              	.LVL34:
 271              	.LFB206:
  66:Drivers/lvgl/src/extra/widgets/win/lv_win.c ****     lv_obj_t * header = lv_win_get_header(win);
 272              		.loc 1 66 1 is_stmt 1 view -0
 273              		.cfi_startproc
 274              		@ args = 0, pretend = 0, frame = 0
 275              		@ frame_needed = 0, uses_anonymous_args = 0
  66:Drivers/lvgl/src/extra/widgets/win/lv_win.c ****     lv_obj_t * header = lv_win_get_header(win);
 276              		.loc 1 66 1 is_stmt 0 view .LVU56
 277 0000 70B5     		push	{r4, r5, r6, lr}
 278              		.cfi_def_cfa_offset 16
 279              		.cfi_offset 4, -16
 280              		.cfi_offset 5, -12
 281              		.cfi_offset 6, -8
 282              		.cfi_offset 14, -4
 283 0002 0E46     		mov	r6, r1
 284 0004 1546     		mov	r5, r2
  67:Drivers/lvgl/src/extra/widgets/win/lv_win.c ****     lv_obj_t * btn = lv_btn_create(header);
 285              		.loc 1 67 5 is_stmt 1 view .LVU57
  67:Drivers/lvgl/src/extra/widgets/win/lv_win.c ****     lv_obj_t * btn = lv_btn_create(header);
 286              		.loc 1 67 25 is_stmt 0 view .LVU58
 287 0006 FFF7FEFF 		bl	lv_win_get_header
 288              	.LVL35:
  68:Drivers/lvgl/src/extra/widgets/win/lv_win.c ****     lv_obj_set_size(btn, btn_w, LV_PCT(100));
 289              		.loc 1 68 5 is_stmt 1 view .LVU59
  68:Drivers/lvgl/src/extra/widgets/win/lv_win.c ****     lv_obj_set_size(btn, btn_w, LV_PCT(100));
 290              		.loc 1 68 22 is_stmt 0 view .LVU60
 291 000a FFF7FEFF 		bl	lv_btn_create
 292              	.LVL36:
  68:Drivers/lvgl/src/extra/widgets/win/lv_win.c ****     lv_obj_set_size(btn, btn_w, LV_PCT(100));
 293              		.loc 1 68 22 view .LVU61
 294 000e 0446     		mov	r4, r0
 295              	.LVL37:
  69:Drivers/lvgl/src/extra/widgets/win/lv_win.c **** 
 296              		.loc 1 69 5 is_stmt 1 view .LVU62
 297 0010 42F26402 		movw	r2, #8292
 298 0014 2946     		mov	r1, r5
 299 0016 FFF7FEFF 		bl	lv_obj_set_size
 300              	.LVL38:
  71:Drivers/lvgl/src/extra/widgets/win/lv_win.c ****     lv_img_set_src(img, icon);
 301              		.loc 1 71 5 view .LVU63
  71:Drivers/lvgl/src/extra/widgets/win/lv_win.c ****     lv_img_set_src(img, icon);
 302              		.loc 1 71 22 is_stmt 0 view .LVU64
 303 001a 2046     		mov	r0, r4
 304 001c FFF7FEFF 		bl	lv_img_create
 305              	.LVL39:
 306 0020 0546     		mov	r5, r0
 307              	.LVL40:
  72:Drivers/lvgl/src/extra/widgets/win/lv_win.c ****     lv_obj_align(img, LV_ALIGN_CENTER, 0, 0);
 308              		.loc 1 72 5 is_stmt 1 view .LVU65
 309 0022 3146     		mov	r1, r6
 310 0024 FFF7FEFF 		bl	lv_img_set_src
 311              	.LVL41:
  73:Drivers/lvgl/src/extra/widgets/win/lv_win.c **** 
 312              		.loc 1 73 5 view .LVU66
ARM GAS  /var/folders/0z/tsy30v1j4xl4_7kw94k978ww0000gn/T//ccPhi0Sn.s 			page 9


 313 0028 0023     		movs	r3, #0
 314 002a 1A46     		mov	r2, r3
 315 002c 0921     		movs	r1, #9
 316 002e 2846     		mov	r0, r5
 317 0030 FFF7FEFF 		bl	lv_obj_align
 318              	.LVL42:
  75:Drivers/lvgl/src/extra/widgets/win/lv_win.c **** }
 319              		.loc 1 75 5 view .LVU67
  76:Drivers/lvgl/src/extra/widgets/win/lv_win.c **** 
 320              		.loc 1 76 1 is_stmt 0 view .LVU68
 321 0034 2046     		mov	r0, r4
 322 0036 70BD     		pop	{r4, r5, r6, pc}
  76:Drivers/lvgl/src/extra/widgets/win/lv_win.c **** 
 323              		.loc 1 76 1 view .LVU69
 324              		.cfi_endproc
 325              	.LFE206:
 327              		.section	.text.lv_win_get_content,"ax",%progbits
 328              		.align	1
 329              		.global	lv_win_get_content
 330              		.syntax unified
 331              		.thumb
 332              		.thumb_func
 334              	lv_win_get_content:
 335              	.LVL43:
 336              	.LFB208:
  84:Drivers/lvgl/src/extra/widgets/win/lv_win.c ****     return lv_obj_get_child(win, 1);
 337              		.loc 1 84 1 is_stmt 1 view -0
 338              		.cfi_startproc
 339              		@ args = 0, pretend = 0, frame = 0
 340              		@ frame_needed = 0, uses_anonymous_args = 0
  84:Drivers/lvgl/src/extra/widgets/win/lv_win.c ****     return lv_obj_get_child(win, 1);
 341              		.loc 1 84 1 is_stmt 0 view .LVU71
 342 0000 08B5     		push	{r3, lr}
 343              		.cfi_def_cfa_offset 8
 344              		.cfi_offset 3, -8
 345              		.cfi_offset 14, -4
  85:Drivers/lvgl/src/extra/widgets/win/lv_win.c **** }
 346              		.loc 1 85 5 is_stmt 1 view .LVU72
  85:Drivers/lvgl/src/extra/widgets/win/lv_win.c **** }
 347              		.loc 1 85 12 is_stmt 0 view .LVU73
 348 0002 0121     		movs	r1, #1
 349 0004 FFF7FEFF 		bl	lv_obj_get_child
 350              	.LVL44:
  86:Drivers/lvgl/src/extra/widgets/win/lv_win.c **** 
 351              		.loc 1 86 1 view .LVU74
 352 0008 08BD     		pop	{r3, pc}
 353              		.cfi_endproc
 354              	.LFE208:
 356              		.global	lv_win_class
 357              		.section	.bss.create_header_height,"aw",%nobits
 358              		.align	1
 359              		.set	.LANCHOR0,. + 0
 362              	create_header_height:
 363 0000 0000     		.space	2
 364              		.section	.rodata.lv_win_class,"a"
 365              		.align	2
 366              		.set	.LANCHOR1,. + 0
ARM GAS  /var/folders/0z/tsy30v1j4xl4_7kw94k978ww0000gn/T//ccPhi0Sn.s 			page 10


 369              	lv_win_class:
 370 0000 00000000 		.word	lv_obj_class
 371 0004 00000000 		.word	lv_win_constructor
 372 0008 00000000 		.space	12
 372      00000000 
 372      00000000 
 373 0014 6420     		.short	8292
 374 0016 6420     		.short	8292
 375 0018 40       		.byte	64
 376 0019 02       		.byte	2
 377 001a 00       		.byte	0
 378 001b 00       		.space	1
 379              		.text
 380              	.Letext0:
 381              		.file 2 "/Users/johannes/Library/Application Support/Code/User/globalStorage/bmd.stm32-for-vscode/
 382              		.file 3 "/Users/johannes/Library/Application Support/Code/User/globalStorage/bmd.stm32-for-vscode/
 383              		.file 4 "Drivers/lvgl/src/extra/widgets/win/../../../../src/hal/../draw/../misc/../font/../misc/lv
 384              		.file 5 "Drivers/lvgl/src/extra/widgets/win/../../../../src/hal/../draw/../misc/lv_color.h"
 385              		.file 6 "Drivers/lvgl/src/extra/widgets/win/../../../../src/hal/../draw/../misc/lv_style.h"
 386              		.file 7 "Drivers/lvgl/src/extra/widgets/win/../../../../src/core/lv_obj.h"
 387              		.file 8 "Drivers/lvgl/src/extra/widgets/win/../../../../src/hal/../misc/lv_ll.h"
 388              		.file 9 "Drivers/lvgl/src/extra/widgets/win/../../../../src/core/lv_group.h"
 389              		.file 10 "Drivers/lvgl/src/extra/widgets/win/../../../../src/core/lv_obj_scroll.h"
 390              		.file 11 "Drivers/lvgl/src/extra/widgets/win/../../../../src/core/lv_obj_style.h"
 391              		.file 12 "Drivers/lvgl/src/extra/widgets/win/../../../../src/core/lv_obj_class.h"
 392              		.file 13 "Drivers/lvgl/src/extra/widgets/win/../../../../src/core/lv_event.h"
 393              		.file 14 "Drivers/lvgl/src/extra/widgets/win/../../../../src/widgets/lv_label.h"
 394              		.file 15 "Drivers/lvgl/src/extra/widgets/win/../../../../src/widgets/lv_bar.h"
 395              		.file 16 "Drivers/lvgl/src/extra/widgets/win/../../../../src/extra/layouts/flex/lv_flex.h"
 396              		.file 17 "Drivers/lvgl/src/extra/widgets/win/../../../../src/extra/widgets/imgbtn/lv_imgbtn.h"
 397              		.file 18 "Drivers/lvgl/src/extra/widgets/win/lv_win.h"
 398              		.file 19 "Drivers/lvgl/src/extra/widgets/win/../../../../src/hal/../draw/sw/../../core/lv_obj_pos.
 399              		.file 20 "Drivers/lvgl/src/extra/widgets/win/../../../../src/widgets/lv_img.h"
 400              		.file 21 "Drivers/lvgl/src/extra/widgets/win/../../../../src/core/lv_obj_tree.h"
 401              		.file 22 "Drivers/lvgl/src/extra/widgets/win/../../../../src/widgets/lv_btn.h"
ARM GAS  /var/folders/0z/tsy30v1j4xl4_7kw94k978ww0000gn/T//ccPhi0Sn.s 			page 11

