ARM GAS  /var/folders/0z/tsy30v1j4xl4_7kw94k978ww0000gn/T//cc0qpC5c.s 			page 1


   1              		.cpu cortex-m4
   2              		.arch armv7e-m
   3              		.fpu fpv4-sp-d16
   4              		.eabi_attribute 27, 1
   5              		.eabi_attribute 28, 1
   6              		.eabi_attribute 20, 1
   7              		.eabi_attribute 21, 1
   8              		.eabi_attribute 23, 3
   9              		.eabi_attribute 24, 1
  10              		.eabi_attribute 25, 1
  11              		.eabi_attribute 26, 1
  12              		.eabi_attribute 30, 1
  13              		.eabi_attribute 34, 1
  14              		.eabi_attribute 18, 4
  15              		.file	"main.c"
  16              		.text
  17              	.Ltext0:
  18              		.cfi_sections	.debug_frame
  19              		.section	.text.lv_scr_act,"ax",%progbits
  20              		.align	1
  21              		.syntax unified
  22              		.thumb
  23              		.thumb_func
  25              	lv_scr_act:
  26              	.LFB291:
  27              		.file 1 "Drivers/lvgl/src/core/lv_disp.h"
   1:Drivers/lvgl/src/core/lv_disp.h **** /**
   2:Drivers/lvgl/src/core/lv_disp.h ****  * @file lv_disp.h
   3:Drivers/lvgl/src/core/lv_disp.h ****  *
   4:Drivers/lvgl/src/core/lv_disp.h ****  */
   5:Drivers/lvgl/src/core/lv_disp.h **** 
   6:Drivers/lvgl/src/core/lv_disp.h **** #ifndef LV_DISP_H
   7:Drivers/lvgl/src/core/lv_disp.h **** #define LV_DISP_H
   8:Drivers/lvgl/src/core/lv_disp.h **** 
   9:Drivers/lvgl/src/core/lv_disp.h **** #ifdef __cplusplus
  10:Drivers/lvgl/src/core/lv_disp.h **** extern "C" {
  11:Drivers/lvgl/src/core/lv_disp.h **** #endif
  12:Drivers/lvgl/src/core/lv_disp.h **** 
  13:Drivers/lvgl/src/core/lv_disp.h **** /*********************
  14:Drivers/lvgl/src/core/lv_disp.h ****  *      INCLUDES
  15:Drivers/lvgl/src/core/lv_disp.h ****  *********************/
  16:Drivers/lvgl/src/core/lv_disp.h **** #include "../hal/lv_hal.h"
  17:Drivers/lvgl/src/core/lv_disp.h **** #include "lv_obj.h"
  18:Drivers/lvgl/src/core/lv_disp.h **** #include "lv_theme.h"
  19:Drivers/lvgl/src/core/lv_disp.h **** 
  20:Drivers/lvgl/src/core/lv_disp.h **** /*********************
  21:Drivers/lvgl/src/core/lv_disp.h ****  *      DEFINES
  22:Drivers/lvgl/src/core/lv_disp.h ****  *********************/
  23:Drivers/lvgl/src/core/lv_disp.h **** 
  24:Drivers/lvgl/src/core/lv_disp.h **** /**********************
  25:Drivers/lvgl/src/core/lv_disp.h ****  *      TYPEDEFS
  26:Drivers/lvgl/src/core/lv_disp.h ****  **********************/
  27:Drivers/lvgl/src/core/lv_disp.h **** 
  28:Drivers/lvgl/src/core/lv_disp.h **** typedef enum {
  29:Drivers/lvgl/src/core/lv_disp.h ****     LV_SCR_LOAD_ANIM_NONE,
  30:Drivers/lvgl/src/core/lv_disp.h ****     LV_SCR_LOAD_ANIM_OVER_LEFT,
  31:Drivers/lvgl/src/core/lv_disp.h ****     LV_SCR_LOAD_ANIM_OVER_RIGHT,
ARM GAS  /var/folders/0z/tsy30v1j4xl4_7kw94k978ww0000gn/T//cc0qpC5c.s 			page 2


  32:Drivers/lvgl/src/core/lv_disp.h ****     LV_SCR_LOAD_ANIM_OVER_TOP,
  33:Drivers/lvgl/src/core/lv_disp.h ****     LV_SCR_LOAD_ANIM_OVER_BOTTOM,
  34:Drivers/lvgl/src/core/lv_disp.h ****     LV_SCR_LOAD_ANIM_MOVE_LEFT,
  35:Drivers/lvgl/src/core/lv_disp.h ****     LV_SCR_LOAD_ANIM_MOVE_RIGHT,
  36:Drivers/lvgl/src/core/lv_disp.h ****     LV_SCR_LOAD_ANIM_MOVE_TOP,
  37:Drivers/lvgl/src/core/lv_disp.h ****     LV_SCR_LOAD_ANIM_MOVE_BOTTOM,
  38:Drivers/lvgl/src/core/lv_disp.h ****     LV_SCR_LOAD_ANIM_FADE_IN,
  39:Drivers/lvgl/src/core/lv_disp.h ****     LV_SCR_LOAD_ANIM_FADE_ON = LV_SCR_LOAD_ANIM_FADE_IN, /*For backward compatibility*/
  40:Drivers/lvgl/src/core/lv_disp.h ****     LV_SCR_LOAD_ANIM_FADE_OUT,
  41:Drivers/lvgl/src/core/lv_disp.h ****     LV_SCR_LOAD_ANIM_OUT_LEFT,
  42:Drivers/lvgl/src/core/lv_disp.h ****     LV_SCR_LOAD_ANIM_OUT_RIGHT,
  43:Drivers/lvgl/src/core/lv_disp.h ****     LV_SCR_LOAD_ANIM_OUT_TOP,
  44:Drivers/lvgl/src/core/lv_disp.h ****     LV_SCR_LOAD_ANIM_OUT_BOTTOM,
  45:Drivers/lvgl/src/core/lv_disp.h **** } lv_scr_load_anim_t;
  46:Drivers/lvgl/src/core/lv_disp.h **** 
  47:Drivers/lvgl/src/core/lv_disp.h **** /**********************
  48:Drivers/lvgl/src/core/lv_disp.h ****  * GLOBAL PROTOTYPES
  49:Drivers/lvgl/src/core/lv_disp.h ****  **********************/
  50:Drivers/lvgl/src/core/lv_disp.h **** 
  51:Drivers/lvgl/src/core/lv_disp.h **** /**
  52:Drivers/lvgl/src/core/lv_disp.h ****  * Return with a pointer to the active screen
  53:Drivers/lvgl/src/core/lv_disp.h ****  * @param disp pointer to display which active screen should be get. (NULL to use the default
  54:Drivers/lvgl/src/core/lv_disp.h ****  * screen)
  55:Drivers/lvgl/src/core/lv_disp.h ****  * @return pointer to the active screen object (loaded by 'lv_scr_load()')
  56:Drivers/lvgl/src/core/lv_disp.h ****  */
  57:Drivers/lvgl/src/core/lv_disp.h **** lv_obj_t * lv_disp_get_scr_act(lv_disp_t * disp);
  58:Drivers/lvgl/src/core/lv_disp.h **** 
  59:Drivers/lvgl/src/core/lv_disp.h **** /**
  60:Drivers/lvgl/src/core/lv_disp.h ****  * Return with a pointer to the previous screen. Only used during screen transitions.
  61:Drivers/lvgl/src/core/lv_disp.h ****  * @param disp pointer to display which previous screen should be get. (NULL to use the default
  62:Drivers/lvgl/src/core/lv_disp.h ****  * screen)
  63:Drivers/lvgl/src/core/lv_disp.h ****  * @return pointer to the previous screen object or NULL if not used now
  64:Drivers/lvgl/src/core/lv_disp.h ****  */
  65:Drivers/lvgl/src/core/lv_disp.h **** lv_obj_t * lv_disp_get_scr_prev(lv_disp_t * disp);
  66:Drivers/lvgl/src/core/lv_disp.h **** 
  67:Drivers/lvgl/src/core/lv_disp.h **** /**
  68:Drivers/lvgl/src/core/lv_disp.h ****  * Make a screen active
  69:Drivers/lvgl/src/core/lv_disp.h ****  * @param scr pointer to a screen
  70:Drivers/lvgl/src/core/lv_disp.h ****  */
  71:Drivers/lvgl/src/core/lv_disp.h **** void lv_disp_load_scr(lv_obj_t * scr);
  72:Drivers/lvgl/src/core/lv_disp.h **** 
  73:Drivers/lvgl/src/core/lv_disp.h **** /**
  74:Drivers/lvgl/src/core/lv_disp.h ****  * Return with the top layer. (Same on every screen and it is above the normal screen layer)
  75:Drivers/lvgl/src/core/lv_disp.h ****  * @param disp pointer to display which top layer should be get. (NULL to use the default screen)
  76:Drivers/lvgl/src/core/lv_disp.h ****  * @return pointer to the top layer object (transparent screen sized lv_obj)
  77:Drivers/lvgl/src/core/lv_disp.h ****  */
  78:Drivers/lvgl/src/core/lv_disp.h **** lv_obj_t * lv_disp_get_layer_top(lv_disp_t * disp);
  79:Drivers/lvgl/src/core/lv_disp.h **** 
  80:Drivers/lvgl/src/core/lv_disp.h **** /**
  81:Drivers/lvgl/src/core/lv_disp.h ****  * Return with the sys. layer. (Same on every screen and it is above the normal screen and the top
  82:Drivers/lvgl/src/core/lv_disp.h ****  * layer)
  83:Drivers/lvgl/src/core/lv_disp.h ****  * @param disp pointer to display which sys. layer should be retrieved. (NULL to use the default sc
  84:Drivers/lvgl/src/core/lv_disp.h ****  * @return pointer to the sys layer object (transparent screen sized lv_obj)
  85:Drivers/lvgl/src/core/lv_disp.h ****  */
  86:Drivers/lvgl/src/core/lv_disp.h **** lv_obj_t * lv_disp_get_layer_sys(lv_disp_t * disp);
  87:Drivers/lvgl/src/core/lv_disp.h **** 
  88:Drivers/lvgl/src/core/lv_disp.h **** /**
ARM GAS  /var/folders/0z/tsy30v1j4xl4_7kw94k978ww0000gn/T//cc0qpC5c.s 			page 3


  89:Drivers/lvgl/src/core/lv_disp.h ****  * Set the theme of a display
  90:Drivers/lvgl/src/core/lv_disp.h ****  * @param disp pointer to a display
  91:Drivers/lvgl/src/core/lv_disp.h ****  */
  92:Drivers/lvgl/src/core/lv_disp.h **** void lv_disp_set_theme(lv_disp_t * disp, lv_theme_t * th);
  93:Drivers/lvgl/src/core/lv_disp.h **** 
  94:Drivers/lvgl/src/core/lv_disp.h **** /**
  95:Drivers/lvgl/src/core/lv_disp.h ****  * Get the theme of a display
  96:Drivers/lvgl/src/core/lv_disp.h ****  * @param disp pointer to a display
  97:Drivers/lvgl/src/core/lv_disp.h ****  * @return the display's theme (can be NULL)
  98:Drivers/lvgl/src/core/lv_disp.h ****  */
  99:Drivers/lvgl/src/core/lv_disp.h **** lv_theme_t * lv_disp_get_theme(lv_disp_t * disp);
 100:Drivers/lvgl/src/core/lv_disp.h **** 
 101:Drivers/lvgl/src/core/lv_disp.h **** /**
 102:Drivers/lvgl/src/core/lv_disp.h ****  * Set the background color of a display
 103:Drivers/lvgl/src/core/lv_disp.h ****  * @param disp pointer to a display
 104:Drivers/lvgl/src/core/lv_disp.h ****  * @param color color of the background
 105:Drivers/lvgl/src/core/lv_disp.h ****  */
 106:Drivers/lvgl/src/core/lv_disp.h **** void lv_disp_set_bg_color(lv_disp_t * disp, lv_color_t color);
 107:Drivers/lvgl/src/core/lv_disp.h **** 
 108:Drivers/lvgl/src/core/lv_disp.h **** /**
 109:Drivers/lvgl/src/core/lv_disp.h ****  * Set the background image of a display
 110:Drivers/lvgl/src/core/lv_disp.h ****  * @param disp pointer to a display
 111:Drivers/lvgl/src/core/lv_disp.h ****  * @param img_src path to file or pointer to an `lv_img_dsc_t` variable
 112:Drivers/lvgl/src/core/lv_disp.h ****  */
 113:Drivers/lvgl/src/core/lv_disp.h **** void lv_disp_set_bg_image(lv_disp_t * disp, const void  * img_src);
 114:Drivers/lvgl/src/core/lv_disp.h **** 
 115:Drivers/lvgl/src/core/lv_disp.h **** /**
 116:Drivers/lvgl/src/core/lv_disp.h ****  * Set opacity of the background
 117:Drivers/lvgl/src/core/lv_disp.h ****  * @param disp pointer to a display
 118:Drivers/lvgl/src/core/lv_disp.h ****  * @param opa opacity (0..255)
 119:Drivers/lvgl/src/core/lv_disp.h ****  */
 120:Drivers/lvgl/src/core/lv_disp.h **** void lv_disp_set_bg_opa(lv_disp_t * disp, lv_opa_t opa);
 121:Drivers/lvgl/src/core/lv_disp.h **** 
 122:Drivers/lvgl/src/core/lv_disp.h **** /**
 123:Drivers/lvgl/src/core/lv_disp.h ****  * Switch screen with animation
 124:Drivers/lvgl/src/core/lv_disp.h ****  * @param scr pointer to the new screen to load
 125:Drivers/lvgl/src/core/lv_disp.h ****  * @param anim_type type of the animation from `lv_scr_load_anim_t`, e.g. `LV_SCR_LOAD_ANIM_MOVE_LE
 126:Drivers/lvgl/src/core/lv_disp.h ****  * @param time time of the animation
 127:Drivers/lvgl/src/core/lv_disp.h ****  * @param delay delay before the transition
 128:Drivers/lvgl/src/core/lv_disp.h ****  * @param auto_del true: automatically delete the old screen
 129:Drivers/lvgl/src/core/lv_disp.h ****  */
 130:Drivers/lvgl/src/core/lv_disp.h **** void lv_scr_load_anim(lv_obj_t * scr, lv_scr_load_anim_t anim_type, uint32_t time, uint32_t delay, 
 131:Drivers/lvgl/src/core/lv_disp.h **** 
 132:Drivers/lvgl/src/core/lv_disp.h **** /**
 133:Drivers/lvgl/src/core/lv_disp.h ****  * Get elapsed time since last user activity on a display (e.g. click)
 134:Drivers/lvgl/src/core/lv_disp.h ****  * @param disp pointer to a display (NULL to get the overall smallest inactivity)
 135:Drivers/lvgl/src/core/lv_disp.h ****  * @return elapsed ticks (milliseconds) since the last activity
 136:Drivers/lvgl/src/core/lv_disp.h ****  */
 137:Drivers/lvgl/src/core/lv_disp.h **** uint32_t lv_disp_get_inactive_time(const lv_disp_t * disp);
 138:Drivers/lvgl/src/core/lv_disp.h **** 
 139:Drivers/lvgl/src/core/lv_disp.h **** /**
 140:Drivers/lvgl/src/core/lv_disp.h ****  * Manually trigger an activity on a display
 141:Drivers/lvgl/src/core/lv_disp.h ****  * @param disp pointer to a display (NULL to use the default display)
 142:Drivers/lvgl/src/core/lv_disp.h ****  */
 143:Drivers/lvgl/src/core/lv_disp.h **** void lv_disp_trig_activity(lv_disp_t * disp);
 144:Drivers/lvgl/src/core/lv_disp.h **** 
 145:Drivers/lvgl/src/core/lv_disp.h **** /**
ARM GAS  /var/folders/0z/tsy30v1j4xl4_7kw94k978ww0000gn/T//cc0qpC5c.s 			page 4


 146:Drivers/lvgl/src/core/lv_disp.h ****  * Clean any CPU cache that is related to the display.
 147:Drivers/lvgl/src/core/lv_disp.h ****  * @param disp pointer to a display (NULL to use the default display)
 148:Drivers/lvgl/src/core/lv_disp.h ****  */
 149:Drivers/lvgl/src/core/lv_disp.h **** void lv_disp_clean_dcache(lv_disp_t * disp);
 150:Drivers/lvgl/src/core/lv_disp.h **** 
 151:Drivers/lvgl/src/core/lv_disp.h **** /**
 152:Drivers/lvgl/src/core/lv_disp.h ****  * Temporarily enable and disable the invalidation of the display.
 153:Drivers/lvgl/src/core/lv_disp.h ****  * @param disp pointer to a display (NULL to use the default display)
 154:Drivers/lvgl/src/core/lv_disp.h ****  * @param en true: enable invalidation; false: invalidation
 155:Drivers/lvgl/src/core/lv_disp.h ****  */
 156:Drivers/lvgl/src/core/lv_disp.h **** void lv_disp_enable_invalidation(lv_disp_t * disp, bool en);
 157:Drivers/lvgl/src/core/lv_disp.h **** 
 158:Drivers/lvgl/src/core/lv_disp.h **** /**
 159:Drivers/lvgl/src/core/lv_disp.h ****  * Get display invalidation is enabled.
 160:Drivers/lvgl/src/core/lv_disp.h ****  * @param disp pointer to a display (NULL to use the default display)
 161:Drivers/lvgl/src/core/lv_disp.h ****  * @return return true if invalidation is enabled
 162:Drivers/lvgl/src/core/lv_disp.h ****  */
 163:Drivers/lvgl/src/core/lv_disp.h **** bool lv_disp_is_invalidation_enabled(lv_disp_t * disp);
 164:Drivers/lvgl/src/core/lv_disp.h **** 
 165:Drivers/lvgl/src/core/lv_disp.h **** /**
 166:Drivers/lvgl/src/core/lv_disp.h ****  * Get a pointer to the screen refresher timer to
 167:Drivers/lvgl/src/core/lv_disp.h ****  * modify its parameters with `lv_timer_...` functions.
 168:Drivers/lvgl/src/core/lv_disp.h ****  * @param disp pointer to a display
 169:Drivers/lvgl/src/core/lv_disp.h ****  * @return pointer to the display refresher timer. (NULL on error)
 170:Drivers/lvgl/src/core/lv_disp.h ****  */
 171:Drivers/lvgl/src/core/lv_disp.h **** lv_timer_t * _lv_disp_get_refr_timer(lv_disp_t * disp);
 172:Drivers/lvgl/src/core/lv_disp.h **** 
 173:Drivers/lvgl/src/core/lv_disp.h **** /*------------------------------------------------
 174:Drivers/lvgl/src/core/lv_disp.h ****  * To improve backward compatibility
 175:Drivers/lvgl/src/core/lv_disp.h ****  * Recommended only if you have one display
 176:Drivers/lvgl/src/core/lv_disp.h ****  *------------------------------------------------*/
 177:Drivers/lvgl/src/core/lv_disp.h **** 
 178:Drivers/lvgl/src/core/lv_disp.h **** /**
 179:Drivers/lvgl/src/core/lv_disp.h ****  * Get the active screen of the default display
 180:Drivers/lvgl/src/core/lv_disp.h ****  * @return pointer to the active screen
 181:Drivers/lvgl/src/core/lv_disp.h ****  */
 182:Drivers/lvgl/src/core/lv_disp.h **** static inline lv_obj_t * lv_scr_act(void)
 183:Drivers/lvgl/src/core/lv_disp.h **** {
  28              		.loc 1 183 1 view -0
  29              		.cfi_startproc
  30              		@ args = 0, pretend = 0, frame = 0
  31              		@ frame_needed = 0, uses_anonymous_args = 0
  32 0000 08B5     		push	{r3, lr}
  33              		.cfi_def_cfa_offset 8
  34              		.cfi_offset 3, -8
  35              		.cfi_offset 14, -4
 184:Drivers/lvgl/src/core/lv_disp.h ****     return lv_disp_get_scr_act(lv_disp_get_default());
  36              		.loc 1 184 5 view .LVU1
  37              		.loc 1 184 12 is_stmt 0 view .LVU2
  38 0002 FFF7FEFF 		bl	lv_disp_get_default
  39              	.LVL0:
  40 0006 FFF7FEFF 		bl	lv_disp_get_scr_act
  41              	.LVL1:
 185:Drivers/lvgl/src/core/lv_disp.h **** }
  42              		.loc 1 185 1 view .LVU3
  43 000a 08BD     		pop	{r3, pc}
  44              		.cfi_endproc
ARM GAS  /var/folders/0z/tsy30v1j4xl4_7kw94k978ww0000gn/T//cc0qpC5c.s 			page 5


  45              	.LFE291:
  47              		.section	.text.Error_Handler,"ax",%progbits
  48              		.align	1
  49              		.global	Error_Handler
  50              		.syntax unified
  51              		.thumb
  52              		.thumb_func
  54              	Error_Handler:
  55              	.LFB336:
  56              		.file 2 "Core/Src/main.c"
   1:Core/Src/main.c **** /**
   2:Core/Src/main.c ****  * @file main.c
   3:Core/Src/main.c ****  * @author johannes regnier
   4:Core/Src/main.c ****  * @brief LVGL on STM32f407g-disc / ST7789V 2inch display with DMA support
   5:Core/Src/main.c ****  * @version 0.1
   6:Core/Src/main.c ****  * @date 2023-12-22
   7:Core/Src/main.c ****  * 
   8:Core/Src/main.c ****  * @copyright Copyright (c) 2023
   9:Core/Src/main.c ****  * 
  10:Core/Src/main.c ****  */
  11:Core/Src/main.c **** 
  12:Core/Src/main.c **** /* Includes ------------------------------------------------------------------*/
  13:Core/Src/main.c **** #include "main.h"
  14:Core/Src/main.c **** #include "dma.h"
  15:Core/Src/main.c **** #include "i2s.h"
  16:Core/Src/main.c **** #include "spi.h"
  17:Core/Src/main.c **** #include "gpio.h"
  18:Core/Src/main.c **** 
  19:Core/Src/main.c **** /* Private includes ----------------------------------------------------------*/
  20:Core/Src/main.c **** #include "LCDController.h"
  21:Core/Src/main.c **** #include "st7789v.h"
  22:Core/Src/main.c **** 
  23:Core/Src/main.c **** 
  24:Core/Src/main.c **** /* Private function prototypes -----------------------------------------------*/
  25:Core/Src/main.c **** void SystemClock_Config(void);
  26:Core/Src/main.c **** 
  27:Core/Src/main.c **** /**
  28:Core/Src/main.c ****  * Pin assignment:
  29:Core/Src/main.c ****  * VCC  ------> 5V
  30:Core/Src/main.c ****  * GND  ------> GND
  31:Core/Src/main.c ****  * DIN  ------> PA7 (SPI1_MOSI)
  32:Core/Src/main.c ****  * CLK  ------> PA5 (SPI1_CLK)
  33:Core/Src/main.c ****  * CS   ------> PA4 PA2
  34:Core/Src/main.c ****  * DC   ------> PA1
  35:Core/Src/main.c ****  * RST  ------> PA3
  36:Core/Src/main.c ****  * BL   ------> Not used
  37:Core/Src/main.c ****  */
  38:Core/Src/main.c **** 
  39:Core/Src/main.c **** 
  40:Core/Src/main.c **** 
  41:Core/Src/main.c **** 
  42:Core/Src/main.c **** /**
  43:Core/Src/main.c ****   * @brief  The application entry point.
  44:Core/Src/main.c ****   * @retval int
  45:Core/Src/main.c ****   */
  46:Core/Src/main.c **** int main(void)
  47:Core/Src/main.c **** {
ARM GAS  /var/folders/0z/tsy30v1j4xl4_7kw94k978ww0000gn/T//cc0qpC5c.s 			page 6


  48:Core/Src/main.c **** 
  49:Core/Src/main.c ****   /* MCU Configuration--------------------------------------------------------*/
  50:Core/Src/main.c **** 
  51:Core/Src/main.c ****   /* Reset of all peripherals, Initializes the Flash interface and the Systick. */
  52:Core/Src/main.c ****   HAL_Init();
  53:Core/Src/main.c **** 
  54:Core/Src/main.c **** 
  55:Core/Src/main.c ****   /* Configure the system clock */
  56:Core/Src/main.c ****   SystemClock_Config();
  57:Core/Src/main.c **** 
  58:Core/Src/main.c **** 
  59:Core/Src/main.c ****   /* Initialize all configured peripherals */
  60:Core/Src/main.c ****   MX_GPIO_Init();
  61:Core/Src/main.c ****   MX_DMA_Init();
  62:Core/Src/main.c ****   
  63:Core/Src/main.c ****   MX_SPI1_Init();
  64:Core/Src/main.c **** 
  65:Core/Src/main.c ****   /* USER CODE BEGIN 2 */
  66:Core/Src/main.c ****   lv_init();
  67:Core/Src/main.c ****   lv_port_disp_init();
  68:Core/Src/main.c **** 
  69:Core/Src/main.c ****   // // Change the active screen's background color
  70:Core/Src/main.c ****   lv_obj_set_style_bg_color(lv_scr_act(), lv_color_hex(0x003a57), LV_PART_MAIN);
  71:Core/Src/main.c ****   lv_obj_set_style_text_color(lv_scr_act(), lv_color_hex(0xffffff), LV_PART_MAIN);
  72:Core/Src/main.c **** 
  73:Core/Src/main.c ****   /*Create a spinner*/
  74:Core/Src/main.c ****   lv_obj_t * spinner = lv_spinner_create(lv_scr_act(), 1000, 60);
  75:Core/Src/main.c ****   lv_obj_set_size(spinner, 64, 64);
  76:Core/Src/main.c ****   lv_obj_align(spinner, LV_ALIGN_BOTTOM_MID, 0, 0);
  77:Core/Src/main.c **** 
  78:Core/Src/main.c ****    
  79:Core/Src/main.c ****   /* USER CODE END 2 */
  80:Core/Src/main.c **** 
  81:Core/Src/main.c ****   /* Infinite loop */
  82:Core/Src/main.c ****   /* USER CODE BEGIN WHILE */
  83:Core/Src/main.c ****   while (1)
  84:Core/Src/main.c ****   {
  85:Core/Src/main.c ****     /* USER CODE END WHILE */
  86:Core/Src/main.c ****     lv_timer_handler();  // to be added
  87:Core/Src/main.c **** 	  HAL_Delay(5);  // to be added
  88:Core/Src/main.c ****     /* USER CODE BEGIN 3 */
  89:Core/Src/main.c ****   }
  90:Core/Src/main.c ****   /* USER CODE END 3 */
  91:Core/Src/main.c **** }
  92:Core/Src/main.c **** 
  93:Core/Src/main.c **** /**
  94:Core/Src/main.c ****   * @brief System Clock Configuration
  95:Core/Src/main.c ****   * @retval None
  96:Core/Src/main.c ****   */
  97:Core/Src/main.c **** void SystemClock_Config(void)
  98:Core/Src/main.c **** {
  99:Core/Src/main.c ****   RCC_OscInitTypeDef RCC_OscInitStruct = {0};
 100:Core/Src/main.c ****   RCC_ClkInitTypeDef RCC_ClkInitStruct = {0};
 101:Core/Src/main.c **** 
 102:Core/Src/main.c ****   /** Configure the main internal regulator output voltage
 103:Core/Src/main.c ****   */
 104:Core/Src/main.c ****   __HAL_RCC_PWR_CLK_ENABLE();
ARM GAS  /var/folders/0z/tsy30v1j4xl4_7kw94k978ww0000gn/T//cc0qpC5c.s 			page 7


 105:Core/Src/main.c ****   __HAL_PWR_VOLTAGESCALING_CONFIG(PWR_REGULATOR_VOLTAGE_SCALE1);
 106:Core/Src/main.c **** 
 107:Core/Src/main.c ****   /** Initializes the RCC Oscillators according to the specified parameters
 108:Core/Src/main.c ****   * in the RCC_OscInitTypeDef structure.
 109:Core/Src/main.c ****   */
 110:Core/Src/main.c ****   RCC_OscInitStruct.OscillatorType = RCC_OSCILLATORTYPE_HSE;
 111:Core/Src/main.c ****   RCC_OscInitStruct.HSEState = RCC_HSE_ON;
 112:Core/Src/main.c ****   RCC_OscInitStruct.PLL.PLLState = RCC_PLL_ON;
 113:Core/Src/main.c ****   RCC_OscInitStruct.PLL.PLLSource = RCC_PLLSOURCE_HSE;
 114:Core/Src/main.c ****   RCC_OscInitStruct.PLL.PLLM = 8;
 115:Core/Src/main.c ****   RCC_OscInitStruct.PLL.PLLN = 336;
 116:Core/Src/main.c ****   RCC_OscInitStruct.PLL.PLLP = RCC_PLLP_DIV2;
 117:Core/Src/main.c ****   RCC_OscInitStruct.PLL.PLLQ = 7;
 118:Core/Src/main.c ****   if (HAL_RCC_OscConfig(&RCC_OscInitStruct) != HAL_OK)
 119:Core/Src/main.c ****   {
 120:Core/Src/main.c ****     Error_Handler();
 121:Core/Src/main.c ****   }
 122:Core/Src/main.c **** 
 123:Core/Src/main.c ****   /** Initializes the CPU, AHB and APB buses clocks
 124:Core/Src/main.c ****   */
 125:Core/Src/main.c ****   RCC_ClkInitStruct.ClockType = RCC_CLOCKTYPE_HCLK|RCC_CLOCKTYPE_SYSCLK
 126:Core/Src/main.c ****                               |RCC_CLOCKTYPE_PCLK1|RCC_CLOCKTYPE_PCLK2;
 127:Core/Src/main.c ****   RCC_ClkInitStruct.SYSCLKSource = RCC_SYSCLKSOURCE_PLLCLK;
 128:Core/Src/main.c ****   RCC_ClkInitStruct.AHBCLKDivider = RCC_SYSCLK_DIV1;
 129:Core/Src/main.c ****   RCC_ClkInitStruct.APB1CLKDivider = RCC_HCLK_DIV4;
 130:Core/Src/main.c ****   RCC_ClkInitStruct.APB2CLKDivider = RCC_HCLK_DIV2;
 131:Core/Src/main.c **** 
 132:Core/Src/main.c ****   if (HAL_RCC_ClockConfig(&RCC_ClkInitStruct, FLASH_LATENCY_5) != HAL_OK)
 133:Core/Src/main.c ****   {
 134:Core/Src/main.c ****     Error_Handler();
 135:Core/Src/main.c ****   }
 136:Core/Src/main.c **** }
 137:Core/Src/main.c **** 
 138:Core/Src/main.c **** 
 139:Core/Src/main.c **** /**
 140:Core/Src/main.c ****   * @brief  This function is executed in case of error occurrence.
 141:Core/Src/main.c ****   * @retval None
 142:Core/Src/main.c ****   */
 143:Core/Src/main.c **** void Error_Handler(void)
 144:Core/Src/main.c **** {
  57              		.loc 2 144 1 is_stmt 1 view -0
  58              		.cfi_startproc
  59              		@ Volatile: function does not return.
  60              		@ args = 0, pretend = 0, frame = 0
  61              		@ frame_needed = 0, uses_anonymous_args = 0
  62              		@ link register save eliminated.
 145:Core/Src/main.c ****   /* USER CODE BEGIN Error_Handler_Debug */
 146:Core/Src/main.c ****   /* User can add his own implementation to report the HAL error return state */
 147:Core/Src/main.c ****   __disable_irq();
  63              		.loc 2 147 3 view .LVU5
  64              	.LBB8:
  65              	.LBI8:
  66              		.file 3 "Drivers/CMSIS/Include/cmsis_gcc.h"
   1:Drivers/CMSIS/Include/cmsis_gcc.h **** /**************************************************************************//**
   2:Drivers/CMSIS/Include/cmsis_gcc.h ****  * @file     cmsis_gcc.h
   3:Drivers/CMSIS/Include/cmsis_gcc.h ****  * @brief    CMSIS compiler GCC header file
   4:Drivers/CMSIS/Include/cmsis_gcc.h ****  * @version  V5.0.4
ARM GAS  /var/folders/0z/tsy30v1j4xl4_7kw94k978ww0000gn/T//cc0qpC5c.s 			page 8


   5:Drivers/CMSIS/Include/cmsis_gcc.h ****  * @date     09. April 2018
   6:Drivers/CMSIS/Include/cmsis_gcc.h ****  ******************************************************************************/
   7:Drivers/CMSIS/Include/cmsis_gcc.h **** /*
   8:Drivers/CMSIS/Include/cmsis_gcc.h ****  * Copyright (c) 2009-2018 Arm Limited. All rights reserved.
   9:Drivers/CMSIS/Include/cmsis_gcc.h ****  *
  10:Drivers/CMSIS/Include/cmsis_gcc.h ****  * SPDX-License-Identifier: Apache-2.0
  11:Drivers/CMSIS/Include/cmsis_gcc.h ****  *
  12:Drivers/CMSIS/Include/cmsis_gcc.h ****  * Licensed under the Apache License, Version 2.0 (the License); you may
  13:Drivers/CMSIS/Include/cmsis_gcc.h ****  * not use this file except in compliance with the License.
  14:Drivers/CMSIS/Include/cmsis_gcc.h ****  * You may obtain a copy of the License at
  15:Drivers/CMSIS/Include/cmsis_gcc.h ****  *
  16:Drivers/CMSIS/Include/cmsis_gcc.h ****  * www.apache.org/licenses/LICENSE-2.0
  17:Drivers/CMSIS/Include/cmsis_gcc.h ****  *
  18:Drivers/CMSIS/Include/cmsis_gcc.h ****  * Unless required by applicable law or agreed to in writing, software
  19:Drivers/CMSIS/Include/cmsis_gcc.h ****  * distributed under the License is distributed on an AS IS BASIS, WITHOUT
  20:Drivers/CMSIS/Include/cmsis_gcc.h ****  * WARRANTIES OR CONDITIONS OF ANY KIND, either express or implied.
  21:Drivers/CMSIS/Include/cmsis_gcc.h ****  * See the License for the specific language governing permissions and
  22:Drivers/CMSIS/Include/cmsis_gcc.h ****  * limitations under the License.
  23:Drivers/CMSIS/Include/cmsis_gcc.h ****  */
  24:Drivers/CMSIS/Include/cmsis_gcc.h **** 
  25:Drivers/CMSIS/Include/cmsis_gcc.h **** #ifndef __CMSIS_GCC_H
  26:Drivers/CMSIS/Include/cmsis_gcc.h **** #define __CMSIS_GCC_H
  27:Drivers/CMSIS/Include/cmsis_gcc.h **** 
  28:Drivers/CMSIS/Include/cmsis_gcc.h **** /* ignore some GCC warnings */
  29:Drivers/CMSIS/Include/cmsis_gcc.h **** #pragma GCC diagnostic push
  30:Drivers/CMSIS/Include/cmsis_gcc.h **** #pragma GCC diagnostic ignored "-Wsign-conversion"
  31:Drivers/CMSIS/Include/cmsis_gcc.h **** #pragma GCC diagnostic ignored "-Wconversion"
  32:Drivers/CMSIS/Include/cmsis_gcc.h **** #pragma GCC diagnostic ignored "-Wunused-parameter"
  33:Drivers/CMSIS/Include/cmsis_gcc.h **** 
  34:Drivers/CMSIS/Include/cmsis_gcc.h **** /* Fallback for __has_builtin */
  35:Drivers/CMSIS/Include/cmsis_gcc.h **** #ifndef __has_builtin
  36:Drivers/CMSIS/Include/cmsis_gcc.h ****   #define __has_builtin(x) (0)
  37:Drivers/CMSIS/Include/cmsis_gcc.h **** #endif
  38:Drivers/CMSIS/Include/cmsis_gcc.h **** 
  39:Drivers/CMSIS/Include/cmsis_gcc.h **** /* CMSIS compiler specific defines */
  40:Drivers/CMSIS/Include/cmsis_gcc.h **** #ifndef   __ASM
  41:Drivers/CMSIS/Include/cmsis_gcc.h ****   #define __ASM                                  __asm
  42:Drivers/CMSIS/Include/cmsis_gcc.h **** #endif
  43:Drivers/CMSIS/Include/cmsis_gcc.h **** #ifndef   __INLINE
  44:Drivers/CMSIS/Include/cmsis_gcc.h ****   #define __INLINE                               inline
  45:Drivers/CMSIS/Include/cmsis_gcc.h **** #endif
  46:Drivers/CMSIS/Include/cmsis_gcc.h **** #ifndef   __STATIC_INLINE
  47:Drivers/CMSIS/Include/cmsis_gcc.h ****   #define __STATIC_INLINE                        static inline
  48:Drivers/CMSIS/Include/cmsis_gcc.h **** #endif
  49:Drivers/CMSIS/Include/cmsis_gcc.h **** #ifndef   __STATIC_FORCEINLINE                 
  50:Drivers/CMSIS/Include/cmsis_gcc.h ****   #define __STATIC_FORCEINLINE                   __attribute__((always_inline)) static inline
  51:Drivers/CMSIS/Include/cmsis_gcc.h **** #endif                                           
  52:Drivers/CMSIS/Include/cmsis_gcc.h **** #ifndef   __NO_RETURN
  53:Drivers/CMSIS/Include/cmsis_gcc.h ****   #define __NO_RETURN                            __attribute__((__noreturn__))
  54:Drivers/CMSIS/Include/cmsis_gcc.h **** #endif
  55:Drivers/CMSIS/Include/cmsis_gcc.h **** #ifndef   __USED
  56:Drivers/CMSIS/Include/cmsis_gcc.h ****   #define __USED                                 __attribute__((used))
  57:Drivers/CMSIS/Include/cmsis_gcc.h **** #endif
  58:Drivers/CMSIS/Include/cmsis_gcc.h **** #ifndef   __WEAK
  59:Drivers/CMSIS/Include/cmsis_gcc.h ****   #define __WEAK                                 __attribute__((weak))
  60:Drivers/CMSIS/Include/cmsis_gcc.h **** #endif
  61:Drivers/CMSIS/Include/cmsis_gcc.h **** #ifndef   __PACKED
ARM GAS  /var/folders/0z/tsy30v1j4xl4_7kw94k978ww0000gn/T//cc0qpC5c.s 			page 9


  62:Drivers/CMSIS/Include/cmsis_gcc.h ****   #define __PACKED                               __attribute__((packed, aligned(1)))
  63:Drivers/CMSIS/Include/cmsis_gcc.h **** #endif
  64:Drivers/CMSIS/Include/cmsis_gcc.h **** #ifndef   __PACKED_STRUCT
  65:Drivers/CMSIS/Include/cmsis_gcc.h ****   #define __PACKED_STRUCT                        struct __attribute__((packed, aligned(1)))
  66:Drivers/CMSIS/Include/cmsis_gcc.h **** #endif
  67:Drivers/CMSIS/Include/cmsis_gcc.h **** #ifndef   __PACKED_UNION
  68:Drivers/CMSIS/Include/cmsis_gcc.h ****   #define __PACKED_UNION                         union __attribute__((packed, aligned(1)))
  69:Drivers/CMSIS/Include/cmsis_gcc.h **** #endif
  70:Drivers/CMSIS/Include/cmsis_gcc.h **** #ifndef   __UNALIGNED_UINT32        /* deprecated */
  71:Drivers/CMSIS/Include/cmsis_gcc.h ****   #pragma GCC diagnostic push
  72:Drivers/CMSIS/Include/cmsis_gcc.h ****   #pragma GCC diagnostic ignored "-Wpacked"
  73:Drivers/CMSIS/Include/cmsis_gcc.h ****   #pragma GCC diagnostic ignored "-Wattributes"
  74:Drivers/CMSIS/Include/cmsis_gcc.h ****   struct __attribute__((packed)) T_UINT32 { uint32_t v; };
  75:Drivers/CMSIS/Include/cmsis_gcc.h ****   #pragma GCC diagnostic pop
  76:Drivers/CMSIS/Include/cmsis_gcc.h ****   #define __UNALIGNED_UINT32(x)                  (((struct T_UINT32 *)(x))->v)
  77:Drivers/CMSIS/Include/cmsis_gcc.h **** #endif
  78:Drivers/CMSIS/Include/cmsis_gcc.h **** #ifndef   __UNALIGNED_UINT16_WRITE
  79:Drivers/CMSIS/Include/cmsis_gcc.h ****   #pragma GCC diagnostic push
  80:Drivers/CMSIS/Include/cmsis_gcc.h ****   #pragma GCC diagnostic ignored "-Wpacked"
  81:Drivers/CMSIS/Include/cmsis_gcc.h ****   #pragma GCC diagnostic ignored "-Wattributes"
  82:Drivers/CMSIS/Include/cmsis_gcc.h ****   __PACKED_STRUCT T_UINT16_WRITE { uint16_t v; };
  83:Drivers/CMSIS/Include/cmsis_gcc.h ****   #pragma GCC diagnostic pop
  84:Drivers/CMSIS/Include/cmsis_gcc.h ****   #define __UNALIGNED_UINT16_WRITE(addr, val)    (void)((((struct T_UINT16_WRITE *)(void *)(addr))-
  85:Drivers/CMSIS/Include/cmsis_gcc.h **** #endif
  86:Drivers/CMSIS/Include/cmsis_gcc.h **** #ifndef   __UNALIGNED_UINT16_READ
  87:Drivers/CMSIS/Include/cmsis_gcc.h ****   #pragma GCC diagnostic push
  88:Drivers/CMSIS/Include/cmsis_gcc.h ****   #pragma GCC diagnostic ignored "-Wpacked"
  89:Drivers/CMSIS/Include/cmsis_gcc.h ****   #pragma GCC diagnostic ignored "-Wattributes"
  90:Drivers/CMSIS/Include/cmsis_gcc.h ****   __PACKED_STRUCT T_UINT16_READ { uint16_t v; };
  91:Drivers/CMSIS/Include/cmsis_gcc.h ****   #pragma GCC diagnostic pop
  92:Drivers/CMSIS/Include/cmsis_gcc.h ****   #define __UNALIGNED_UINT16_READ(addr)          (((const struct T_UINT16_READ *)(const void *)(add
  93:Drivers/CMSIS/Include/cmsis_gcc.h **** #endif
  94:Drivers/CMSIS/Include/cmsis_gcc.h **** #ifndef   __UNALIGNED_UINT32_WRITE
  95:Drivers/CMSIS/Include/cmsis_gcc.h ****   #pragma GCC diagnostic push
  96:Drivers/CMSIS/Include/cmsis_gcc.h ****   #pragma GCC diagnostic ignored "-Wpacked"
  97:Drivers/CMSIS/Include/cmsis_gcc.h ****   #pragma GCC diagnostic ignored "-Wattributes"
  98:Drivers/CMSIS/Include/cmsis_gcc.h ****   __PACKED_STRUCT T_UINT32_WRITE { uint32_t v; };
  99:Drivers/CMSIS/Include/cmsis_gcc.h ****   #pragma GCC diagnostic pop
 100:Drivers/CMSIS/Include/cmsis_gcc.h ****   #define __UNALIGNED_UINT32_WRITE(addr, val)    (void)((((struct T_UINT32_WRITE *)(void *)(addr))-
 101:Drivers/CMSIS/Include/cmsis_gcc.h **** #endif
 102:Drivers/CMSIS/Include/cmsis_gcc.h **** #ifndef   __UNALIGNED_UINT32_READ
 103:Drivers/CMSIS/Include/cmsis_gcc.h ****   #pragma GCC diagnostic push
 104:Drivers/CMSIS/Include/cmsis_gcc.h ****   #pragma GCC diagnostic ignored "-Wpacked"
 105:Drivers/CMSIS/Include/cmsis_gcc.h ****   #pragma GCC diagnostic ignored "-Wattributes"
 106:Drivers/CMSIS/Include/cmsis_gcc.h ****   __PACKED_STRUCT T_UINT32_READ { uint32_t v; };
 107:Drivers/CMSIS/Include/cmsis_gcc.h ****   #pragma GCC diagnostic pop
 108:Drivers/CMSIS/Include/cmsis_gcc.h ****   #define __UNALIGNED_UINT32_READ(addr)          (((const struct T_UINT32_READ *)(const void *)(add
 109:Drivers/CMSIS/Include/cmsis_gcc.h **** #endif
 110:Drivers/CMSIS/Include/cmsis_gcc.h **** #ifndef   __ALIGNED
 111:Drivers/CMSIS/Include/cmsis_gcc.h ****   #define __ALIGNED(x)                           __attribute__((aligned(x)))
 112:Drivers/CMSIS/Include/cmsis_gcc.h **** #endif
 113:Drivers/CMSIS/Include/cmsis_gcc.h **** #ifndef   __RESTRICT
 114:Drivers/CMSIS/Include/cmsis_gcc.h ****   #define __RESTRICT                             __restrict
 115:Drivers/CMSIS/Include/cmsis_gcc.h **** #endif
 116:Drivers/CMSIS/Include/cmsis_gcc.h **** 
 117:Drivers/CMSIS/Include/cmsis_gcc.h **** 
 118:Drivers/CMSIS/Include/cmsis_gcc.h **** /* ###########################  Core Function Access  ########################### */
ARM GAS  /var/folders/0z/tsy30v1j4xl4_7kw94k978ww0000gn/T//cc0qpC5c.s 			page 10


 119:Drivers/CMSIS/Include/cmsis_gcc.h **** /** \ingroup  CMSIS_Core_FunctionInterface
 120:Drivers/CMSIS/Include/cmsis_gcc.h ****     \defgroup CMSIS_Core_RegAccFunctions CMSIS Core Register Access Functions
 121:Drivers/CMSIS/Include/cmsis_gcc.h ****   @{
 122:Drivers/CMSIS/Include/cmsis_gcc.h ****  */
 123:Drivers/CMSIS/Include/cmsis_gcc.h **** 
 124:Drivers/CMSIS/Include/cmsis_gcc.h **** /**
 125:Drivers/CMSIS/Include/cmsis_gcc.h ****   \brief   Enable IRQ Interrupts
 126:Drivers/CMSIS/Include/cmsis_gcc.h ****   \details Enables IRQ interrupts by clearing the I-bit in the CPSR.
 127:Drivers/CMSIS/Include/cmsis_gcc.h ****            Can only be executed in Privileged modes.
 128:Drivers/CMSIS/Include/cmsis_gcc.h ****  */
 129:Drivers/CMSIS/Include/cmsis_gcc.h **** __STATIC_FORCEINLINE void __enable_irq(void)
 130:Drivers/CMSIS/Include/cmsis_gcc.h **** {
 131:Drivers/CMSIS/Include/cmsis_gcc.h ****   __ASM volatile ("cpsie i" : : : "memory");
 132:Drivers/CMSIS/Include/cmsis_gcc.h **** }
 133:Drivers/CMSIS/Include/cmsis_gcc.h **** 
 134:Drivers/CMSIS/Include/cmsis_gcc.h **** 
 135:Drivers/CMSIS/Include/cmsis_gcc.h **** /**
 136:Drivers/CMSIS/Include/cmsis_gcc.h ****   \brief   Disable IRQ Interrupts
 137:Drivers/CMSIS/Include/cmsis_gcc.h ****   \details Disables IRQ interrupts by setting the I-bit in the CPSR.
 138:Drivers/CMSIS/Include/cmsis_gcc.h ****            Can only be executed in Privileged modes.
 139:Drivers/CMSIS/Include/cmsis_gcc.h ****  */
 140:Drivers/CMSIS/Include/cmsis_gcc.h **** __STATIC_FORCEINLINE void __disable_irq(void)
  67              		.loc 3 140 27 view .LVU6
  68              	.LBB9:
 141:Drivers/CMSIS/Include/cmsis_gcc.h **** {
 142:Drivers/CMSIS/Include/cmsis_gcc.h ****   __ASM volatile ("cpsid i" : : : "memory");
  69              		.loc 3 142 3 view .LVU7
  70              		.syntax unified
  71              	@ 142 "Drivers/CMSIS/Include/cmsis_gcc.h" 1
  72 0000 72B6     		cpsid i
  73              	@ 0 "" 2
  74              		.thumb
  75              		.syntax unified
  76              	.L4:
  77              	.LBE9:
  78              	.LBE8:
 148:Core/Src/main.c ****   while (1)
  79              		.loc 2 148 3 discriminator 1 view .LVU8
 149:Core/Src/main.c ****   {
 150:Core/Src/main.c ****   }
  80              		.loc 2 150 3 discriminator 1 view .LVU9
 148:Core/Src/main.c ****   while (1)
  81              		.loc 2 148 9 discriminator 1 view .LVU10
  82 0002 FEE7     		b	.L4
  83              		.cfi_endproc
  84              	.LFE336:
  86              		.section	.text.SystemClock_Config,"ax",%progbits
  87              		.align	1
  88              		.global	SystemClock_Config
  89              		.syntax unified
  90              		.thumb
  91              		.thumb_func
  93              	SystemClock_Config:
  94              	.LFB335:
  98:Core/Src/main.c ****   RCC_OscInitTypeDef RCC_OscInitStruct = {0};
  95              		.loc 2 98 1 view -0
  96              		.cfi_startproc
ARM GAS  /var/folders/0z/tsy30v1j4xl4_7kw94k978ww0000gn/T//cc0qpC5c.s 			page 11


  97              		@ args = 0, pretend = 0, frame = 80
  98              		@ frame_needed = 0, uses_anonymous_args = 0
  99 0000 00B5     		push	{lr}
 100              		.cfi_def_cfa_offset 4
 101              		.cfi_offset 14, -4
 102 0002 95B0     		sub	sp, sp, #84
 103              		.cfi_def_cfa_offset 88
  99:Core/Src/main.c ****   RCC_ClkInitTypeDef RCC_ClkInitStruct = {0};
 104              		.loc 2 99 3 view .LVU12
  99:Core/Src/main.c ****   RCC_ClkInitTypeDef RCC_ClkInitStruct = {0};
 105              		.loc 2 99 22 is_stmt 0 view .LVU13
 106 0004 3022     		movs	r2, #48
 107 0006 0021     		movs	r1, #0
 108 0008 08A8     		add	r0, sp, #32
 109 000a FFF7FEFF 		bl	memset
 110              	.LVL2:
 100:Core/Src/main.c **** 
 111              		.loc 2 100 3 is_stmt 1 view .LVU14
 100:Core/Src/main.c **** 
 112              		.loc 2 100 22 is_stmt 0 view .LVU15
 113 000e 0023     		movs	r3, #0
 114 0010 0393     		str	r3, [sp, #12]
 115 0012 0493     		str	r3, [sp, #16]
 116 0014 0593     		str	r3, [sp, #20]
 117 0016 0693     		str	r3, [sp, #24]
 118 0018 0793     		str	r3, [sp, #28]
 104:Core/Src/main.c ****   __HAL_PWR_VOLTAGESCALING_CONFIG(PWR_REGULATOR_VOLTAGE_SCALE1);
 119              		.loc 2 104 3 is_stmt 1 view .LVU16
 120              	.LBB10:
 104:Core/Src/main.c ****   __HAL_PWR_VOLTAGESCALING_CONFIG(PWR_REGULATOR_VOLTAGE_SCALE1);
 121              		.loc 2 104 3 view .LVU17
 122 001a 0193     		str	r3, [sp, #4]
 104:Core/Src/main.c ****   __HAL_PWR_VOLTAGESCALING_CONFIG(PWR_REGULATOR_VOLTAGE_SCALE1);
 123              		.loc 2 104 3 view .LVU18
 124 001c 214A     		ldr	r2, .L11
 125 001e 116C     		ldr	r1, [r2, #64]
 126 0020 41F08051 		orr	r1, r1, #268435456
 127 0024 1164     		str	r1, [r2, #64]
 104:Core/Src/main.c ****   __HAL_PWR_VOLTAGESCALING_CONFIG(PWR_REGULATOR_VOLTAGE_SCALE1);
 128              		.loc 2 104 3 view .LVU19
 129 0026 126C     		ldr	r2, [r2, #64]
 130 0028 02F08052 		and	r2, r2, #268435456
 131 002c 0192     		str	r2, [sp, #4]
 104:Core/Src/main.c ****   __HAL_PWR_VOLTAGESCALING_CONFIG(PWR_REGULATOR_VOLTAGE_SCALE1);
 132              		.loc 2 104 3 view .LVU20
 133 002e 019A     		ldr	r2, [sp, #4]
 134              	.LBE10:
 104:Core/Src/main.c ****   __HAL_PWR_VOLTAGESCALING_CONFIG(PWR_REGULATOR_VOLTAGE_SCALE1);
 135              		.loc 2 104 3 view .LVU21
 105:Core/Src/main.c **** 
 136              		.loc 2 105 3 view .LVU22
 137              	.LBB11:
 105:Core/Src/main.c **** 
 138              		.loc 2 105 3 view .LVU23
 139 0030 0293     		str	r3, [sp, #8]
 105:Core/Src/main.c **** 
 140              		.loc 2 105 3 view .LVU24
ARM GAS  /var/folders/0z/tsy30v1j4xl4_7kw94k978ww0000gn/T//cc0qpC5c.s 			page 12


 141 0032 1D4B     		ldr	r3, .L11+4
 142 0034 1A68     		ldr	r2, [r3]
 143 0036 42F48042 		orr	r2, r2, #16384
 144 003a 1A60     		str	r2, [r3]
 105:Core/Src/main.c **** 
 145              		.loc 2 105 3 view .LVU25
 146 003c 1B68     		ldr	r3, [r3]
 147 003e 03F48043 		and	r3, r3, #16384
 148 0042 0293     		str	r3, [sp, #8]
 105:Core/Src/main.c **** 
 149              		.loc 2 105 3 view .LVU26
 150 0044 029B     		ldr	r3, [sp, #8]
 151              	.LBE11:
 105:Core/Src/main.c **** 
 152              		.loc 2 105 3 view .LVU27
 110:Core/Src/main.c ****   RCC_OscInitStruct.HSEState = RCC_HSE_ON;
 153              		.loc 2 110 3 view .LVU28
 110:Core/Src/main.c ****   RCC_OscInitStruct.HSEState = RCC_HSE_ON;
 154              		.loc 2 110 36 is_stmt 0 view .LVU29
 155 0046 0123     		movs	r3, #1
 156 0048 0893     		str	r3, [sp, #32]
 111:Core/Src/main.c ****   RCC_OscInitStruct.PLL.PLLState = RCC_PLL_ON;
 157              		.loc 2 111 3 is_stmt 1 view .LVU30
 111:Core/Src/main.c ****   RCC_OscInitStruct.PLL.PLLState = RCC_PLL_ON;
 158              		.loc 2 111 30 is_stmt 0 view .LVU31
 159 004a 4FF48033 		mov	r3, #65536
 160 004e 0993     		str	r3, [sp, #36]
 112:Core/Src/main.c ****   RCC_OscInitStruct.PLL.PLLSource = RCC_PLLSOURCE_HSE;
 161              		.loc 2 112 3 is_stmt 1 view .LVU32
 112:Core/Src/main.c ****   RCC_OscInitStruct.PLL.PLLSource = RCC_PLLSOURCE_HSE;
 162              		.loc 2 112 34 is_stmt 0 view .LVU33
 163 0050 0223     		movs	r3, #2
 164 0052 0E93     		str	r3, [sp, #56]
 113:Core/Src/main.c ****   RCC_OscInitStruct.PLL.PLLM = 8;
 165              		.loc 2 113 3 is_stmt 1 view .LVU34
 113:Core/Src/main.c ****   RCC_OscInitStruct.PLL.PLLM = 8;
 166              		.loc 2 113 35 is_stmt 0 view .LVU35
 167 0054 4FF48002 		mov	r2, #4194304
 168 0058 0F92     		str	r2, [sp, #60]
 114:Core/Src/main.c ****   RCC_OscInitStruct.PLL.PLLN = 336;
 169              		.loc 2 114 3 is_stmt 1 view .LVU36
 114:Core/Src/main.c ****   RCC_OscInitStruct.PLL.PLLN = 336;
 170              		.loc 2 114 30 is_stmt 0 view .LVU37
 171 005a 0822     		movs	r2, #8
 172 005c 1092     		str	r2, [sp, #64]
 115:Core/Src/main.c ****   RCC_OscInitStruct.PLL.PLLP = RCC_PLLP_DIV2;
 173              		.loc 2 115 3 is_stmt 1 view .LVU38
 115:Core/Src/main.c ****   RCC_OscInitStruct.PLL.PLLP = RCC_PLLP_DIV2;
 174              		.loc 2 115 30 is_stmt 0 view .LVU39
 175 005e 4FF4A872 		mov	r2, #336
 176 0062 1192     		str	r2, [sp, #68]
 116:Core/Src/main.c ****   RCC_OscInitStruct.PLL.PLLQ = 7;
 177              		.loc 2 116 3 is_stmt 1 view .LVU40
 116:Core/Src/main.c ****   RCC_OscInitStruct.PLL.PLLQ = 7;
 178              		.loc 2 116 30 is_stmt 0 view .LVU41
 179 0064 1293     		str	r3, [sp, #72]
 117:Core/Src/main.c ****   if (HAL_RCC_OscConfig(&RCC_OscInitStruct) != HAL_OK)
ARM GAS  /var/folders/0z/tsy30v1j4xl4_7kw94k978ww0000gn/T//cc0qpC5c.s 			page 13


 180              		.loc 2 117 3 is_stmt 1 view .LVU42
 117:Core/Src/main.c ****   if (HAL_RCC_OscConfig(&RCC_OscInitStruct) != HAL_OK)
 181              		.loc 2 117 30 is_stmt 0 view .LVU43
 182 0066 0723     		movs	r3, #7
 183 0068 1393     		str	r3, [sp, #76]
 118:Core/Src/main.c ****   {
 184              		.loc 2 118 3 is_stmt 1 view .LVU44
 118:Core/Src/main.c ****   {
 185              		.loc 2 118 7 is_stmt 0 view .LVU45
 186 006a 08A8     		add	r0, sp, #32
 187 006c FFF7FEFF 		bl	HAL_RCC_OscConfig
 188              	.LVL3:
 118:Core/Src/main.c ****   {
 189              		.loc 2 118 6 view .LVU46
 190 0070 98B9     		cbnz	r0, .L9
 125:Core/Src/main.c ****                               |RCC_CLOCKTYPE_PCLK1|RCC_CLOCKTYPE_PCLK2;
 191              		.loc 2 125 3 is_stmt 1 view .LVU47
 125:Core/Src/main.c ****                               |RCC_CLOCKTYPE_PCLK1|RCC_CLOCKTYPE_PCLK2;
 192              		.loc 2 125 31 is_stmt 0 view .LVU48
 193 0072 0F23     		movs	r3, #15
 194 0074 0393     		str	r3, [sp, #12]
 127:Core/Src/main.c ****   RCC_ClkInitStruct.AHBCLKDivider = RCC_SYSCLK_DIV1;
 195              		.loc 2 127 3 is_stmt 1 view .LVU49
 127:Core/Src/main.c ****   RCC_ClkInitStruct.AHBCLKDivider = RCC_SYSCLK_DIV1;
 196              		.loc 2 127 34 is_stmt 0 view .LVU50
 197 0076 0223     		movs	r3, #2
 198 0078 0493     		str	r3, [sp, #16]
 128:Core/Src/main.c ****   RCC_ClkInitStruct.APB1CLKDivider = RCC_HCLK_DIV4;
 199              		.loc 2 128 3 is_stmt 1 view .LVU51
 128:Core/Src/main.c ****   RCC_ClkInitStruct.APB1CLKDivider = RCC_HCLK_DIV4;
 200              		.loc 2 128 35 is_stmt 0 view .LVU52
 201 007a 0023     		movs	r3, #0
 202 007c 0593     		str	r3, [sp, #20]
 129:Core/Src/main.c ****   RCC_ClkInitStruct.APB2CLKDivider = RCC_HCLK_DIV2;
 203              		.loc 2 129 3 is_stmt 1 view .LVU53
 129:Core/Src/main.c ****   RCC_ClkInitStruct.APB2CLKDivider = RCC_HCLK_DIV2;
 204              		.loc 2 129 36 is_stmt 0 view .LVU54
 205 007e 4FF4A053 		mov	r3, #5120
 206 0082 0693     		str	r3, [sp, #24]
 130:Core/Src/main.c **** 
 207              		.loc 2 130 3 is_stmt 1 view .LVU55
 130:Core/Src/main.c **** 
 208              		.loc 2 130 36 is_stmt 0 view .LVU56
 209 0084 4FF48053 		mov	r3, #4096
 210 0088 0793     		str	r3, [sp, #28]
 132:Core/Src/main.c ****   {
 211              		.loc 2 132 3 is_stmt 1 view .LVU57
 132:Core/Src/main.c ****   {
 212              		.loc 2 132 7 is_stmt 0 view .LVU58
 213 008a 0521     		movs	r1, #5
 214 008c 03A8     		add	r0, sp, #12
 215 008e FFF7FEFF 		bl	HAL_RCC_ClockConfig
 216              	.LVL4:
 132:Core/Src/main.c ****   {
 217              		.loc 2 132 6 view .LVU59
 218 0092 20B9     		cbnz	r0, .L10
 136:Core/Src/main.c **** 
ARM GAS  /var/folders/0z/tsy30v1j4xl4_7kw94k978ww0000gn/T//cc0qpC5c.s 			page 14


 219              		.loc 2 136 1 view .LVU60
 220 0094 15B0     		add	sp, sp, #84
 221              		.cfi_remember_state
 222              		.cfi_def_cfa_offset 4
 223              		@ sp needed
 224 0096 5DF804FB 		ldr	pc, [sp], #4
 225              	.L9:
 226              		.cfi_restore_state
 120:Core/Src/main.c ****   }
 227              		.loc 2 120 5 is_stmt 1 view .LVU61
 228 009a FFF7FEFF 		bl	Error_Handler
 229              	.LVL5:
 230              	.L10:
 134:Core/Src/main.c ****   }
 231              		.loc 2 134 5 view .LVU62
 232 009e FFF7FEFF 		bl	Error_Handler
 233              	.LVL6:
 234              	.L12:
 235 00a2 00BF     		.align	2
 236              	.L11:
 237 00a4 00380240 		.word	1073887232
 238 00a8 00700040 		.word	1073770496
 239              		.cfi_endproc
 240              	.LFE335:
 242              		.section	.text.main,"ax",%progbits
 243              		.align	1
 244              		.global	main
 245              		.syntax unified
 246              		.thumb
 247              		.thumb_func
 249              	main:
 250              	.LFB334:
  47:Core/Src/main.c **** 
 251              		.loc 2 47 1 view -0
 252              		.cfi_startproc
 253              		@ args = 0, pretend = 0, frame = 0
 254              		@ frame_needed = 0, uses_anonymous_args = 0
 255 0000 10B5     		push	{r4, lr}
 256              		.cfi_def_cfa_offset 8
 257              		.cfi_offset 4, -8
 258              		.cfi_offset 14, -4
  52:Core/Src/main.c **** 
 259              		.loc 2 52 3 view .LVU64
 260 0002 FFF7FEFF 		bl	HAL_Init
 261              	.LVL7:
  56:Core/Src/main.c **** 
 262              		.loc 2 56 3 view .LVU65
 263 0006 FFF7FEFF 		bl	SystemClock_Config
 264              	.LVL8:
  60:Core/Src/main.c ****   MX_DMA_Init();
 265              		.loc 2 60 3 view .LVU66
 266 000a FFF7FEFF 		bl	MX_GPIO_Init
 267              	.LVL9:
  61:Core/Src/main.c ****   
 268              		.loc 2 61 3 view .LVU67
 269 000e FFF7FEFF 		bl	MX_DMA_Init
 270              	.LVL10:
ARM GAS  /var/folders/0z/tsy30v1j4xl4_7kw94k978ww0000gn/T//cc0qpC5c.s 			page 15


  63:Core/Src/main.c **** 
 271              		.loc 2 63 3 view .LVU68
 272 0012 FFF7FEFF 		bl	MX_SPI1_Init
 273              	.LVL11:
  66:Core/Src/main.c ****   lv_port_disp_init();
 274              		.loc 2 66 3 view .LVU69
 275 0016 FFF7FEFF 		bl	lv_init
 276              	.LVL12:
  67:Core/Src/main.c **** 
 277              		.loc 2 67 3 view .LVU70
 278 001a FFF7FEFF 		bl	lv_port_disp_init
 279              	.LVL13:
  70:Core/Src/main.c ****   lv_obj_set_style_text_color(lv_scr_act(), lv_color_hex(0xffffff), LV_PART_MAIN);
 280              		.loc 2 70 3 view .LVU71
  70:Core/Src/main.c ****   lv_obj_set_style_text_color(lv_scr_act(), lv_color_hex(0xffffff), LV_PART_MAIN);
 281              		.loc 2 70 29 is_stmt 0 view .LVU72
 282 001e FFF7FEFF 		bl	lv_scr_act
 283              	.LVL14:
 284              	.LBB12:
 285              	.LBI12:
 286              		.file 4 "Drivers/lvgl/src/hal/../draw/../misc/lv_color.h"
   1:Drivers/lvgl/src/hal/../draw/../misc/lv_color.h **** /**
   2:Drivers/lvgl/src/hal/../draw/../misc/lv_color.h ****  * @file lv_color.h
   3:Drivers/lvgl/src/hal/../draw/../misc/lv_color.h ****  *
   4:Drivers/lvgl/src/hal/../draw/../misc/lv_color.h ****  */
   5:Drivers/lvgl/src/hal/../draw/../misc/lv_color.h **** 
   6:Drivers/lvgl/src/hal/../draw/../misc/lv_color.h **** #ifndef LV_COLOR_H
   7:Drivers/lvgl/src/hal/../draw/../misc/lv_color.h **** #define LV_COLOR_H
   8:Drivers/lvgl/src/hal/../draw/../misc/lv_color.h **** 
   9:Drivers/lvgl/src/hal/../draw/../misc/lv_color.h **** #ifdef __cplusplus
  10:Drivers/lvgl/src/hal/../draw/../misc/lv_color.h **** extern "C" {
  11:Drivers/lvgl/src/hal/../draw/../misc/lv_color.h **** #endif
  12:Drivers/lvgl/src/hal/../draw/../misc/lv_color.h **** 
  13:Drivers/lvgl/src/hal/../draw/../misc/lv_color.h **** /*********************
  14:Drivers/lvgl/src/hal/../draw/../misc/lv_color.h ****  *      INCLUDES
  15:Drivers/lvgl/src/hal/../draw/../misc/lv_color.h ****  *********************/
  16:Drivers/lvgl/src/hal/../draw/../misc/lv_color.h **** #include "../lv_conf_internal.h"
  17:Drivers/lvgl/src/hal/../draw/../misc/lv_color.h **** #include "lv_assert.h"
  18:Drivers/lvgl/src/hal/../draw/../misc/lv_color.h **** #include "lv_math.h"
  19:Drivers/lvgl/src/hal/../draw/../misc/lv_color.h **** #include "lv_types.h"
  20:Drivers/lvgl/src/hal/../draw/../misc/lv_color.h **** 
  21:Drivers/lvgl/src/hal/../draw/../misc/lv_color.h **** /*Error checking*/
  22:Drivers/lvgl/src/hal/../draw/../misc/lv_color.h **** #if LV_COLOR_DEPTH == 24
  23:Drivers/lvgl/src/hal/../draw/../misc/lv_color.h **** #error "LV_COLOR_DEPTH 24 is deprecated. Use LV_COLOR_DEPTH 32 instead (lv_conf.h)"
  24:Drivers/lvgl/src/hal/../draw/../misc/lv_color.h **** #endif
  25:Drivers/lvgl/src/hal/../draw/../misc/lv_color.h **** 
  26:Drivers/lvgl/src/hal/../draw/../misc/lv_color.h **** #if LV_COLOR_DEPTH != 16 && LV_COLOR_16_SWAP != 0
  27:Drivers/lvgl/src/hal/../draw/../misc/lv_color.h **** #error "LV_COLOR_16_SWAP requires LV_COLOR_DEPTH == 16. Set it in lv_conf.h"
  28:Drivers/lvgl/src/hal/../draw/../misc/lv_color.h **** #endif
  29:Drivers/lvgl/src/hal/../draw/../misc/lv_color.h **** 
  30:Drivers/lvgl/src/hal/../draw/../misc/lv_color.h **** #include <stdint.h>
  31:Drivers/lvgl/src/hal/../draw/../misc/lv_color.h **** 
  32:Drivers/lvgl/src/hal/../draw/../misc/lv_color.h **** /*********************
  33:Drivers/lvgl/src/hal/../draw/../misc/lv_color.h ****  *      DEFINES
  34:Drivers/lvgl/src/hal/../draw/../misc/lv_color.h ****  *********************/
  35:Drivers/lvgl/src/hal/../draw/../misc/lv_color.h **** LV_EXPORT_CONST_INT(LV_COLOR_DEPTH);
  36:Drivers/lvgl/src/hal/../draw/../misc/lv_color.h **** LV_EXPORT_CONST_INT(LV_COLOR_16_SWAP);
ARM GAS  /var/folders/0z/tsy30v1j4xl4_7kw94k978ww0000gn/T//cc0qpC5c.s 			page 16


  37:Drivers/lvgl/src/hal/../draw/../misc/lv_color.h **** 
  38:Drivers/lvgl/src/hal/../draw/../misc/lv_color.h **** /**
  39:Drivers/lvgl/src/hal/../draw/../misc/lv_color.h ****  * Opacity percentages.
  40:Drivers/lvgl/src/hal/../draw/../misc/lv_color.h ****  */
  41:Drivers/lvgl/src/hal/../draw/../misc/lv_color.h **** enum {
  42:Drivers/lvgl/src/hal/../draw/../misc/lv_color.h ****     LV_OPA_TRANSP = 0,
  43:Drivers/lvgl/src/hal/../draw/../misc/lv_color.h ****     LV_OPA_0      = 0,
  44:Drivers/lvgl/src/hal/../draw/../misc/lv_color.h ****     LV_OPA_10     = 25,
  45:Drivers/lvgl/src/hal/../draw/../misc/lv_color.h ****     LV_OPA_20     = 51,
  46:Drivers/lvgl/src/hal/../draw/../misc/lv_color.h ****     LV_OPA_30     = 76,
  47:Drivers/lvgl/src/hal/../draw/../misc/lv_color.h ****     LV_OPA_40     = 102,
  48:Drivers/lvgl/src/hal/../draw/../misc/lv_color.h ****     LV_OPA_50     = 127,
  49:Drivers/lvgl/src/hal/../draw/../misc/lv_color.h ****     LV_OPA_60     = 153,
  50:Drivers/lvgl/src/hal/../draw/../misc/lv_color.h ****     LV_OPA_70     = 178,
  51:Drivers/lvgl/src/hal/../draw/../misc/lv_color.h ****     LV_OPA_80     = 204,
  52:Drivers/lvgl/src/hal/../draw/../misc/lv_color.h ****     LV_OPA_90     = 229,
  53:Drivers/lvgl/src/hal/../draw/../misc/lv_color.h ****     LV_OPA_100    = 255,
  54:Drivers/lvgl/src/hal/../draw/../misc/lv_color.h ****     LV_OPA_COVER  = 255,
  55:Drivers/lvgl/src/hal/../draw/../misc/lv_color.h **** };
  56:Drivers/lvgl/src/hal/../draw/../misc/lv_color.h **** 
  57:Drivers/lvgl/src/hal/../draw/../misc/lv_color.h **** #define LV_OPA_MIN 2    /*Opacities below this will be transparent*/
  58:Drivers/lvgl/src/hal/../draw/../misc/lv_color.h **** #define LV_OPA_MAX 253  /*Opacities above this will fully cover*/
  59:Drivers/lvgl/src/hal/../draw/../misc/lv_color.h **** 
  60:Drivers/lvgl/src/hal/../draw/../misc/lv_color.h **** #if LV_COLOR_DEPTH == 1
  61:Drivers/lvgl/src/hal/../draw/../misc/lv_color.h **** #define LV_COLOR_SIZE 8
  62:Drivers/lvgl/src/hal/../draw/../misc/lv_color.h **** #elif LV_COLOR_DEPTH == 8
  63:Drivers/lvgl/src/hal/../draw/../misc/lv_color.h **** #define LV_COLOR_SIZE 8
  64:Drivers/lvgl/src/hal/../draw/../misc/lv_color.h **** #elif LV_COLOR_DEPTH == 16
  65:Drivers/lvgl/src/hal/../draw/../misc/lv_color.h **** #define LV_COLOR_SIZE 16
  66:Drivers/lvgl/src/hal/../draw/../misc/lv_color.h **** #elif LV_COLOR_DEPTH == 32
  67:Drivers/lvgl/src/hal/../draw/../misc/lv_color.h **** #define LV_COLOR_SIZE 32
  68:Drivers/lvgl/src/hal/../draw/../misc/lv_color.h **** #else
  69:Drivers/lvgl/src/hal/../draw/../misc/lv_color.h **** #error "Invalid LV_COLOR_DEPTH in lv_conf.h! Set it to 1, 8, 16 or 32!"
  70:Drivers/lvgl/src/hal/../draw/../misc/lv_color.h **** #endif
  71:Drivers/lvgl/src/hal/../draw/../misc/lv_color.h **** 
  72:Drivers/lvgl/src/hal/../draw/../misc/lv_color.h **** #if defined(__cplusplus) && !defined(_LV_COLOR_HAS_MODERN_CPP)
  73:Drivers/lvgl/src/hal/../draw/../misc/lv_color.h **** /**
  74:Drivers/lvgl/src/hal/../draw/../misc/lv_color.h **** * MSVC compiler's definition of the __cplusplus indicating 199711L regardless to C++ standard versi
  75:Drivers/lvgl/src/hal/../draw/../misc/lv_color.h **** * see https://devblogs.microsoft.com/cppblog/msvc-now-correctly-reports-cplusplus
  76:Drivers/lvgl/src/hal/../draw/../misc/lv_color.h **** * so we use _MSC_VER macro instead of __cplusplus
  77:Drivers/lvgl/src/hal/../draw/../misc/lv_color.h **** */
  78:Drivers/lvgl/src/hal/../draw/../misc/lv_color.h **** #ifdef _MSC_VER
  79:Drivers/lvgl/src/hal/../draw/../misc/lv_color.h **** #if _MSC_VER >= 1900 /*Visual Studio 2015*/
  80:Drivers/lvgl/src/hal/../draw/../misc/lv_color.h **** #define _LV_COLOR_HAS_MODERN_CPP 1
  81:Drivers/lvgl/src/hal/../draw/../misc/lv_color.h **** #endif
  82:Drivers/lvgl/src/hal/../draw/../misc/lv_color.h **** #else
  83:Drivers/lvgl/src/hal/../draw/../misc/lv_color.h **** #if __cplusplus >= 201103L
  84:Drivers/lvgl/src/hal/../draw/../misc/lv_color.h **** #define _LV_COLOR_HAS_MODERN_CPP 1
  85:Drivers/lvgl/src/hal/../draw/../misc/lv_color.h **** #endif
  86:Drivers/lvgl/src/hal/../draw/../misc/lv_color.h **** #endif
  87:Drivers/lvgl/src/hal/../draw/../misc/lv_color.h **** #endif /*__cplusplus*/
  88:Drivers/lvgl/src/hal/../draw/../misc/lv_color.h **** 
  89:Drivers/lvgl/src/hal/../draw/../misc/lv_color.h **** #ifndef _LV_COLOR_HAS_MODERN_CPP
  90:Drivers/lvgl/src/hal/../draw/../misc/lv_color.h **** #define _LV_COLOR_HAS_MODERN_CPP 0
  91:Drivers/lvgl/src/hal/../draw/../misc/lv_color.h **** #endif
  92:Drivers/lvgl/src/hal/../draw/../misc/lv_color.h **** 
  93:Drivers/lvgl/src/hal/../draw/../misc/lv_color.h **** #if _LV_COLOR_HAS_MODERN_CPP
ARM GAS  /var/folders/0z/tsy30v1j4xl4_7kw94k978ww0000gn/T//cc0qpC5c.s 			page 17


  94:Drivers/lvgl/src/hal/../draw/../misc/lv_color.h **** /*Fix msvc compiler error C4576 inside C++ code*/
  95:Drivers/lvgl/src/hal/../draw/../misc/lv_color.h **** #define _LV_COLOR_MAKE_TYPE_HELPER lv_color_t
  96:Drivers/lvgl/src/hal/../draw/../misc/lv_color.h **** #else
  97:Drivers/lvgl/src/hal/../draw/../misc/lv_color.h **** #define _LV_COLOR_MAKE_TYPE_HELPER (lv_color_t)
  98:Drivers/lvgl/src/hal/../draw/../misc/lv_color.h **** #endif
  99:Drivers/lvgl/src/hal/../draw/../misc/lv_color.h **** 
 100:Drivers/lvgl/src/hal/../draw/../misc/lv_color.h **** /*---------------------------------------
 101:Drivers/lvgl/src/hal/../draw/../misc/lv_color.h ****  * Macros for all existing color depths
 102:Drivers/lvgl/src/hal/../draw/../misc/lv_color.h ****  * to set/get values of the color channels
 103:Drivers/lvgl/src/hal/../draw/../misc/lv_color.h ****  *------------------------------------------*/
 104:Drivers/lvgl/src/hal/../draw/../misc/lv_color.h **** # define LV_COLOR_SET_R1(c, v) (c).ch.red = (uint8_t)((v) & 0x1)
 105:Drivers/lvgl/src/hal/../draw/../misc/lv_color.h **** # define LV_COLOR_SET_G1(c, v) (c).ch.green = (uint8_t)((v) & 0x1)
 106:Drivers/lvgl/src/hal/../draw/../misc/lv_color.h **** # define LV_COLOR_SET_B1(c, v) (c).ch.blue = (uint8_t)((v) & 0x1)
 107:Drivers/lvgl/src/hal/../draw/../misc/lv_color.h **** # define LV_COLOR_SET_A1(c, v) do {} while(0)
 108:Drivers/lvgl/src/hal/../draw/../misc/lv_color.h **** 
 109:Drivers/lvgl/src/hal/../draw/../misc/lv_color.h **** # define LV_COLOR_GET_R1(c) (c).ch.red
 110:Drivers/lvgl/src/hal/../draw/../misc/lv_color.h **** # define LV_COLOR_GET_G1(c) (c).ch.green
 111:Drivers/lvgl/src/hal/../draw/../misc/lv_color.h **** # define LV_COLOR_GET_B1(c) (c).ch.blue
 112:Drivers/lvgl/src/hal/../draw/../misc/lv_color.h **** # define LV_COLOR_GET_A1(c) 0xFF
 113:Drivers/lvgl/src/hal/../draw/../misc/lv_color.h **** 
 114:Drivers/lvgl/src/hal/../draw/../misc/lv_color.h **** # define _LV_COLOR_ZERO_INITIALIZER1 {0x00}
 115:Drivers/lvgl/src/hal/../draw/../misc/lv_color.h **** # define LV_COLOR_MAKE1(r8, g8, b8)  {(uint8_t)((b8 >> 7) | (g8 >> 7) | (r8 >> 7))}
 116:Drivers/lvgl/src/hal/../draw/../misc/lv_color.h **** 
 117:Drivers/lvgl/src/hal/../draw/../misc/lv_color.h **** # define LV_COLOR_SET_R8(c, v) (c).ch.red = (uint8_t)((v) & 0x7U)
 118:Drivers/lvgl/src/hal/../draw/../misc/lv_color.h **** # define LV_COLOR_SET_G8(c, v) (c).ch.green = (uint8_t)((v) & 0x7U)
 119:Drivers/lvgl/src/hal/../draw/../misc/lv_color.h **** # define LV_COLOR_SET_B8(c, v) (c).ch.blue = (uint8_t)((v) & 0x3U)
 120:Drivers/lvgl/src/hal/../draw/../misc/lv_color.h **** # define LV_COLOR_SET_A8(c, v) do {} while(0)
 121:Drivers/lvgl/src/hal/../draw/../misc/lv_color.h **** 
 122:Drivers/lvgl/src/hal/../draw/../misc/lv_color.h **** # define LV_COLOR_GET_R8(c) (c).ch.red
 123:Drivers/lvgl/src/hal/../draw/../misc/lv_color.h **** # define LV_COLOR_GET_G8(c) (c).ch.green
 124:Drivers/lvgl/src/hal/../draw/../misc/lv_color.h **** # define LV_COLOR_GET_B8(c) (c).ch.blue
 125:Drivers/lvgl/src/hal/../draw/../misc/lv_color.h **** # define LV_COLOR_GET_A8(c) 0xFF
 126:Drivers/lvgl/src/hal/../draw/../misc/lv_color.h **** 
 127:Drivers/lvgl/src/hal/../draw/../misc/lv_color.h **** # define _LV_COLOR_ZERO_INITIALIZER8 {{0x00, 0x00, 0x00}}
 128:Drivers/lvgl/src/hal/../draw/../misc/lv_color.h **** # define LV_COLOR_MAKE8(r8, g8, b8) {{(uint8_t)((b8 >> 6) & 0x3U), (uint8_t)((g8 >> 5) & 0x7U), (ui
 129:Drivers/lvgl/src/hal/../draw/../misc/lv_color.h **** 
 130:Drivers/lvgl/src/hal/../draw/../misc/lv_color.h **** # define LV_COLOR_SET_R16(c, v) (c).ch.red = (uint8_t)((v) & 0x1FU)
 131:Drivers/lvgl/src/hal/../draw/../misc/lv_color.h **** #if LV_COLOR_16_SWAP == 0
 132:Drivers/lvgl/src/hal/../draw/../misc/lv_color.h **** # define LV_COLOR_SET_G16(c, v) (c).ch.green = (uint8_t)((v) & 0x3FU)
 133:Drivers/lvgl/src/hal/../draw/../misc/lv_color.h **** #else
 134:Drivers/lvgl/src/hal/../draw/../misc/lv_color.h **** # define LV_COLOR_SET_G16(c, v) {(c).ch.green_h = (uint8_t)(((v) >> 3) & 0x7); (c).ch.green_l = (ui
 135:Drivers/lvgl/src/hal/../draw/../misc/lv_color.h **** #endif
 136:Drivers/lvgl/src/hal/../draw/../misc/lv_color.h **** # define LV_COLOR_SET_B16(c, v) (c).ch.blue = (uint8_t)((v) & 0x1FU)
 137:Drivers/lvgl/src/hal/../draw/../misc/lv_color.h **** # define LV_COLOR_SET_A16(c, v) do {} while(0)
 138:Drivers/lvgl/src/hal/../draw/../misc/lv_color.h **** 
 139:Drivers/lvgl/src/hal/../draw/../misc/lv_color.h **** # define LV_COLOR_GET_R16(c) (c).ch.red
 140:Drivers/lvgl/src/hal/../draw/../misc/lv_color.h **** #if LV_COLOR_16_SWAP == 0
 141:Drivers/lvgl/src/hal/../draw/../misc/lv_color.h **** # define LV_COLOR_GET_G16(c) (c).ch.green
 142:Drivers/lvgl/src/hal/../draw/../misc/lv_color.h **** #else
 143:Drivers/lvgl/src/hal/../draw/../misc/lv_color.h **** # define LV_COLOR_GET_G16(c) (((c).ch.green_h << 3) + (c).ch.green_l)
 144:Drivers/lvgl/src/hal/../draw/../misc/lv_color.h **** #endif
 145:Drivers/lvgl/src/hal/../draw/../misc/lv_color.h **** # define LV_COLOR_GET_B16(c) (c).ch.blue
 146:Drivers/lvgl/src/hal/../draw/../misc/lv_color.h **** # define LV_COLOR_GET_A16(c) 0xFF
 147:Drivers/lvgl/src/hal/../draw/../misc/lv_color.h **** 
 148:Drivers/lvgl/src/hal/../draw/../misc/lv_color.h **** #if LV_COLOR_16_SWAP == 0
 149:Drivers/lvgl/src/hal/../draw/../misc/lv_color.h **** # define _LV_COLOR_ZERO_INITIALIZER16  {{0x00, 0x00, 0x00}}
 150:Drivers/lvgl/src/hal/../draw/../misc/lv_color.h **** # define LV_COLOR_MAKE16(r8, g8, b8) {{(uint8_t)((b8 >> 3) & 0x1FU), (uint8_t)((g8 >> 2) & 0x3FU), 
ARM GAS  /var/folders/0z/tsy30v1j4xl4_7kw94k978ww0000gn/T//cc0qpC5c.s 			page 18


 151:Drivers/lvgl/src/hal/../draw/../misc/lv_color.h **** #else
 152:Drivers/lvgl/src/hal/../draw/../misc/lv_color.h **** # define _LV_COLOR_ZERO_INITIALIZER16 {{0x00, 0x00, 0x00, 0x00}}
 153:Drivers/lvgl/src/hal/../draw/../misc/lv_color.h **** # define LV_COLOR_MAKE16(r8, g8, b8) {{(uint8_t)((g8 >> 5) & 0x7U), (uint8_t)((r8 >> 3) & 0x1FU), (
 154:Drivers/lvgl/src/hal/../draw/../misc/lv_color.h **** #endif
 155:Drivers/lvgl/src/hal/../draw/../misc/lv_color.h **** 
 156:Drivers/lvgl/src/hal/../draw/../misc/lv_color.h **** # define LV_COLOR_SET_R32(c, v) (c).ch.red = (uint8_t)((v) & 0xFF)
 157:Drivers/lvgl/src/hal/../draw/../misc/lv_color.h **** # define LV_COLOR_SET_G32(c, v) (c).ch.green = (uint8_t)((v) & 0xFF)
 158:Drivers/lvgl/src/hal/../draw/../misc/lv_color.h **** # define LV_COLOR_SET_B32(c, v) (c).ch.blue = (uint8_t)((v) & 0xFF)
 159:Drivers/lvgl/src/hal/../draw/../misc/lv_color.h **** # define LV_COLOR_SET_A32(c, v) (c).ch.alpha = (uint8_t)((v) & 0xFF)
 160:Drivers/lvgl/src/hal/../draw/../misc/lv_color.h **** 
 161:Drivers/lvgl/src/hal/../draw/../misc/lv_color.h **** # define LV_COLOR_GET_R32(c) (c).ch.red
 162:Drivers/lvgl/src/hal/../draw/../misc/lv_color.h **** # define LV_COLOR_GET_G32(c) (c).ch.green
 163:Drivers/lvgl/src/hal/../draw/../misc/lv_color.h **** # define LV_COLOR_GET_B32(c) (c).ch.blue
 164:Drivers/lvgl/src/hal/../draw/../misc/lv_color.h **** # define LV_COLOR_GET_A32(c) (c).ch.alpha
 165:Drivers/lvgl/src/hal/../draw/../misc/lv_color.h **** 
 166:Drivers/lvgl/src/hal/../draw/../misc/lv_color.h **** # define _LV_COLOR_ZERO_INITIALIZER32  {{0x00, 0x00, 0x00, 0x00}}
 167:Drivers/lvgl/src/hal/../draw/../misc/lv_color.h **** # define LV_COLOR_MAKE32(r8, g8, b8) {{b8, g8, r8, 0xff}} /*Fix 0xff alpha*/
 168:Drivers/lvgl/src/hal/../draw/../misc/lv_color.h **** 
 169:Drivers/lvgl/src/hal/../draw/../misc/lv_color.h **** /*---------------------------------------
 170:Drivers/lvgl/src/hal/../draw/../misc/lv_color.h ****  * Macros for the current color depth
 171:Drivers/lvgl/src/hal/../draw/../misc/lv_color.h ****  * to set/get values of the color channels
 172:Drivers/lvgl/src/hal/../draw/../misc/lv_color.h ****  *------------------------------------------*/
 173:Drivers/lvgl/src/hal/../draw/../misc/lv_color.h **** #define LV_COLOR_SET_R(c, v) LV_CONCAT(LV_COLOR_SET_R, LV_COLOR_DEPTH)(c, v)
 174:Drivers/lvgl/src/hal/../draw/../misc/lv_color.h **** #define LV_COLOR_SET_G(c, v) LV_CONCAT(LV_COLOR_SET_G, LV_COLOR_DEPTH)(c, v)
 175:Drivers/lvgl/src/hal/../draw/../misc/lv_color.h **** #define LV_COLOR_SET_B(c, v) LV_CONCAT(LV_COLOR_SET_B, LV_COLOR_DEPTH)(c, v)
 176:Drivers/lvgl/src/hal/../draw/../misc/lv_color.h **** #define LV_COLOR_SET_A(c, v) LV_CONCAT(LV_COLOR_SET_A, LV_COLOR_DEPTH)(c, v)
 177:Drivers/lvgl/src/hal/../draw/../misc/lv_color.h **** 
 178:Drivers/lvgl/src/hal/../draw/../misc/lv_color.h **** #define LV_COLOR_GET_R(c) LV_CONCAT(LV_COLOR_GET_R, LV_COLOR_DEPTH)(c)
 179:Drivers/lvgl/src/hal/../draw/../misc/lv_color.h **** #define LV_COLOR_GET_G(c) LV_CONCAT(LV_COLOR_GET_G, LV_COLOR_DEPTH)(c)
 180:Drivers/lvgl/src/hal/../draw/../misc/lv_color.h **** #define LV_COLOR_GET_B(c) LV_CONCAT(LV_COLOR_GET_B, LV_COLOR_DEPTH)(c)
 181:Drivers/lvgl/src/hal/../draw/../misc/lv_color.h **** #define LV_COLOR_GET_A(c) LV_CONCAT(LV_COLOR_GET_A, LV_COLOR_DEPTH)(c)
 182:Drivers/lvgl/src/hal/../draw/../misc/lv_color.h **** 
 183:Drivers/lvgl/src/hal/../draw/../misc/lv_color.h **** #define _LV_COLOR_ZERO_INITIALIZER LV_CONCAT(_LV_COLOR_ZERO_INITIALIZER, LV_COLOR_DEPTH)
 184:Drivers/lvgl/src/hal/../draw/../misc/lv_color.h **** #define LV_COLOR_MAKE(r8, g8, b8) LV_CONCAT(LV_COLOR_MAKE, LV_COLOR_DEPTH)(r8, g8, b8)
 185:Drivers/lvgl/src/hal/../draw/../misc/lv_color.h **** 
 186:Drivers/lvgl/src/hal/../draw/../misc/lv_color.h **** /**********************
 187:Drivers/lvgl/src/hal/../draw/../misc/lv_color.h ****  *      TYPEDEFS
 188:Drivers/lvgl/src/hal/../draw/../misc/lv_color.h ****  **********************/
 189:Drivers/lvgl/src/hal/../draw/../misc/lv_color.h **** 
 190:Drivers/lvgl/src/hal/../draw/../misc/lv_color.h **** typedef union {
 191:Drivers/lvgl/src/hal/../draw/../misc/lv_color.h ****     uint8_t full; /*must be declared first to set all bits of byte via initializer list*/
 192:Drivers/lvgl/src/hal/../draw/../misc/lv_color.h ****     union {
 193:Drivers/lvgl/src/hal/../draw/../misc/lv_color.h ****         uint8_t blue : 1;
 194:Drivers/lvgl/src/hal/../draw/../misc/lv_color.h ****         uint8_t green : 1;
 195:Drivers/lvgl/src/hal/../draw/../misc/lv_color.h ****         uint8_t red : 1;
 196:Drivers/lvgl/src/hal/../draw/../misc/lv_color.h ****     } ch;
 197:Drivers/lvgl/src/hal/../draw/../misc/lv_color.h **** } lv_color1_t;
 198:Drivers/lvgl/src/hal/../draw/../misc/lv_color.h **** 
 199:Drivers/lvgl/src/hal/../draw/../misc/lv_color.h **** typedef union {
 200:Drivers/lvgl/src/hal/../draw/../misc/lv_color.h ****     struct {
 201:Drivers/lvgl/src/hal/../draw/../misc/lv_color.h ****         uint8_t blue : 2;
 202:Drivers/lvgl/src/hal/../draw/../misc/lv_color.h ****         uint8_t green : 3;
 203:Drivers/lvgl/src/hal/../draw/../misc/lv_color.h ****         uint8_t red : 3;
 204:Drivers/lvgl/src/hal/../draw/../misc/lv_color.h ****     } ch;
 205:Drivers/lvgl/src/hal/../draw/../misc/lv_color.h ****     uint8_t full;
 206:Drivers/lvgl/src/hal/../draw/../misc/lv_color.h **** } lv_color8_t;
 207:Drivers/lvgl/src/hal/../draw/../misc/lv_color.h **** 
ARM GAS  /var/folders/0z/tsy30v1j4xl4_7kw94k978ww0000gn/T//cc0qpC5c.s 			page 19


 208:Drivers/lvgl/src/hal/../draw/../misc/lv_color.h **** typedef union {
 209:Drivers/lvgl/src/hal/../draw/../misc/lv_color.h ****     struct {
 210:Drivers/lvgl/src/hal/../draw/../misc/lv_color.h **** #if LV_COLOR_16_SWAP == 0
 211:Drivers/lvgl/src/hal/../draw/../misc/lv_color.h ****         uint16_t blue : 5;
 212:Drivers/lvgl/src/hal/../draw/../misc/lv_color.h ****         uint16_t green : 6;
 213:Drivers/lvgl/src/hal/../draw/../misc/lv_color.h ****         uint16_t red : 5;
 214:Drivers/lvgl/src/hal/../draw/../misc/lv_color.h **** #else
 215:Drivers/lvgl/src/hal/../draw/../misc/lv_color.h ****         uint16_t green_h : 3;
 216:Drivers/lvgl/src/hal/../draw/../misc/lv_color.h ****         uint16_t red : 5;
 217:Drivers/lvgl/src/hal/../draw/../misc/lv_color.h ****         uint16_t blue : 5;
 218:Drivers/lvgl/src/hal/../draw/../misc/lv_color.h ****         uint16_t green_l : 3;
 219:Drivers/lvgl/src/hal/../draw/../misc/lv_color.h **** #endif
 220:Drivers/lvgl/src/hal/../draw/../misc/lv_color.h ****     } ch;
 221:Drivers/lvgl/src/hal/../draw/../misc/lv_color.h ****     uint16_t full;
 222:Drivers/lvgl/src/hal/../draw/../misc/lv_color.h **** } lv_color16_t;
 223:Drivers/lvgl/src/hal/../draw/../misc/lv_color.h **** 
 224:Drivers/lvgl/src/hal/../draw/../misc/lv_color.h **** typedef union {
 225:Drivers/lvgl/src/hal/../draw/../misc/lv_color.h ****     struct {
 226:Drivers/lvgl/src/hal/../draw/../misc/lv_color.h ****         uint8_t blue;
 227:Drivers/lvgl/src/hal/../draw/../misc/lv_color.h ****         uint8_t green;
 228:Drivers/lvgl/src/hal/../draw/../misc/lv_color.h ****         uint8_t red;
 229:Drivers/lvgl/src/hal/../draw/../misc/lv_color.h ****         uint8_t alpha;
 230:Drivers/lvgl/src/hal/../draw/../misc/lv_color.h ****     } ch;
 231:Drivers/lvgl/src/hal/../draw/../misc/lv_color.h ****     uint32_t full;
 232:Drivers/lvgl/src/hal/../draw/../misc/lv_color.h **** } lv_color32_t;
 233:Drivers/lvgl/src/hal/../draw/../misc/lv_color.h **** 
 234:Drivers/lvgl/src/hal/../draw/../misc/lv_color.h **** typedef LV_CONCAT3(uint, LV_COLOR_SIZE, _t) lv_color_int_t;
 235:Drivers/lvgl/src/hal/../draw/../misc/lv_color.h **** typedef LV_CONCAT3(lv_color, LV_COLOR_DEPTH, _t) lv_color_t;
 236:Drivers/lvgl/src/hal/../draw/../misc/lv_color.h **** 
 237:Drivers/lvgl/src/hal/../draw/../misc/lv_color.h **** typedef struct {
 238:Drivers/lvgl/src/hal/../draw/../misc/lv_color.h ****     uint16_t h;
 239:Drivers/lvgl/src/hal/../draw/../misc/lv_color.h ****     uint8_t s;
 240:Drivers/lvgl/src/hal/../draw/../misc/lv_color.h ****     uint8_t v;
 241:Drivers/lvgl/src/hal/../draw/../misc/lv_color.h **** } lv_color_hsv_t;
 242:Drivers/lvgl/src/hal/../draw/../misc/lv_color.h **** 
 243:Drivers/lvgl/src/hal/../draw/../misc/lv_color.h **** //! @cond Doxygen_Suppress
 244:Drivers/lvgl/src/hal/../draw/../misc/lv_color.h **** /*No idea where the guard is required but else throws warnings in the docs*/
 245:Drivers/lvgl/src/hal/../draw/../misc/lv_color.h **** typedef uint8_t lv_opa_t;
 246:Drivers/lvgl/src/hal/../draw/../misc/lv_color.h **** //! @endcond
 247:Drivers/lvgl/src/hal/../draw/../misc/lv_color.h **** 
 248:Drivers/lvgl/src/hal/../draw/../misc/lv_color.h **** struct _lv_color_filter_dsc_t;
 249:Drivers/lvgl/src/hal/../draw/../misc/lv_color.h **** 
 250:Drivers/lvgl/src/hal/../draw/../misc/lv_color.h **** typedef lv_color_t (*lv_color_filter_cb_t)(const struct _lv_color_filter_dsc_t *, lv_color_t, lv_op
 251:Drivers/lvgl/src/hal/../draw/../misc/lv_color.h **** 
 252:Drivers/lvgl/src/hal/../draw/../misc/lv_color.h **** typedef struct _lv_color_filter_dsc_t {
 253:Drivers/lvgl/src/hal/../draw/../misc/lv_color.h ****     lv_color_filter_cb_t filter_cb;
 254:Drivers/lvgl/src/hal/../draw/../misc/lv_color.h ****     void * user_data;
 255:Drivers/lvgl/src/hal/../draw/../misc/lv_color.h **** } lv_color_filter_dsc_t;
 256:Drivers/lvgl/src/hal/../draw/../misc/lv_color.h **** 
 257:Drivers/lvgl/src/hal/../draw/../misc/lv_color.h **** 
 258:Drivers/lvgl/src/hal/../draw/../misc/lv_color.h **** typedef enum {
 259:Drivers/lvgl/src/hal/../draw/../misc/lv_color.h ****     LV_PALETTE_RED,
 260:Drivers/lvgl/src/hal/../draw/../misc/lv_color.h ****     LV_PALETTE_PINK,
 261:Drivers/lvgl/src/hal/../draw/../misc/lv_color.h ****     LV_PALETTE_PURPLE,
 262:Drivers/lvgl/src/hal/../draw/../misc/lv_color.h ****     LV_PALETTE_DEEP_PURPLE,
 263:Drivers/lvgl/src/hal/../draw/../misc/lv_color.h ****     LV_PALETTE_INDIGO,
 264:Drivers/lvgl/src/hal/../draw/../misc/lv_color.h ****     LV_PALETTE_BLUE,
ARM GAS  /var/folders/0z/tsy30v1j4xl4_7kw94k978ww0000gn/T//cc0qpC5c.s 			page 20


 265:Drivers/lvgl/src/hal/../draw/../misc/lv_color.h ****     LV_PALETTE_LIGHT_BLUE,
 266:Drivers/lvgl/src/hal/../draw/../misc/lv_color.h ****     LV_PALETTE_CYAN,
 267:Drivers/lvgl/src/hal/../draw/../misc/lv_color.h ****     LV_PALETTE_TEAL,
 268:Drivers/lvgl/src/hal/../draw/../misc/lv_color.h ****     LV_PALETTE_GREEN,
 269:Drivers/lvgl/src/hal/../draw/../misc/lv_color.h ****     LV_PALETTE_LIGHT_GREEN,
 270:Drivers/lvgl/src/hal/../draw/../misc/lv_color.h ****     LV_PALETTE_LIME,
 271:Drivers/lvgl/src/hal/../draw/../misc/lv_color.h ****     LV_PALETTE_YELLOW,
 272:Drivers/lvgl/src/hal/../draw/../misc/lv_color.h ****     LV_PALETTE_AMBER,
 273:Drivers/lvgl/src/hal/../draw/../misc/lv_color.h ****     LV_PALETTE_ORANGE,
 274:Drivers/lvgl/src/hal/../draw/../misc/lv_color.h ****     LV_PALETTE_DEEP_ORANGE,
 275:Drivers/lvgl/src/hal/../draw/../misc/lv_color.h ****     LV_PALETTE_BROWN,
 276:Drivers/lvgl/src/hal/../draw/../misc/lv_color.h ****     LV_PALETTE_BLUE_GREY,
 277:Drivers/lvgl/src/hal/../draw/../misc/lv_color.h ****     LV_PALETTE_GREY,
 278:Drivers/lvgl/src/hal/../draw/../misc/lv_color.h ****     _LV_PALETTE_LAST,
 279:Drivers/lvgl/src/hal/../draw/../misc/lv_color.h ****     LV_PALETTE_NONE = 0xff,
 280:Drivers/lvgl/src/hal/../draw/../misc/lv_color.h **** } lv_palette_t;
 281:Drivers/lvgl/src/hal/../draw/../misc/lv_color.h **** 
 282:Drivers/lvgl/src/hal/../draw/../misc/lv_color.h **** /**********************
 283:Drivers/lvgl/src/hal/../draw/../misc/lv_color.h ****  * GLOBAL PROTOTYPES
 284:Drivers/lvgl/src/hal/../draw/../misc/lv_color.h ****  **********************/
 285:Drivers/lvgl/src/hal/../draw/../misc/lv_color.h **** 
 286:Drivers/lvgl/src/hal/../draw/../misc/lv_color.h **** /*In color conversations:
 287:Drivers/lvgl/src/hal/../draw/../misc/lv_color.h ****  * - When converting to bigger color type the LSB weight of 1 LSB is calculated
 288:Drivers/lvgl/src/hal/../draw/../misc/lv_color.h ****  *   E.g. 16 bit Red has 5 bits
 289:Drivers/lvgl/src/hal/../draw/../misc/lv_color.h ****  *         8 bit Red has 3 bits
 290:Drivers/lvgl/src/hal/../draw/../misc/lv_color.h ****  *        ----------------------
 291:Drivers/lvgl/src/hal/../draw/../misc/lv_color.h ****  *        8 bit red LSB = (2^5 - 1) / (2^3 - 1) = 31 / 7 = 4
 292:Drivers/lvgl/src/hal/../draw/../misc/lv_color.h ****  *
 293:Drivers/lvgl/src/hal/../draw/../misc/lv_color.h ****  * - When calculating to smaller color type simply shift out the LSBs
 294:Drivers/lvgl/src/hal/../draw/../misc/lv_color.h ****  *   E.g.  8 bit Red has 3 bits
 295:Drivers/lvgl/src/hal/../draw/../misc/lv_color.h ****  *        16 bit Red has 5 bits
 296:Drivers/lvgl/src/hal/../draw/../misc/lv_color.h ****  *        ----------------------
 297:Drivers/lvgl/src/hal/../draw/../misc/lv_color.h ****  *         Shift right with 5 - 3 = 2
 298:Drivers/lvgl/src/hal/../draw/../misc/lv_color.h ****  */
 299:Drivers/lvgl/src/hal/../draw/../misc/lv_color.h **** static inline uint8_t lv_color_to1(lv_color_t color)
 300:Drivers/lvgl/src/hal/../draw/../misc/lv_color.h **** {
 301:Drivers/lvgl/src/hal/../draw/../misc/lv_color.h **** #if LV_COLOR_DEPTH == 1
 302:Drivers/lvgl/src/hal/../draw/../misc/lv_color.h ****     return color.full;
 303:Drivers/lvgl/src/hal/../draw/../misc/lv_color.h **** #elif LV_COLOR_DEPTH == 8
 304:Drivers/lvgl/src/hal/../draw/../misc/lv_color.h ****     if((LV_COLOR_GET_R(color) & 0x4) || (LV_COLOR_GET_G(color) & 0x4) || (LV_COLOR_GET_B(color) & 0
 305:Drivers/lvgl/src/hal/../draw/../misc/lv_color.h ****         return 1;
 306:Drivers/lvgl/src/hal/../draw/../misc/lv_color.h ****     }
 307:Drivers/lvgl/src/hal/../draw/../misc/lv_color.h ****     else {
 308:Drivers/lvgl/src/hal/../draw/../misc/lv_color.h ****         return 0;
 309:Drivers/lvgl/src/hal/../draw/../misc/lv_color.h ****     }
 310:Drivers/lvgl/src/hal/../draw/../misc/lv_color.h **** #elif LV_COLOR_DEPTH == 16
 311:Drivers/lvgl/src/hal/../draw/../misc/lv_color.h ****     if((LV_COLOR_GET_R(color) & 0x10) || (LV_COLOR_GET_G(color) & 0x20) || (LV_COLOR_GET_B(color) &
 312:Drivers/lvgl/src/hal/../draw/../misc/lv_color.h ****         return 1;
 313:Drivers/lvgl/src/hal/../draw/../misc/lv_color.h ****     }
 314:Drivers/lvgl/src/hal/../draw/../misc/lv_color.h ****     else {
 315:Drivers/lvgl/src/hal/../draw/../misc/lv_color.h ****         return 0;
 316:Drivers/lvgl/src/hal/../draw/../misc/lv_color.h ****     }
 317:Drivers/lvgl/src/hal/../draw/../misc/lv_color.h **** #elif LV_COLOR_DEPTH == 32
 318:Drivers/lvgl/src/hal/../draw/../misc/lv_color.h ****     if((LV_COLOR_GET_R(color) & 0x80) || (LV_COLOR_GET_G(color) & 0x80) || (LV_COLOR_GET_B(color) &
 319:Drivers/lvgl/src/hal/../draw/../misc/lv_color.h ****         return 1;
 320:Drivers/lvgl/src/hal/../draw/../misc/lv_color.h ****     }
 321:Drivers/lvgl/src/hal/../draw/../misc/lv_color.h ****     else {
ARM GAS  /var/folders/0z/tsy30v1j4xl4_7kw94k978ww0000gn/T//cc0qpC5c.s 			page 21


 322:Drivers/lvgl/src/hal/../draw/../misc/lv_color.h ****         return 0;
 323:Drivers/lvgl/src/hal/../draw/../misc/lv_color.h ****     }
 324:Drivers/lvgl/src/hal/../draw/../misc/lv_color.h **** #endif
 325:Drivers/lvgl/src/hal/../draw/../misc/lv_color.h **** }
 326:Drivers/lvgl/src/hal/../draw/../misc/lv_color.h **** 
 327:Drivers/lvgl/src/hal/../draw/../misc/lv_color.h **** static inline uint8_t lv_color_to8(lv_color_t color)
 328:Drivers/lvgl/src/hal/../draw/../misc/lv_color.h **** {
 329:Drivers/lvgl/src/hal/../draw/../misc/lv_color.h **** #if LV_COLOR_DEPTH == 1
 330:Drivers/lvgl/src/hal/../draw/../misc/lv_color.h ****     if(color.full == 0)
 331:Drivers/lvgl/src/hal/../draw/../misc/lv_color.h ****         return 0;
 332:Drivers/lvgl/src/hal/../draw/../misc/lv_color.h ****     else
 333:Drivers/lvgl/src/hal/../draw/../misc/lv_color.h ****         return 0xFF;
 334:Drivers/lvgl/src/hal/../draw/../misc/lv_color.h **** #elif LV_COLOR_DEPTH == 8
 335:Drivers/lvgl/src/hal/../draw/../misc/lv_color.h ****     return color.full;
 336:Drivers/lvgl/src/hal/../draw/../misc/lv_color.h **** #elif LV_COLOR_DEPTH == 16
 337:Drivers/lvgl/src/hal/../draw/../misc/lv_color.h ****     lv_color8_t ret;
 338:Drivers/lvgl/src/hal/../draw/../misc/lv_color.h ****     LV_COLOR_SET_R8(ret, LV_COLOR_GET_R(color) >> 2); /*5 - 3  = 2*/
 339:Drivers/lvgl/src/hal/../draw/../misc/lv_color.h ****     LV_COLOR_SET_G8(ret, LV_COLOR_GET_G(color) >> 3); /*6 - 3  = 3*/
 340:Drivers/lvgl/src/hal/../draw/../misc/lv_color.h ****     LV_COLOR_SET_B8(ret, LV_COLOR_GET_B(color) >> 3); /*5 - 2  = 3*/
 341:Drivers/lvgl/src/hal/../draw/../misc/lv_color.h ****     return ret.full;
 342:Drivers/lvgl/src/hal/../draw/../misc/lv_color.h **** #elif LV_COLOR_DEPTH == 32
 343:Drivers/lvgl/src/hal/../draw/../misc/lv_color.h ****     lv_color8_t ret;
 344:Drivers/lvgl/src/hal/../draw/../misc/lv_color.h ****     LV_COLOR_SET_R8(ret, LV_COLOR_GET_R(color) >> 5); /*8 - 3  = 5*/
 345:Drivers/lvgl/src/hal/../draw/../misc/lv_color.h ****     LV_COLOR_SET_G8(ret, LV_COLOR_GET_G(color) >> 5); /*8 - 3  = 5*/
 346:Drivers/lvgl/src/hal/../draw/../misc/lv_color.h ****     LV_COLOR_SET_B8(ret, LV_COLOR_GET_B(color) >> 6); /*8 - 2  = 6*/
 347:Drivers/lvgl/src/hal/../draw/../misc/lv_color.h ****     return ret.full;
 348:Drivers/lvgl/src/hal/../draw/../misc/lv_color.h **** #endif
 349:Drivers/lvgl/src/hal/../draw/../misc/lv_color.h **** }
 350:Drivers/lvgl/src/hal/../draw/../misc/lv_color.h **** 
 351:Drivers/lvgl/src/hal/../draw/../misc/lv_color.h **** static inline uint16_t lv_color_to16(lv_color_t color)
 352:Drivers/lvgl/src/hal/../draw/../misc/lv_color.h **** {
 353:Drivers/lvgl/src/hal/../draw/../misc/lv_color.h **** #if LV_COLOR_DEPTH == 1
 354:Drivers/lvgl/src/hal/../draw/../misc/lv_color.h ****     if(color.full == 0)
 355:Drivers/lvgl/src/hal/../draw/../misc/lv_color.h ****         return 0;
 356:Drivers/lvgl/src/hal/../draw/../misc/lv_color.h ****     else
 357:Drivers/lvgl/src/hal/../draw/../misc/lv_color.h ****         return 0xFFFF;
 358:Drivers/lvgl/src/hal/../draw/../misc/lv_color.h **** #elif LV_COLOR_DEPTH == 8
 359:Drivers/lvgl/src/hal/../draw/../misc/lv_color.h ****     lv_color16_t ret;
 360:Drivers/lvgl/src/hal/../draw/../misc/lv_color.h ****     LV_COLOR_SET_R16(ret, LV_COLOR_GET_R(color) * 4);  /*(2^5 - 1)/(2^3 - 1) = 31/7 = 4*/
 361:Drivers/lvgl/src/hal/../draw/../misc/lv_color.h ****     LV_COLOR_SET_G16(ret, LV_COLOR_GET_G(color) * 9);  /*(2^6 - 1)/(2^3 - 1) = 63/7 = 9*/
 362:Drivers/lvgl/src/hal/../draw/../misc/lv_color.h ****     LV_COLOR_SET_B16(ret, LV_COLOR_GET_B(color) * 10); /*(2^5 - 1)/(2^2 - 1) = 31/3 = 10*/
 363:Drivers/lvgl/src/hal/../draw/../misc/lv_color.h ****     return ret.full;
 364:Drivers/lvgl/src/hal/../draw/../misc/lv_color.h **** #elif LV_COLOR_DEPTH == 16
 365:Drivers/lvgl/src/hal/../draw/../misc/lv_color.h ****     return color.full;
 366:Drivers/lvgl/src/hal/../draw/../misc/lv_color.h **** #elif LV_COLOR_DEPTH == 32
 367:Drivers/lvgl/src/hal/../draw/../misc/lv_color.h ****     lv_color16_t ret;
 368:Drivers/lvgl/src/hal/../draw/../misc/lv_color.h ****     LV_COLOR_SET_R16(ret, LV_COLOR_GET_R(color) >> 3); /*8 - 5  = 3*/
 369:Drivers/lvgl/src/hal/../draw/../misc/lv_color.h ****     LV_COLOR_SET_G16(ret, LV_COLOR_GET_G(color) >> 2); /*8 - 6  = 2*/
 370:Drivers/lvgl/src/hal/../draw/../misc/lv_color.h ****     LV_COLOR_SET_B16(ret, LV_COLOR_GET_B(color) >> 3); /*8 - 5  = 3*/
 371:Drivers/lvgl/src/hal/../draw/../misc/lv_color.h ****     return ret.full;
 372:Drivers/lvgl/src/hal/../draw/../misc/lv_color.h **** #endif
 373:Drivers/lvgl/src/hal/../draw/../misc/lv_color.h **** }
 374:Drivers/lvgl/src/hal/../draw/../misc/lv_color.h **** 
 375:Drivers/lvgl/src/hal/../draw/../misc/lv_color.h **** static inline uint32_t lv_color_to32(lv_color_t color)
 376:Drivers/lvgl/src/hal/../draw/../misc/lv_color.h **** {
 377:Drivers/lvgl/src/hal/../draw/../misc/lv_color.h **** #if LV_COLOR_DEPTH == 1
 378:Drivers/lvgl/src/hal/../draw/../misc/lv_color.h ****     if(color.full == 0)
ARM GAS  /var/folders/0z/tsy30v1j4xl4_7kw94k978ww0000gn/T//cc0qpC5c.s 			page 22


 379:Drivers/lvgl/src/hal/../draw/../misc/lv_color.h ****         return 0xFF000000;
 380:Drivers/lvgl/src/hal/../draw/../misc/lv_color.h ****     else
 381:Drivers/lvgl/src/hal/../draw/../misc/lv_color.h ****         return 0xFFFFFFFF;
 382:Drivers/lvgl/src/hal/../draw/../misc/lv_color.h **** #elif LV_COLOR_DEPTH == 8
 383:Drivers/lvgl/src/hal/../draw/../misc/lv_color.h ****     lv_color32_t ret;
 384:Drivers/lvgl/src/hal/../draw/../misc/lv_color.h ****     LV_COLOR_SET_R32(ret, LV_COLOR_GET_R(color) * 36); /*(2^8 - 1)/(2^3 - 1) = 255/7 = 36*/
 385:Drivers/lvgl/src/hal/../draw/../misc/lv_color.h ****     LV_COLOR_SET_G32(ret, LV_COLOR_GET_G(color) * 36); /*(2^8 - 1)/(2^3 - 1) = 255/7 = 36*/
 386:Drivers/lvgl/src/hal/../draw/../misc/lv_color.h ****     LV_COLOR_SET_B32(ret, LV_COLOR_GET_B(color) * 85); /*(2^8 - 1)/(2^2 - 1) = 255/3 = 85*/
 387:Drivers/lvgl/src/hal/../draw/../misc/lv_color.h ****     LV_COLOR_SET_A32(ret, 0xFF);
 388:Drivers/lvgl/src/hal/../draw/../misc/lv_color.h ****     return ret.full;
 389:Drivers/lvgl/src/hal/../draw/../misc/lv_color.h **** #elif LV_COLOR_DEPTH == 16
 390:Drivers/lvgl/src/hal/../draw/../misc/lv_color.h ****     /**
 391:Drivers/lvgl/src/hal/../draw/../misc/lv_color.h ****      * The floating point math for conversion is:
 392:Drivers/lvgl/src/hal/../draw/../misc/lv_color.h ****      *  valueto = valuefrom * ( (2^bitsto - 1) / (float)(2^bitsfrom - 1) )
 393:Drivers/lvgl/src/hal/../draw/../misc/lv_color.h ****      * The faster integer math for conversion is:
 394:Drivers/lvgl/src/hal/../draw/../misc/lv_color.h ****      *  valueto = ( valuefrom * multiplier + adder ) >> divisor
 395:Drivers/lvgl/src/hal/../draw/../misc/lv_color.h ****      *   multiplier = FLOOR( ( (2^bitsto - 1) << divisor ) / (float)(2^bitsfrom - 1) )
 396:Drivers/lvgl/src/hal/../draw/../misc/lv_color.h ****      *
 397:Drivers/lvgl/src/hal/../draw/../misc/lv_color.h ****      * Find the first divisor where ( adder >> divisor ) <= 0
 398:Drivers/lvgl/src/hal/../draw/../misc/lv_color.h ****      *
 399:Drivers/lvgl/src/hal/../draw/../misc/lv_color.h ****      * 5-bit to 8-bit: ( 31 * multiplier + adder ) >> divisor = 255
 400:Drivers/lvgl/src/hal/../draw/../misc/lv_color.h ****      * divisor  multiplier  adder  min (0)  max (31)
 401:Drivers/lvgl/src/hal/../draw/../misc/lv_color.h ****      *       0           8      7        7       255
 402:Drivers/lvgl/src/hal/../draw/../misc/lv_color.h ****      *       1          16     14        7       255
 403:Drivers/lvgl/src/hal/../draw/../misc/lv_color.h ****      *       2          32     28        7       255
 404:Drivers/lvgl/src/hal/../draw/../misc/lv_color.h ****      *       3          65     25        3       255
 405:Drivers/lvgl/src/hal/../draw/../misc/lv_color.h ****      *       4         131     19        1       255
 406:Drivers/lvgl/src/hal/../draw/../misc/lv_color.h ****      *       5         263      7        0       255
 407:Drivers/lvgl/src/hal/../draw/../misc/lv_color.h ****      *
 408:Drivers/lvgl/src/hal/../draw/../misc/lv_color.h ****      * 6-bit to 8-bit: 255 = ( 63 * multiplier + adder ) >> divisor
 409:Drivers/lvgl/src/hal/../draw/../misc/lv_color.h ****      * divisor  multiplier  adder  min (0)  max (63)
 410:Drivers/lvgl/src/hal/../draw/../misc/lv_color.h ****      *       0           4      3        3       255
 411:Drivers/lvgl/src/hal/../draw/../misc/lv_color.h ****      *       1           8      6        3       255
 412:Drivers/lvgl/src/hal/../draw/../misc/lv_color.h ****      *       2          16     12        3       255
 413:Drivers/lvgl/src/hal/../draw/../misc/lv_color.h ****      *       3          32     24        3       255
 414:Drivers/lvgl/src/hal/../draw/../misc/lv_color.h ****      *       4          64     48        3       255
 415:Drivers/lvgl/src/hal/../draw/../misc/lv_color.h ****      *       5         129     33        1       255
 416:Drivers/lvgl/src/hal/../draw/../misc/lv_color.h ****      *       6         259      3        0       255
 417:Drivers/lvgl/src/hal/../draw/../misc/lv_color.h ****      */
 418:Drivers/lvgl/src/hal/../draw/../misc/lv_color.h **** 
 419:Drivers/lvgl/src/hal/../draw/../misc/lv_color.h ****     lv_color32_t ret;
 420:Drivers/lvgl/src/hal/../draw/../misc/lv_color.h ****     LV_COLOR_SET_R32(ret, (LV_COLOR_GET_R(color) * 263 + 7) >> 5);
 421:Drivers/lvgl/src/hal/../draw/../misc/lv_color.h ****     LV_COLOR_SET_G32(ret, (LV_COLOR_GET_G(color) * 259 + 3) >> 6);
 422:Drivers/lvgl/src/hal/../draw/../misc/lv_color.h ****     LV_COLOR_SET_B32(ret, (LV_COLOR_GET_B(color) * 263 + 7) >> 5);
 423:Drivers/lvgl/src/hal/../draw/../misc/lv_color.h ****     LV_COLOR_SET_A32(ret, 0xFF);
 424:Drivers/lvgl/src/hal/../draw/../misc/lv_color.h ****     return ret.full;
 425:Drivers/lvgl/src/hal/../draw/../misc/lv_color.h **** #elif LV_COLOR_DEPTH == 32
 426:Drivers/lvgl/src/hal/../draw/../misc/lv_color.h ****     return color.full;
 427:Drivers/lvgl/src/hal/../draw/../misc/lv_color.h **** #endif
 428:Drivers/lvgl/src/hal/../draw/../misc/lv_color.h **** }
 429:Drivers/lvgl/src/hal/../draw/../misc/lv_color.h **** 
 430:Drivers/lvgl/src/hal/../draw/../misc/lv_color.h **** //! @cond Doxygen_Suppress
 431:Drivers/lvgl/src/hal/../draw/../misc/lv_color.h **** 
 432:Drivers/lvgl/src/hal/../draw/../misc/lv_color.h **** /**
 433:Drivers/lvgl/src/hal/../draw/../misc/lv_color.h ****  * Mix two colors with a given ratio.
 434:Drivers/lvgl/src/hal/../draw/../misc/lv_color.h ****  * @param c1 the first color to mix (usually the foreground)
 435:Drivers/lvgl/src/hal/../draw/../misc/lv_color.h ****  * @param c2 the second color to mix (usually the background)
ARM GAS  /var/folders/0z/tsy30v1j4xl4_7kw94k978ww0000gn/T//cc0qpC5c.s 			page 23


 436:Drivers/lvgl/src/hal/../draw/../misc/lv_color.h ****  * @param mix The ratio of the colors. 0: full `c2`, 255: full `c1`, 127: half `c1` and half`c2`
 437:Drivers/lvgl/src/hal/../draw/../misc/lv_color.h ****  * @return the mixed color
 438:Drivers/lvgl/src/hal/../draw/../misc/lv_color.h ****  */
 439:Drivers/lvgl/src/hal/../draw/../misc/lv_color.h **** static inline lv_color_t LV_ATTRIBUTE_FAST_MEM lv_color_mix(lv_color_t c1, lv_color_t c2, uint8_t m
 440:Drivers/lvgl/src/hal/../draw/../misc/lv_color.h **** {
 441:Drivers/lvgl/src/hal/../draw/../misc/lv_color.h ****     lv_color_t ret;
 442:Drivers/lvgl/src/hal/../draw/../misc/lv_color.h **** 
 443:Drivers/lvgl/src/hal/../draw/../misc/lv_color.h **** #if LV_COLOR_DEPTH == 16 && LV_COLOR_MIX_ROUND_OFS == 0
 444:Drivers/lvgl/src/hal/../draw/../misc/lv_color.h **** #if LV_COLOR_16_SWAP == 1
 445:Drivers/lvgl/src/hal/../draw/../misc/lv_color.h ****     c1.full = c1.full << 8 | c1.full >> 8;
 446:Drivers/lvgl/src/hal/../draw/../misc/lv_color.h ****     c2.full = c2.full << 8 | c2.full >> 8;
 447:Drivers/lvgl/src/hal/../draw/../misc/lv_color.h **** #endif
 448:Drivers/lvgl/src/hal/../draw/../misc/lv_color.h ****     /*Source: https://stackoverflow.com/a/50012418/1999969*/
 449:Drivers/lvgl/src/hal/../draw/../misc/lv_color.h ****     mix = (uint32_t)((uint32_t)mix + 4) >> 3;
 450:Drivers/lvgl/src/hal/../draw/../misc/lv_color.h ****     uint32_t bg = (uint32_t)((uint32_t)c2.full | ((uint32_t)c2.full << 16)) &
 451:Drivers/lvgl/src/hal/../draw/../misc/lv_color.h ****                   0x7E0F81F; /*0b00000111111000001111100000011111*/
 452:Drivers/lvgl/src/hal/../draw/../misc/lv_color.h ****     uint32_t fg = (uint32_t)((uint32_t)c1.full | ((uint32_t)c1.full << 16)) & 0x7E0F81F;
 453:Drivers/lvgl/src/hal/../draw/../misc/lv_color.h ****     uint32_t result = ((((fg - bg) * mix) >> 5) + bg) & 0x7E0F81F;
 454:Drivers/lvgl/src/hal/../draw/../misc/lv_color.h ****     ret.full = (uint16_t)((result >> 16) | result);
 455:Drivers/lvgl/src/hal/../draw/../misc/lv_color.h **** #if LV_COLOR_16_SWAP == 1
 456:Drivers/lvgl/src/hal/../draw/../misc/lv_color.h ****     ret.full = ret.full << 8 | ret.full >> 8;
 457:Drivers/lvgl/src/hal/../draw/../misc/lv_color.h **** #endif
 458:Drivers/lvgl/src/hal/../draw/../misc/lv_color.h **** #elif LV_COLOR_DEPTH != 1
 459:Drivers/lvgl/src/hal/../draw/../misc/lv_color.h ****     /*LV_COLOR_DEPTH == 8, 16 or 32*/
 460:Drivers/lvgl/src/hal/../draw/../misc/lv_color.h ****     LV_COLOR_SET_R(ret, LV_UDIV255((uint16_t)LV_COLOR_GET_R(c1) * mix + LV_COLOR_GET_R(c2) *
 461:Drivers/lvgl/src/hal/../draw/../misc/lv_color.h ****                                    (255 - mix) + LV_COLOR_MIX_ROUND_OFS));
 462:Drivers/lvgl/src/hal/../draw/../misc/lv_color.h ****     LV_COLOR_SET_G(ret, LV_UDIV255((uint16_t)LV_COLOR_GET_G(c1) * mix + LV_COLOR_GET_G(c2) *
 463:Drivers/lvgl/src/hal/../draw/../misc/lv_color.h ****                                    (255 - mix) + LV_COLOR_MIX_ROUND_OFS));
 464:Drivers/lvgl/src/hal/../draw/../misc/lv_color.h ****     LV_COLOR_SET_B(ret, LV_UDIV255((uint16_t)LV_COLOR_GET_B(c1) * mix + LV_COLOR_GET_B(c2) *
 465:Drivers/lvgl/src/hal/../draw/../misc/lv_color.h ****                                    (255 - mix) + LV_COLOR_MIX_ROUND_OFS));
 466:Drivers/lvgl/src/hal/../draw/../misc/lv_color.h ****     LV_COLOR_SET_A(ret, 0xFF);
 467:Drivers/lvgl/src/hal/../draw/../misc/lv_color.h **** #else
 468:Drivers/lvgl/src/hal/../draw/../misc/lv_color.h ****     /*LV_COLOR_DEPTH == 1*/
 469:Drivers/lvgl/src/hal/../draw/../misc/lv_color.h ****     ret.full = mix > LV_OPA_50 ? c1.full : c2.full;
 470:Drivers/lvgl/src/hal/../draw/../misc/lv_color.h **** #endif
 471:Drivers/lvgl/src/hal/../draw/../misc/lv_color.h **** 
 472:Drivers/lvgl/src/hal/../draw/../misc/lv_color.h ****     return ret;
 473:Drivers/lvgl/src/hal/../draw/../misc/lv_color.h **** }
 474:Drivers/lvgl/src/hal/../draw/../misc/lv_color.h **** 
 475:Drivers/lvgl/src/hal/../draw/../misc/lv_color.h **** static inline void LV_ATTRIBUTE_FAST_MEM lv_color_premult(lv_color_t c, uint8_t mix, uint16_t * out
 476:Drivers/lvgl/src/hal/../draw/../misc/lv_color.h **** {
 477:Drivers/lvgl/src/hal/../draw/../misc/lv_color.h **** #if LV_COLOR_DEPTH != 1
 478:Drivers/lvgl/src/hal/../draw/../misc/lv_color.h ****     out[0] = (uint16_t)LV_COLOR_GET_R(c) * mix;
 479:Drivers/lvgl/src/hal/../draw/../misc/lv_color.h ****     out[1] = (uint16_t)LV_COLOR_GET_G(c) * mix;
 480:Drivers/lvgl/src/hal/../draw/../misc/lv_color.h ****     out[2] = (uint16_t)LV_COLOR_GET_B(c) * mix;
 481:Drivers/lvgl/src/hal/../draw/../misc/lv_color.h **** #else
 482:Drivers/lvgl/src/hal/../draw/../misc/lv_color.h ****     (void) mix;
 483:Drivers/lvgl/src/hal/../draw/../misc/lv_color.h ****     /*Pre-multiplication can't be used with 1 bpp*/
 484:Drivers/lvgl/src/hal/../draw/../misc/lv_color.h ****     out[0] = LV_COLOR_GET_R(c);
 485:Drivers/lvgl/src/hal/../draw/../misc/lv_color.h ****     out[1] = LV_COLOR_GET_G(c);
 486:Drivers/lvgl/src/hal/../draw/../misc/lv_color.h ****     out[2] = LV_COLOR_GET_B(c);
 487:Drivers/lvgl/src/hal/../draw/../misc/lv_color.h **** #endif
 488:Drivers/lvgl/src/hal/../draw/../misc/lv_color.h **** 
 489:Drivers/lvgl/src/hal/../draw/../misc/lv_color.h **** }
 490:Drivers/lvgl/src/hal/../draw/../misc/lv_color.h **** 
 491:Drivers/lvgl/src/hal/../draw/../misc/lv_color.h **** /**
 492:Drivers/lvgl/src/hal/../draw/../misc/lv_color.h ****  * Mix two colors with a given ratio. It runs faster then `lv_color_mix` but requires some pre comp
ARM GAS  /var/folders/0z/tsy30v1j4xl4_7kw94k978ww0000gn/T//cc0qpC5c.s 			page 24


 493:Drivers/lvgl/src/hal/../draw/../misc/lv_color.h ****  * @param premult_c1 The first color. Should be preprocessed with `lv_color_premult(c1)`
 494:Drivers/lvgl/src/hal/../draw/../misc/lv_color.h ****  * @param c2 The second color. As it is no pre computation required on it
 495:Drivers/lvgl/src/hal/../draw/../misc/lv_color.h ****  * @param mix The ratio of the colors. 0: full `c1`, 255: full `c2`, 127: half `c1` and half `c2`.
 496:Drivers/lvgl/src/hal/../draw/../misc/lv_color.h ****  *            Should be modified like mix = `255 - mix`
 497:Drivers/lvgl/src/hal/../draw/../misc/lv_color.h ****  * @return the mixed color
 498:Drivers/lvgl/src/hal/../draw/../misc/lv_color.h ****  * @note 255 won't give clearly `c1`.
 499:Drivers/lvgl/src/hal/../draw/../misc/lv_color.h ****  */
 500:Drivers/lvgl/src/hal/../draw/../misc/lv_color.h **** static inline lv_color_t LV_ATTRIBUTE_FAST_MEM lv_color_mix_premult(uint16_t * premult_c1, lv_color
 501:Drivers/lvgl/src/hal/../draw/../misc/lv_color.h **** {
 502:Drivers/lvgl/src/hal/../draw/../misc/lv_color.h ****     lv_color_t ret;
 503:Drivers/lvgl/src/hal/../draw/../misc/lv_color.h **** #if LV_COLOR_DEPTH != 1
 504:Drivers/lvgl/src/hal/../draw/../misc/lv_color.h ****     /*LV_COLOR_DEPTH == 8 or 32*/
 505:Drivers/lvgl/src/hal/../draw/../misc/lv_color.h ****     LV_COLOR_SET_R(ret, LV_UDIV255(premult_c1[0] + LV_COLOR_GET_R(c2) * mix + LV_COLOR_MIX_ROUND_OF
 506:Drivers/lvgl/src/hal/../draw/../misc/lv_color.h ****     LV_COLOR_SET_G(ret, LV_UDIV255(premult_c1[1] + LV_COLOR_GET_G(c2) * mix + LV_COLOR_MIX_ROUND_OF
 507:Drivers/lvgl/src/hal/../draw/../misc/lv_color.h ****     LV_COLOR_SET_B(ret, LV_UDIV255(premult_c1[2] + LV_COLOR_GET_B(c2) * mix + LV_COLOR_MIX_ROUND_OF
 508:Drivers/lvgl/src/hal/../draw/../misc/lv_color.h ****     LV_COLOR_SET_A(ret, 0xFF);
 509:Drivers/lvgl/src/hal/../draw/../misc/lv_color.h **** #else
 510:Drivers/lvgl/src/hal/../draw/../misc/lv_color.h ****     /*LV_COLOR_DEPTH == 1*/
 511:Drivers/lvgl/src/hal/../draw/../misc/lv_color.h ****     /*Restore color1*/
 512:Drivers/lvgl/src/hal/../draw/../misc/lv_color.h ****     lv_color_t c1;
 513:Drivers/lvgl/src/hal/../draw/../misc/lv_color.h ****     LV_COLOR_SET_R(c1, premult_c1[0]);
 514:Drivers/lvgl/src/hal/../draw/../misc/lv_color.h ****     LV_COLOR_SET_G(c1, premult_c1[1]);
 515:Drivers/lvgl/src/hal/../draw/../misc/lv_color.h ****     LV_COLOR_SET_B(c1, premult_c1[2]);
 516:Drivers/lvgl/src/hal/../draw/../misc/lv_color.h ****     ret.full = mix > LV_OPA_50 ? c2.full : c1.full;
 517:Drivers/lvgl/src/hal/../draw/../misc/lv_color.h **** #endif
 518:Drivers/lvgl/src/hal/../draw/../misc/lv_color.h **** 
 519:Drivers/lvgl/src/hal/../draw/../misc/lv_color.h ****     return ret;
 520:Drivers/lvgl/src/hal/../draw/../misc/lv_color.h **** }
 521:Drivers/lvgl/src/hal/../draw/../misc/lv_color.h **** 
 522:Drivers/lvgl/src/hal/../draw/../misc/lv_color.h **** /**
 523:Drivers/lvgl/src/hal/../draw/../misc/lv_color.h ****  * Mix two colors. Both color can have alpha value.
 524:Drivers/lvgl/src/hal/../draw/../misc/lv_color.h ****  * @param bg_color background color
 525:Drivers/lvgl/src/hal/../draw/../misc/lv_color.h ****  * @param bg_opa alpha of the background color
 526:Drivers/lvgl/src/hal/../draw/../misc/lv_color.h ****  * @param fg_color foreground color
 527:Drivers/lvgl/src/hal/../draw/../misc/lv_color.h ****  * @param fg_opa alpha of the foreground color
 528:Drivers/lvgl/src/hal/../draw/../misc/lv_color.h ****  * @param res_color the result color
 529:Drivers/lvgl/src/hal/../draw/../misc/lv_color.h ****  * @param res_opa the result opacity
 530:Drivers/lvgl/src/hal/../draw/../misc/lv_color.h ****  */
 531:Drivers/lvgl/src/hal/../draw/../misc/lv_color.h **** static inline void LV_ATTRIBUTE_FAST_MEM lv_color_mix_with_alpha(lv_color_t bg_color, lv_opa_t bg_o
 532:Drivers/lvgl/src/hal/../draw/../misc/lv_color.h ****                                                                  lv_color_t fg_color, lv_opa_t fg_o
 533:Drivers/lvgl/src/hal/../draw/../misc/lv_color.h ****                                                                  lv_color_t * res_color, lv_opa_t *
 534:Drivers/lvgl/src/hal/../draw/../misc/lv_color.h **** {
 535:Drivers/lvgl/src/hal/../draw/../misc/lv_color.h ****     /*Pick the foreground if it's fully opaque or the Background is fully transparent*/
 536:Drivers/lvgl/src/hal/../draw/../misc/lv_color.h ****     if(fg_opa >= LV_OPA_MAX || bg_opa <= LV_OPA_MIN) {
 537:Drivers/lvgl/src/hal/../draw/../misc/lv_color.h ****         res_color->full = fg_color.full;
 538:Drivers/lvgl/src/hal/../draw/../misc/lv_color.h ****         *res_opa = fg_opa;
 539:Drivers/lvgl/src/hal/../draw/../misc/lv_color.h ****     }
 540:Drivers/lvgl/src/hal/../draw/../misc/lv_color.h ****     /*Transparent foreground: use the Background*/
 541:Drivers/lvgl/src/hal/../draw/../misc/lv_color.h ****     else if(fg_opa <= LV_OPA_MIN) {
 542:Drivers/lvgl/src/hal/../draw/../misc/lv_color.h ****         res_color->full = bg_color.full;
 543:Drivers/lvgl/src/hal/../draw/../misc/lv_color.h ****         *res_opa = bg_opa;
 544:Drivers/lvgl/src/hal/../draw/../misc/lv_color.h ****     }
 545:Drivers/lvgl/src/hal/../draw/../misc/lv_color.h ****     /*Opaque background: use simple mix*/
 546:Drivers/lvgl/src/hal/../draw/../misc/lv_color.h ****     else if(bg_opa >= LV_OPA_MAX) {
 547:Drivers/lvgl/src/hal/../draw/../misc/lv_color.h ****         *res_color = lv_color_mix(fg_color, bg_color, fg_opa);
 548:Drivers/lvgl/src/hal/../draw/../misc/lv_color.h ****         *res_opa = LV_OPA_COVER;
 549:Drivers/lvgl/src/hal/../draw/../misc/lv_color.h ****     }
ARM GAS  /var/folders/0z/tsy30v1j4xl4_7kw94k978ww0000gn/T//cc0qpC5c.s 			page 25


 550:Drivers/lvgl/src/hal/../draw/../misc/lv_color.h ****     /*Both colors have alpha. Expensive calculation need to be applied*/
 551:Drivers/lvgl/src/hal/../draw/../misc/lv_color.h ****     else {
 552:Drivers/lvgl/src/hal/../draw/../misc/lv_color.h ****         /*Save the parameters and the result. If they will be asked again don't compute again*/
 553:Drivers/lvgl/src/hal/../draw/../misc/lv_color.h ****         static lv_opa_t fg_opa_save     = 0;
 554:Drivers/lvgl/src/hal/../draw/../misc/lv_color.h ****         static lv_opa_t bg_opa_save     = 0;
 555:Drivers/lvgl/src/hal/../draw/../misc/lv_color.h ****         static lv_color_t fg_color_save = _LV_COLOR_ZERO_INITIALIZER;
 556:Drivers/lvgl/src/hal/../draw/../misc/lv_color.h ****         static lv_color_t bg_color_save = _LV_COLOR_ZERO_INITIALIZER;
 557:Drivers/lvgl/src/hal/../draw/../misc/lv_color.h ****         static lv_color_t res_color_saved = _LV_COLOR_ZERO_INITIALIZER;
 558:Drivers/lvgl/src/hal/../draw/../misc/lv_color.h ****         static lv_opa_t res_opa_saved = 0;
 559:Drivers/lvgl/src/hal/../draw/../misc/lv_color.h **** 
 560:Drivers/lvgl/src/hal/../draw/../misc/lv_color.h ****         if(fg_opa != fg_opa_save || bg_opa != bg_opa_save || fg_color.full != fg_color_save.full ||
 561:Drivers/lvgl/src/hal/../draw/../misc/lv_color.h ****            bg_color.full != bg_color_save.full) {
 562:Drivers/lvgl/src/hal/../draw/../misc/lv_color.h ****             fg_opa_save        = fg_opa;
 563:Drivers/lvgl/src/hal/../draw/../misc/lv_color.h ****             bg_opa_save        = bg_opa;
 564:Drivers/lvgl/src/hal/../draw/../misc/lv_color.h ****             fg_color_save.full = fg_color.full;
 565:Drivers/lvgl/src/hal/../draw/../misc/lv_color.h ****             bg_color_save.full = bg_color.full;
 566:Drivers/lvgl/src/hal/../draw/../misc/lv_color.h ****             /*Info:
 567:Drivers/lvgl/src/hal/../draw/../misc/lv_color.h ****              * https://en.wikipedia.org/wiki/Alpha_compositing#Analytical_derivation_of_the_over_op
 568:Drivers/lvgl/src/hal/../draw/../misc/lv_color.h ****             res_opa_saved = 255 - ((uint16_t)((uint16_t)(255 - fg_opa) * (255 - bg_opa)) >> 8);
 569:Drivers/lvgl/src/hal/../draw/../misc/lv_color.h ****             LV_ASSERT(res_opa_saved != 0);
 570:Drivers/lvgl/src/hal/../draw/../misc/lv_color.h ****             lv_opa_t ratio = (uint16_t)((uint16_t)fg_opa * 255) / res_opa_saved;
 571:Drivers/lvgl/src/hal/../draw/../misc/lv_color.h ****             res_color_saved = lv_color_mix(fg_color, bg_color, ratio);
 572:Drivers/lvgl/src/hal/../draw/../misc/lv_color.h **** 
 573:Drivers/lvgl/src/hal/../draw/../misc/lv_color.h ****         }
 574:Drivers/lvgl/src/hal/../draw/../misc/lv_color.h **** 
 575:Drivers/lvgl/src/hal/../draw/../misc/lv_color.h ****         res_color->full = res_color_saved.full;
 576:Drivers/lvgl/src/hal/../draw/../misc/lv_color.h ****         *res_opa = res_opa_saved;
 577:Drivers/lvgl/src/hal/../draw/../misc/lv_color.h ****     }
 578:Drivers/lvgl/src/hal/../draw/../misc/lv_color.h **** }
 579:Drivers/lvgl/src/hal/../draw/../misc/lv_color.h **** 
 580:Drivers/lvgl/src/hal/../draw/../misc/lv_color.h **** //! @endcond
 581:Drivers/lvgl/src/hal/../draw/../misc/lv_color.h **** 
 582:Drivers/lvgl/src/hal/../draw/../misc/lv_color.h **** /**
 583:Drivers/lvgl/src/hal/../draw/../misc/lv_color.h ****  * Get the brightness of a color
 584:Drivers/lvgl/src/hal/../draw/../misc/lv_color.h ****  * @param color a color
 585:Drivers/lvgl/src/hal/../draw/../misc/lv_color.h ****  * @return the brightness [0..255]
 586:Drivers/lvgl/src/hal/../draw/../misc/lv_color.h ****  */
 587:Drivers/lvgl/src/hal/../draw/../misc/lv_color.h **** static inline uint8_t lv_color_brightness(lv_color_t color)
 588:Drivers/lvgl/src/hal/../draw/../misc/lv_color.h **** {
 589:Drivers/lvgl/src/hal/../draw/../misc/lv_color.h ****     lv_color32_t c32;
 590:Drivers/lvgl/src/hal/../draw/../misc/lv_color.h ****     c32.full        = lv_color_to32(color);
 591:Drivers/lvgl/src/hal/../draw/../misc/lv_color.h ****     uint16_t bright = (uint16_t)(3u * LV_COLOR_GET_R32(c32) + LV_COLOR_GET_B32(c32) + 4u * LV_COLOR
 592:Drivers/lvgl/src/hal/../draw/../misc/lv_color.h ****     return (uint8_t)(bright >> 3);
 593:Drivers/lvgl/src/hal/../draw/../misc/lv_color.h **** }
 594:Drivers/lvgl/src/hal/../draw/../misc/lv_color.h **** 
 595:Drivers/lvgl/src/hal/../draw/../misc/lv_color.h **** static inline lv_color_t lv_color_make(uint8_t r, uint8_t g, uint8_t b)
 596:Drivers/lvgl/src/hal/../draw/../misc/lv_color.h **** {
 597:Drivers/lvgl/src/hal/../draw/../misc/lv_color.h ****     return _LV_COLOR_MAKE_TYPE_HELPER LV_COLOR_MAKE(r, g, b);
 598:Drivers/lvgl/src/hal/../draw/../misc/lv_color.h **** }
 599:Drivers/lvgl/src/hal/../draw/../misc/lv_color.h **** 
 600:Drivers/lvgl/src/hal/../draw/../misc/lv_color.h **** static inline lv_color_t lv_color_hex(uint32_t c)
 287              		.loc 4 600 26 is_stmt 1 view .LVU73
 288              	.LBB13:
 601:Drivers/lvgl/src/hal/../draw/../misc/lv_color.h **** {
 602:Drivers/lvgl/src/hal/../draw/../misc/lv_color.h **** #if LV_COLOR_DEPTH == 16
 603:Drivers/lvgl/src/hal/../draw/../misc/lv_color.h ****     lv_color_t r;
 289              		.loc 4 603 5 view .LVU74
ARM GAS  /var/folders/0z/tsy30v1j4xl4_7kw94k978ww0000gn/T//cc0qpC5c.s 			page 26


 604:Drivers/lvgl/src/hal/../draw/../misc/lv_color.h **** #if LV_COLOR_16_SWAP == 0
 605:Drivers/lvgl/src/hal/../draw/../misc/lv_color.h ****     /* Convert a 4 bytes per pixel in format ARGB32 to R5G6B5 format
 606:Drivers/lvgl/src/hal/../draw/../misc/lv_color.h ****         naive way (by calling lv_color_make with components):
 607:Drivers/lvgl/src/hal/../draw/../misc/lv_color.h ****                     r = ((c & 0xFF0000) >> 19)
 608:Drivers/lvgl/src/hal/../draw/../misc/lv_color.h ****                     g = ((c & 0xFF00) >> 10)
 609:Drivers/lvgl/src/hal/../draw/../misc/lv_color.h ****                     b = ((c & 0xFF) >> 3)
 610:Drivers/lvgl/src/hal/../draw/../misc/lv_color.h ****                     rgb565 = (r << 11) | (g << 5) | b
 611:Drivers/lvgl/src/hal/../draw/../misc/lv_color.h ****         That's 3 mask, 5 bitshift and 2 or operations
 612:Drivers/lvgl/src/hal/../draw/../misc/lv_color.h **** 
 613:Drivers/lvgl/src/hal/../draw/../misc/lv_color.h ****         A bit better:
 614:Drivers/lvgl/src/hal/../draw/../misc/lv_color.h ****                     r = ((c & 0xF80000) >> 8)
 615:Drivers/lvgl/src/hal/../draw/../misc/lv_color.h ****                     g = ((c & 0xFC00) >> 5)
 616:Drivers/lvgl/src/hal/../draw/../misc/lv_color.h ****                     b = ((c & 0xFF) >> 3)
 617:Drivers/lvgl/src/hal/../draw/../misc/lv_color.h ****                     rgb565 = r | g | b
 618:Drivers/lvgl/src/hal/../draw/../misc/lv_color.h ****         That's 3 mask, 3 bitshifts and 2 or operations */
 619:Drivers/lvgl/src/hal/../draw/../misc/lv_color.h ****     r.full = (uint16_t)(((c & 0xF80000) >> 8) | ((c & 0xFC00) >> 5) | ((c & 0xFF) >> 3));
 620:Drivers/lvgl/src/hal/../draw/../misc/lv_color.h **** #else
 621:Drivers/lvgl/src/hal/../draw/../misc/lv_color.h ****     /* We want: rrrr rrrr GGGg gggg bbbb bbbb => gggb bbbb rrrr rGGG */
 622:Drivers/lvgl/src/hal/../draw/../misc/lv_color.h ****     r.full = (uint16_t)(((c & 0xF80000) >> 16) | ((c & 0xFC00) >> 13) | ((c & 0x1C00) << 3) | ((c &
 290              		.loc 4 622 5 view .LVU75
 623:Drivers/lvgl/src/hal/../draw/../misc/lv_color.h **** #endif
 624:Drivers/lvgl/src/hal/../draw/../misc/lv_color.h ****     return r;
 291              		.loc 4 624 5 view .LVU76
 292              		.loc 4 624 5 is_stmt 0 view .LVU77
 293              	.LBE13:
 294              	.LBE12:
  70:Core/Src/main.c ****   lv_obj_set_style_text_color(lv_scr_act(), lv_color_hex(0xffffff), LV_PART_MAIN);
 295              		.loc 2 70 3 view .LVU78
 296 0022 0022     		movs	r2, #0
 297 0024 4CF60121 		movw	r1, 51713	@ movhi
 298 0028 FFF7FEFF 		bl	lv_obj_set_style_bg_color
 299              	.LVL15:
  71:Core/Src/main.c **** 
 300              		.loc 2 71 3 is_stmt 1 view .LVU79
  71:Core/Src/main.c **** 
 301              		.loc 2 71 31 is_stmt 0 view .LVU80
 302 002c FFF7FEFF 		bl	lv_scr_act
 303              	.LVL16:
 304              	.LBB14:
 305              	.LBI14:
 600:Drivers/lvgl/src/hal/../draw/../misc/lv_color.h **** {
 306              		.loc 4 600 26 is_stmt 1 view .LVU81
 307              	.LBB15:
 603:Drivers/lvgl/src/hal/../draw/../misc/lv_color.h **** #if LV_COLOR_16_SWAP == 0
 308              		.loc 4 603 5 view .LVU82
 622:Drivers/lvgl/src/hal/../draw/../misc/lv_color.h **** #endif
 309              		.loc 4 622 5 view .LVU83
 310              		.loc 4 624 5 view .LVU84
 311              		.loc 4 624 5 is_stmt 0 view .LVU85
 312              	.LBE15:
 313              	.LBE14:
  71:Core/Src/main.c **** 
 314              		.loc 2 71 3 view .LVU86
 315 0030 0022     		movs	r2, #0
 316 0032 4FF0FF31 		mov	r1, #-1	@ movhi
 317 0036 FFF7FEFF 		bl	lv_obj_set_style_text_color
 318              	.LVL17:
ARM GAS  /var/folders/0z/tsy30v1j4xl4_7kw94k978ww0000gn/T//cc0qpC5c.s 			page 27


  74:Core/Src/main.c ****   lv_obj_set_size(spinner, 64, 64);
 319              		.loc 2 74 3 is_stmt 1 view .LVU87
  74:Core/Src/main.c ****   lv_obj_set_size(spinner, 64, 64);
 320              		.loc 2 74 24 is_stmt 0 view .LVU88
 321 003a FFF7FEFF 		bl	lv_scr_act
 322              	.LVL18:
 323 003e 3C22     		movs	r2, #60
 324 0040 4FF47A71 		mov	r1, #1000
 325 0044 FFF7FEFF 		bl	lv_spinner_create
 326              	.LVL19:
 327 0048 0446     		mov	r4, r0
 328              	.LVL20:
  75:Core/Src/main.c ****   lv_obj_align(spinner, LV_ALIGN_BOTTOM_MID, 0, 0);
 329              		.loc 2 75 3 is_stmt 1 view .LVU89
 330 004a 4022     		movs	r2, #64
 331 004c 1146     		mov	r1, r2
 332 004e FFF7FEFF 		bl	lv_obj_set_size
 333              	.LVL21:
  76:Core/Src/main.c **** 
 334              		.loc 2 76 3 view .LVU90
 335 0052 0023     		movs	r3, #0
 336 0054 1A46     		mov	r2, r3
 337 0056 0521     		movs	r1, #5
 338 0058 2046     		mov	r0, r4
 339 005a FFF7FEFF 		bl	lv_obj_align
 340              	.LVL22:
 341              	.L14:
  83:Core/Src/main.c ****   {
 342              		.loc 2 83 3 discriminator 1 view .LVU91
  86:Core/Src/main.c **** 	  HAL_Delay(5);  // to be added
 343              		.loc 2 86 5 discriminator 1 view .LVU92
 344 005e FFF7FEFF 		bl	lv_timer_handler
 345              	.LVL23:
  87:Core/Src/main.c ****     /* USER CODE BEGIN 3 */
 346              		.loc 2 87 4 discriminator 1 view .LVU93
 347 0062 0520     		movs	r0, #5
 348 0064 FFF7FEFF 		bl	HAL_Delay
 349              	.LVL24:
  83:Core/Src/main.c ****   {
 350              		.loc 2 83 9 discriminator 1 view .LVU94
 351 0068 F9E7     		b	.L14
 352              		.cfi_endproc
 353              	.LFE334:
 355              		.text
 356              	.Letext0:
 357              		.file 5 "/Users/johannes/Library/Application Support/Code/User/globalStorage/bmd.stm32-for-vscode/
 358              		.file 6 "/Users/johannes/Library/Application Support/Code/User/globalStorage/bmd.stm32-for-vscode/
 359              		.file 7 "Drivers/CMSIS/Device/ST/STM32F4xx/Include/stm32f407xx.h"
 360              		.file 8 "/Users/johannes/Library/Application Support/Code/User/globalStorage/bmd.stm32-for-vscode/
 361              		.file 9 "Drivers/STM32F4xx_HAL_Driver/Inc/stm32f4xx_hal_def.h"
 362              		.file 10 "Drivers/STM32F4xx_HAL_Driver/Inc/stm32f4xx_hal_rcc_ex.h"
 363              		.file 11 "Drivers/STM32F4xx_HAL_Driver/Inc/stm32f4xx_hal_rcc.h"
 364              		.file 12 "Drivers/lvgl/src/misc/lv_types.h"
 365              		.file 13 "Drivers/lvgl/src/misc/lv_timer.h"
 366              		.file 14 "Drivers/lvgl/src/hal/../draw/../misc/../font/../misc/lv_area.h"
 367              		.file 15 "Drivers/lvgl/src/hal/../draw/../misc/../font/lv_font.h"
 368              		.file 16 "Drivers/lvgl/src/hal/../draw/../misc/lv_txt.h"
ARM GAS  /var/folders/0z/tsy30v1j4xl4_7kw94k978ww0000gn/T//cc0qpC5c.s 			page 28


 369              		.file 17 "Drivers/lvgl/src/hal/../draw/../misc/lv_bidi.h"
 370              		.file 18 "Drivers/lvgl/src/hal/../draw/../misc/lv_style.h"
 371              		.file 19 "Drivers/lvgl/src/hal/../draw/lv_img_buf.h"
 372              		.file 20 "Drivers/lvgl/src/core/lv_obj.h"
 373              		.file 21 "Drivers/lvgl/src/hal/../draw/lv_draw_rect.h"
 374              		.file 22 "Drivers/lvgl/src/hal/../draw/lv_draw_label.h"
 375              		.file 23 "Drivers/lvgl/src/hal/../draw/lv_draw_img.h"
 376              		.file 24 "Drivers/lvgl/src/hal/../draw/lv_draw_line.h"
 377              		.file 25 "Drivers/lvgl/src/hal/../draw/lv_draw_arc.h"
 378              		.file 26 "Drivers/lvgl/src/hal/../draw/lv_draw_layer.h"
 379              		.file 27 "Drivers/lvgl/src/hal/../draw/lv_draw.h"
 380              		.file 28 "Drivers/lvgl/src/hal/../misc/lv_ll.h"
 381              		.file 29 "Drivers/lvgl/src/hal/lv_hal_disp.h"
 382              		.file 30 "Drivers/lvgl/src/core/lv_theme.h"
 383              		.file 31 "Drivers/lvgl/src/core/lv_group.h"
 384              		.file 32 "Drivers/lvgl/src/core/lv_obj_scroll.h"
 385              		.file 33 "Drivers/lvgl/src/core/lv_obj_style.h"
 386              		.file 34 "Drivers/lvgl/src/core/lv_obj_class.h"
 387              		.file 35 "Drivers/lvgl/src/core/lv_event.h"
 388              		.file 36 "Drivers/STM32F4xx_HAL_Driver/Inc/stm32f4xx_hal.h"
 389              		.file 37 "Drivers/lvgl/src/hal/../draw/sw/../../core/lv_obj_pos.h"
 390              		.file 38 "Drivers/lvgl/src/extra/widgets/spinner/lv_spinner.h"
 391              		.file 39 "Drivers/lvgl/src/core/lv_obj_style_gen.h"
 392              		.file 40 "Core/Inc/LCDController.h"
 393              		.file 41 "Core/Inc/spi.h"
 394              		.file 42 "Core/Inc/dma.h"
 395              		.file 43 "Core/Inc/gpio.h"
 396              		.file 44 "<built-in>"
ARM GAS  /var/folders/0z/tsy30v1j4xl4_7kw94k978ww0000gn/T//cc0qpC5c.s 			page 29

